Successfully assembled to ./sdk/intuitionos/iexec/iexec.ie64 (80772 bytes)

--- Listing ---
         = 0000000000000001  IOS_VERSION_MAJOR  equ 1
         = 0000000000000010  IOS_VERSION_MINOR  equ 16
         = 0000000000000006  IOS_VERSION_PATCH  equ 6
         = 000000004D534F49  IOSM_MAGIC               equ 0x4D534F49
         = 0000000000000001  IOSM_SCHEMA_VERSION      equ 1
         = 0000000000000001  IOSM_KIND_LIBRARY        equ 1
         = 0000000000000002  IOSM_KIND_DEVICE         equ 2
         = 0000000000000003  IOSM_KIND_HANDLER        equ 3
         = 0000000000000004  IOSM_KIND_RESOURCE       equ 4
         = 0000000000000005  IOSM_KIND_COMMAND        equ 5
         = 0000000000000000  IOSM_OFF_MAGIC           equ 0
         = 0000000000000004  IOSM_OFF_SCHEMA_VERSION  equ 4
         = 0000000000000008  IOSM_OFF_KIND            equ 8
         = 0000000000000009  IOSM_OFF_RESERVED0       equ 9
         = 000000000000000A  IOSM_OFF_VERSION         equ 10
         = 000000000000000C  IOSM_OFF_REVISION        equ 12
         = 000000000000000E  IOSM_OFF_PATCH           equ 14
         = 0000000000000010  IOSM_OFF_NAME            equ 16
         = 0000000000000030  IOSM_OFF_FLAGS           equ 48
         = 0000000000000034  IOSM_OFF_MSG_ABI_VERSION equ 52
         = 0000000000000038  IOSM_OFF_BUILD_DATE      equ 56
         = 0000000000000048  IOSM_OFF_COPYRIGHT       equ 72
         = 0000000000000078  IOSM_OFF_RESERVED2       equ 120
         = 0000000000000020  IOSM_NAME_SIZE           equ 32
         = 0000000000000010  IOSM_BUILD_DATE_SIZE     equ 16
         = 0000000000000030  IOSM_COPYRIGHT_SIZE      equ 48
         = 0000000000000080  IOSM_SIZE                equ 128
         = 00000000494F5331  IOSM_NOTE_TYPE           equ 0x494F5331
         = 0000000000000001  SYS_ALLOC_MEM     equ 1
         = 0000000000000002  SYS_FREE_MEM      equ 2
         = 0000000000000004  SYS_MAP_SHARED    equ 4
         = 0000000000000005  SYS_CREATE_TASK   equ 5
         = 000000000000000B  SYS_ALLOC_SIGNAL  equ 11
         = 000000000000000C  SYS_FREE_SIGNAL   equ 12
         = 000000000000000D  SYS_SIGNAL        equ 13
         = 000000000000000E  SYS_WAIT          equ 14
         = 000000000000000F  SYS_CREATE_PORT   equ 15
         = 0000000000000010  SYS_FIND_PORT     equ 16
         = 0000000000000011  SYS_PUT_MSG       equ 17
         = 0000000000000012  SYS_GET_MSG       equ 18
         = 0000000000000013  SYS_WAIT_PORT     equ 19
         = 0000000000000014  SYS_REPLY_MSG     equ 20
         = 000000000000001A  SYS_YIELD         equ 26
         = 000000000000001B  SYS_GET_SYS_INFO  equ 27
         = 000000000000001C  SYS_MAP_IO        equ 28
         = 0000000000000021  SYS_DEBUG_PUTCHAR equ 33
         = 0000000000000022  SYS_EXIT_TASK     equ 34
         = 0000000000000023  SYS_EXEC_PROGRAM  equ 35
         = 0000000000000024  SYS_OPEN_LIBRARY  equ 36
         = 0000000000000026  SYS_HWRES_OP      equ 38
         = 0000000000000027  SYS_BOOT_MANIFEST equ 39
         = 0000000000000028  SYS_BOOT_HOSTFS   equ 40
         = 0000000000000029  SYS_BOOT_ELF_EXEC equ 41
         = 000000000000002A  SYS_QUOTA_SET_LIMIT equ 42
         = 000000000000002B  SYS_CLOSE_LIBRARY equ 43
         = 000000000000002C  SYS_ADD_LIBRARY   equ 44
         = 000000000000002D  SYS_OPEN_LIBRARY_EX equ 45
         = 000000000000002E  SYS_M16_COPY_MODULE_NAME equ 46
         = 000000000000002F  SYS_M16_LIBRARY_LOAD_RESULT equ 47
         = 0000000000000030  SYS_SET_RESIDENT equ 48
         = 0000000000000031  SYS_M16_EXPUNGE_RESULT equ 49
         = 0000000000000032  SYS_ADD_HANDLER  equ 50
         = 0000000000000033  SYS_ADD_DEVICE   equ 51
         = 0000000000000034  SYS_ADD_RESOURCE equ 52
         = 0000000000000000  ERR_OK            equ 0
         = 0000000000000001  ERR_NOMEM         equ 1
         = 0000000000000002  ERR_BADHANDLE     equ 2
         = 0000000000000003  ERR_BADARG        equ 3
         = 0000000000000004  ERR_NOTFOUND      equ 4
         = 0000000000000005  ERR_PERM          equ 5
         = 0000000000000006  ERR_AGAIN         equ 6
         = 0000000000000007  ERR_TOOLARGE      equ 7
         = 0000000000000008  ERR_EXISTS        equ 8
         = 0000000000000009  ERR_FULL          equ 9
         = 000000000000000A  ERR_QUOTA         equ 10
         = 000000000000000B  ERR_LIB_VERSION   equ 11
         = 000000000000000C  ERR_UNSUPPORTED   equ 12
         = 0000000000000001  BOOT_ELF_EXEC_FLAG_TRUSTED_INTERNAL equ 0x1
         = 0000000000000001  MODCLASS_LIBRARY  equ 1
         = 0000000000000002  MODCLASS_DEVICE   equ 2
         = 0000000000000003  MODCLASS_HANDLER  equ 3
         = 0000000000000004  MODCLASS_RESOURCE equ 4
         = 0000000000000001  MAPF_READ         equ 0x01
         = 0000000000000002  MAPF_WRITE        equ 0x02
         = 0000000000000001  MMU_CTRL_ENABLE   equ 0x01
         = 0000000000000002  MMU_CTRL_SUPER    equ 0x02
         = 0000000000000004  MMU_CTRL_SKEF     equ 0x04
         = 0000000000000008  MMU_CTRL_SKAC     equ 0x08
         = 0000000000000010  MMU_CTRL_SUA      equ 0x10
         = 0000000000000009  FAULT_SKEF        equ 9
         = 000000000000000A  FAULT_SKAC        equ 10
         = 0000000000000000  FAULT_NOT_PRESENT equ 0
         = 0000000000000001  FAULT_READ_DENIED equ 1
         = 0000000000000002  FAULT_WRITE_DENIED equ 2
         = 0000000000000003  FAULT_EXEC_DENIED equ 3
         = 0000000000000004  FAULT_USER_SUPER  equ 4
         = 0000000000000005  FAULT_PRIV        equ 5
         = 0000000000000006  FAULT_SYSCALL     equ 6
         = 0000000000000007  FAULT_MISALIGNED  equ 7
         = 0000000000000008  FAULT_TIMER       equ 8
         = 0000000000000000  SYSINFO_TOTAL_PAGES equ 0
         = 0000000000000001  SYSINFO_FREE_PAGES  equ 1
         = 0000000000000002  SYSINFO_TICK_COUNT  equ 2
         = 0000000000000003  SYSINFO_CURRENT_TASK equ 3
         = 0000000000000004  SYSINFO_QUOTA_CURRENT equ 4
         = 0000000000000005  SYSINFO_QUOTA_LIMIT   equ 5
         = 0000000000000006  SYSINFO_PORT_NAME_BY_INDEX equ 6
         = 000000000007D000  KERN_PAGE_TABLE   equ 0x07D000
         = 000000000008D000  KERN_DATA_BASE    equ 0x08D000
         = 00000000000A0000  KERN_STACK_TOP    equ 0x0A0000
         = 0000000000000000  KD_CURRENT_TASK   equ 0
         = 0000000000000008  KD_TICK_COUNT     equ 8
         = 0000000000000010  KD_NUM_TASKS      equ 16
         = 0000000000000018  KD_NONCE_COUNTER  equ 24
         = 0000000000000020  KD_NAME_SCRATCH   equ 32
         = 00000000000000FF  MAX_TASKS         equ 255
         = 0000000000000040  KD_TASK_BASE      equ 64
         = 0000000000000020  KD_TASK_STRIDE    equ 32
         = 0000000000000000  KD_TASK_PC        equ 0
         = 0000000000000008  KD_TASK_USP       equ 8
         = 0000000000000010  KD_TASK_SIG_ALLOC equ 16
         = 0000000000000014  KD_TASK_SIG_WAIT  equ 20
         = 0000000000000018  KD_TASK_SIG_RECV  equ 24
         = 000000000000001C  KD_TASK_STATE     equ 28
         = 000000000000001D  KD_TASK_WAITPORT  equ 29
         = 000000000000001E  KD_TASK_GPR_SAVED equ 30
         = 000000000000001F  KD_TASK_TEARFLAGS equ 31
         = 0000000000000000  TASK_READY        equ 0
         = 0000000000000001  TASK_RUNNING      equ 1
         = 0000000000000002  TASK_WAITING      equ 2
         = 0000000000000003  TASK_FREE         equ 3
         = 0000000000000001  SIGF_PORT         equ 1
         = 0000000000000002  SIGF_MODDEAD      equ 2
         = 00000000000000FF  WAITPORT_NONE     equ 0xFF
         = 000000000000FFFF  SIG_SYSTEM_MASK   equ 0xFFFF
         = 0000000000002020  KD_PTBR_BASE      equ 8224
         = 0000000000002818  KD_PORT_BASE          equ 10264
         = 00000000000000A8  KD_PORT_STRIDE        equ 168
         = 0000000000000020  KD_PORT_INLINE_MAX    equ 32
         = 0000000000000020  KD_PORT_MAX           equ 32
         = 0000000000000004  KD_PORT_FIFO_SIZE     equ 4
         = 000000000000C8C8  KD_PORT_OFLOW_HDR        equ 51400
         = 0000000000000000  KD_PORT_OFLOW_FIRST_PPN  equ 0
         = 0000000000000002  KD_PORT_OFLOW_TOTAL      equ 2
         = 0000000000000004  KD_PORT_OFLOW_PAGES      equ 4
         = 0000000000000006  KD_PORT_OFLOW_RESV       equ 6
         = 000000000000C8D0  KD_TASK_LAYOUT_BASE      equ 51408
         = 0000000000000038  KD_TASK_LAYOUT_STRIDE    equ 56
         = 0000000000000000  KD_TASK_CODE_BASE        equ 0
         = 0000000000000008  KD_TASK_STACK_BASE       equ 8
         = 0000000000000010  KD_TASK_DATA_BASE        equ 16
         = 0000000000000018  KD_TASK_CODE_PAGES       equ 24
         = 000000000000001C  KD_TASK_STACK_PAGES      equ 28
         = 0000000000000020  KD_TASK_DATA_PAGES       equ 32
         = 0000000000000024  KD_TASK_LAYOUT_FLAGS     equ 36
         = 0000000000000028  KD_TASK_LAYOUT_STARTUP   equ 40
         = 0000000000000030  KD_TASK_LAYOUT_PT_BASE   equ 48
         = 0000000000000001  TASK_LAYOUT_FLAG_STACK_GUARD equ 0x00000001
         = 0000000000000002  TASK_LAYOUT_FLAG_TRUSTED_INTERNAL equ 0x00000002
         = 0000000000010098  KD_TASK_IMG_BITMAP       equ 65688
         = 0000000000000040  KD_TASK_IMG_BITMAP_SZ    equ 64
         = 00000000000100D8  KD_TASK_PT_BITMAP        equ 65752
         = 0000000000000040  KD_TASK_PT_BITMAP_SZ     equ 64
         = 0000000000010118  KD_TASK_PUBID_BASE       equ 65816
         = 0000000000000004  KD_TASK_PUBID_STRIDE     equ 4
         = 0000000000010518  KD_TASKID_NEXT           equ 66840
         = 0000000000010520  KD_ASLR_STATE            equ 66848
         = 00000000FFFFFFFF  TASK_PUBID_FREE          equ 0xFFFFFFFF
         = 0000000000010650  KD_MODULE_TABLE          equ 67152
         = 0000000000000050  KD_MODULE_ROW_STRIDE     equ 80
         = 0000000000000010  KD_MODULE_MAX            equ 16
         = 0000000000000000  KD_MODULE_NAME           equ 0
         = 0000000000000020  KD_MODULE_STATE          equ 32
         = 0000000000000024  KD_MODULE_GENERATION     equ 36
         = 0000000000000028  KD_MODULE_VERSION        equ 40
         = 000000000000002A  KD_MODULE_REVISION       equ 42
         = 000000000000002C  KD_MODULE_CLASS          equ 44
         = 0000000000000030  KD_MODULE_OWNING_TASK    equ 48
         = 0000000000000034  KD_MODULE_PUBLIC_PORT    equ 52
         = 0000000000000038  KD_MODULE_OPEN_COUNT     equ 56
         = 000000000000003C  KD_MODULE_FLAGS          equ 60
         = 0000000000000040  KD_MODULE_WAITERS_HEAD   equ 64
         = 0000000000000048  KD_MODULE_DEADLINE_TICK  equ 72
         = 0000000000000000  M16_MODSTATE_UNLOADED    equ 0
         = 0000000000000001  M16_MODSTATE_LOADING     equ 1
         = 0000000000000002  M16_MODSTATE_ONLINE      equ 2
         = 0000000000000003  M16_MODSTATE_FAILED      equ 3
         = 0000000000000004  M16_MODSTATE_EXPUNGING   equ 4
         = 0000000000000020  M16_EXPUNGE_GRACE_TICKS  equ 32
         = 0000000000000001  MODF_RESIDENT           equ 0x00000001
         = 0000000000000002  MODF_COMPAT_PORT        equ 0x00000002
         = 0000000000000004  MODF_ASLR_CAPABLE       equ 0x00000004
         = 000000004D313645  LIB_OP_EXPUNGE          equ 0x4D313645
         = 0000000000010C68  KD_MODULE_WAITER_ROWS    equ 68712
         = 0000000000000018  KD_MODULE_WAITER_STRIDE  equ 24
         = 0000000000000010  KD_MODULE_WAITER_MAX     equ 16
         = 0000000000000000  KD_MODULE_WAITER_TASK    equ 0
         = 0000000000000004  KD_MODULE_WAITER_MINVER  equ 4
         = 0000000000000006  KD_MODULE_WAITER_SIGBIT  equ 6
         = 0000000000000008  KD_MODULE_WAITER_OUTCOME equ 8
         = 000000000000000C  KD_MODULE_WAITER_AUX     equ 12
         = 0000000000000010  KD_MODULE_WAITER_NEXT    equ 16
         = 0000000000010DE8  KD_MODULE_OPEN_ROWS      equ 69096
         = 0000000000000010  KD_MODULE_OPEN_ROW_STRIDE equ 16
         = 0000000000000020  KD_MODULE_OPEN_ROW_MAX   equ 32
         = 0000000000000000  KD_MODULE_OPEN_ROW_TASK  equ 0
         = 0000000000000004  KD_MODULE_OPEN_ROW_INDEX equ 4
         = 0000000000000008  KD_MODULE_OPEN_ROW_GEN   equ 8
         = 000000000000000C  KD_MODULE_OPEN_ROW_COUNT equ 12
         = 0000000000010FE8  KD_MODULE_PATH_SCRATCH   equ 69608
         = 000000000000C0BC  KD_DOSLIB_PUBID          equ 49340
         = 0000000000010B50  KD_BOOT_MANIFEST_BASE       equ 68432
         = 0000000000000028  KD_BOOT_MANIFEST_STRIDE     equ 40
         = 0000000000000007  KD_BOOT_MANIFEST_COUNT      equ 7
         = 0000000000000002  KD_BOOT_MANIFEST_BOOT_COUNT equ 2
         = 0000000000000000  KD_BOOT_MANIFEST_ID         equ 0
         = 0000000000000004  KD_BOOT_MANIFEST_FLAGS      equ 4
         = 0000000000000008  KD_BOOT_MANIFEST_PTR        equ 8
         = 0000000000000010  KD_BOOT_MANIFEST_SIZE       equ 16
         = 0000000000000018  KD_BOOT_MANIFEST_NAME       equ 24
         = 0000000000000020  KD_BOOT_MANIFEST_GTAG       equ 32
         = 0000000000000024  KD_BOOT_MANIFEST_PPN_LO     equ 36
         = 0000000000000026  KD_BOOT_MANIFEST_PPN_HI     equ 38
         = 000000000000000A  BOOT_MANIFEST_ID_CONSOLE    equ 10
         = 000000000000000B  BOOT_MANIFEST_ID_DOSLIB     equ 11
         = 000000000000000C  BOOT_MANIFEST_ID_SHELL      equ 12
         = 000000000000000D  BOOT_MANIFEST_ID_HWRES      equ 13
         = 000000000000000E  BOOT_MANIFEST_ID_INPUT      equ 14
         = 000000000000000F  BOOT_MANIFEST_ID_GRAPHICS   equ 15
         = 0000000000000010  BOOT_MANIFEST_ID_INTUITION  equ 16
         = 0000000000000001  BOOT_MANIFEST_FLAG_TRUSTED_INTERNAL equ 0x1
         = 0000000000000000  QUOTA_KIND_PAGES     equ 0
         = 0000000000000001  QUOTA_KIND_PORTS     equ 1
         = 0000000000000002  QUOTA_KIND_WAITERS   equ 2
         = 0000000000000003  QUOTA_KIND_SHMEM     equ 3
         = 0000000000000004  QUOTA_KIND_GRANTS    equ 4
         = 0000000000000005  QUOTA_KIND_COUNT     equ 5
         = 0000000000000010  KD_QUOTA_ROW_STRIDE    equ 16
         = 0000000000000004  KD_QUOTA_ROW_SHIFT     equ 4
         = 0000000000000000  KD_QUOTA_CUR_PAGES     equ 0
         = 0000000000000002  KD_QUOTA_CUR_PORTS     equ 2
         = 0000000000000004  KD_QUOTA_CUR_WAITERS   equ 4
         = 0000000000000006  KD_QUOTA_CUR_SHMEM     equ 6
         = 0000000000000008  KD_QUOTA_CUR_GRANTS    equ 8
         = 0000000000010638  KD_QUOTA_PAGE_PPN      equ 67128
         = 000000000001063C  KD_QUOTA_LIMITS_BASE   equ 67132
         = 0000000000000400  QUOTA_DEFAULT_PAGES    equ 1024
         = 0000000000000020  QUOTA_DEFAULT_PORTS    equ 32
         = 0000000000000010  QUOTA_DEFAULT_WAITERS  equ 16
         = 0000000000000800  QUOTA_DEFAULT_SHMEM    equ 2048
         = 0000000000000200  QUOTA_DEFAULT_GRANTS   equ 512
         = 000000000000C8CE  KD_TASK_EXIT_HOOK_PPN       equ (KD_PORT_OFLOW_HDR + KD_PORT_OFLOW_RESV)
         = 0000000000000018  KD_TASK_EXIT_HOOK_STRIDE    equ 24
         = 0000000000000004  KD_TASK_EXIT_HOOK_MAX       equ 4
         = 0000000000000000  KD_TASK_EXIT_HOOK_BASE      equ 0
         = 0000000000000000  KD_TASK_EXIT_HOOK_KIND      equ 0
         = 0000000000000004  KD_TASK_EXIT_HOOK_TARGET    equ 4
         = 0000000000000008  KD_TASK_EXIT_HOOK_RECORD    equ 8
         = 0000000000000010  KD_TASK_EXIT_HOOK_STATUS    equ 16
         = 0000000000000014  KD_TASK_EXIT_HOOK_LASTSEQ   equ 20
         = 0000000000000000  TASK_EXIT_HOOK_NONE         equ 0
         = 0000000000000001  TASK_EXIT_HOOK_RECORDER     equ 1
         = 00000000FFFFFFFF  TASK_EXIT_HOOK_TARGET_ANY   equ 0xFFFFFFFF
         = 0000000000000060  KD_TASK_EXIT_SEQ            equ 96
         = 0000000000000000  TASK_EXIT_REC_COUNT         equ 0
         = 0000000000000008  TASK_EXIT_REC_SEQ           equ 8
         = 0000000000000010  TASK_EXIT_REC_SLOT          equ 16
         = 0000000000000018  TASK_EXIT_REC_PUBID         equ 24
         = 0000000000000020  TASK_EXIT_REC_REASON        equ 32
         = 0000000000000028  TASK_EXIT_REC_STATE         equ 40
         = 0000000000000001  TASK_EXIT_REASON_NORMAL     equ 1
         = 0000000000000002  TASK_EXIT_REASON_FAULT      equ 2
         = 0000000000000003  TASK_EXIT_REASON_INTERNAL   equ 3
         = 0000000000000001  TASK_TEARFLAG_HOOKS_RAN     equ 0x01
         = 0000000000000010  KD_PORT_PAGE_HDR_SZ   equ 16
         = 0000000000000000  KD_PORT_PAGE_NEXT     equ 0
         = 0000000000000018  KD_PORT_ROWS_PER_PG   equ 24
         = 0000000000000000  KD_PORT_VALID     equ 0
         = 0000000000000001  KD_PORT_OWNER     equ 1
         = 0000000000000002  KD_PORT_COUNT     equ 2
         = 0000000000000003  KD_PORT_HEAD      equ 3
         = 0000000000000004  KD_PORT_TAIL      equ 4
         = 0000000000000005  KD_PORT_FLAGS     equ 5
         = 0000000000000008  KD_PORT_NAME      equ 8
         = 0000000000000028  KD_PORT_MSGS      equ 40
         = 0000000000000001  PF_PUBLIC         equ 1
         = 0000000000000020  PORT_NAME_LEN     equ 32
         = 0000000000000000  KD_MSG_TYPE       equ 0
         = 0000000000000004  KD_MSG_SRC        equ 4
         = 0000000000000008  KD_MSG_DATA0      equ 8
         = 0000000000000010  KD_MSG_DATA1      equ 16
         = 0000000000000018  KD_MSG_REPLY_PORT equ 24
         = 000000000000001A  KD_MSG_SHARE_HDL  equ 26
         = 0000000000000020  KD_MSG_SIZE       equ 32
         = 000000000000FFFF  REPLY_PORT_NONE   equ 0xFFFF
         = 0000000000800000  USER_PT_BASE      equ 0x800000
         = 0000000000600000  USER_CODE_BASE    equ 0x600000
         = 0000000000601000  USER_STACK_BASE   equ 0x601000
         = 0000000000602000  USER_DATA_BASE    equ 0x602000
         = 0000000000010000  USER_SLOT_STRIDE  equ 0x10000
         = 00000000000000C0  USER_CODE_SIZE    equ 192
         = 0000000000000600  USER_CODE_VPN_BASE  equ 0x600
         = 0000000000000010  USER_VPN_STRIDE     equ 0x10
         = 0000000000000800  USER_PT_PAGE_BASE   equ 0x800
         = 0000000000000A00  USER_PT_PAGE_END    equ 0xA00
         = 0000000000000010  USER_PT_SLOT_PAGES  equ 16
         = 0000000000600000  USER_IMAGE_BASE      equ USER_CODE_BASE
         = 0000000000800000  USER_IMAGE_END       equ USER_PT_BASE
         = 0000000000000200  USER_IMAGE_PAGES     equ 512
         = 0000000000000200  USER_PT_REGION_PAGES equ 512
         = 0000000000000001  PTE_P             equ 0x01
         = 0000000000000002  PTE_R             equ 0x02
         = 0000000000000004  PTE_W             equ 0x04
         = 0000000000000008  PTE_X             equ 0x08
         = 0000000000000010  PTE_U             equ 0x10
         = 0000000000000020  PTE_A             equ 0x20
         = 0000000000000040  PTE_D             equ 0x40
         = 0000000000001000  MMU_PAGE_SIZE     equ 0x1000
         = 000000000000000C  MMU_PAGE_SHIFT    equ 12
         = 0000000000002000  MMU_NUM_PAGES     equ 8192
         = 0000000000000180  KERN_PAGES        equ 384
         = 000000000000007D  KERN_IMAGE_PAGE_END equ (KERN_PAGE_TABLE >> MMU_PAGE_SHIFT)
         = 000000000000007D  KERN_PT_PAGE_BASE equ (KERN_PAGE_TABLE >> MMU_PAGE_SHIFT)
         = 000000000000008D  KERN_PT_PAGE_END  equ (KERN_DATA_BASE >> MMU_PAGE_SHIFT)
         = 000000000000008D  KERN_DATA_PAGE_BASE equ (KERN_DATA_BASE >> MMU_PAGE_SHIFT)
         = 000000000000009E  KERN_STACK_GUARD_PAGE equ ((KERN_STACK_TOP >> MMU_PAGE_SHIFT) - 2)
         = 000000000000009F  KERN_STACK_PAGE_BASE  equ ((KERN_STACK_TOP >> MMU_PAGE_SHIFT) - 1)
         = 00000000000000A0  KERN_STACK_PAGE_END equ (KERN_STACK_TOP >> MMU_PAGE_SHIFT)
         = 000000000009F000  KERN_STACK_CANARY_ADDR equ (KERN_STACK_PAGE_BASE << MMU_PAGE_SHIFT)
         = 000000004B535443  KERN_STACK_CANARY_VALUE equ 0x4B535443
         = 0000000000000000  KERNEL_STACK_CANARY_ENABLED set 0
         = 0000000000000001  STACK_GUARD_PAGES  equ 1
         = 0000000000000000  MEMF_ANY          equ 0x00000
         = 0000000000000001  MEMF_PUBLIC       equ 0x00001
         = 0000000000000002  MEMF_GUARD        equ 0x00002
         = 0000000000010000  MEMF_CLEAR        equ 0x10000
         = 0000000000001200  ALLOC_POOL_BASE   equ 0x1200
         = 0000000000000E00  ALLOC_POOL_PAGES  equ 3584
         = 0000000000A00000  USER_DYN_BASE     equ 0xA00000
         = 0000000001200000  USER_DYN_END      equ 0x1200000
         = 0000000000000300  USER_DYN_PAGES    equ 768
         = 0000000000000060  TASK_STARTUP_SIZE        equ 96
         = 0000000000000001  TASK_STARTUP_VERSION     equ 1
         = 0000000000000001  TASK_STARTUP_FLAG_CREATE equ 0x1
         = 0000000000000002  TASK_STARTUP_FLAG_EXEC   equ 0x2
         = 0000000000000004  TASK_STARTUP_FLAG_BOOT   equ 0x4
         = 0000000000000008  TASK_STARTUP_FLAG_TRUSTED_INTERNAL equ 0x8
         = 0000000000000000  TASKSB_VERSION      equ 0x00
         = 0000000000000004  TASKSB_SIZE         equ 0x04
         = 0000000000000008  TASKSB_TASK_ID      equ 0x08
         = 000000000000000C  TASKSB_FLAGS        equ 0x0C
         = 0000000000000010  TASKSB_CODE_BASE    equ 0x10
         = 0000000000000018  TASKSB_CODE_PAGES   equ 0x18
         = 0000000000000020  TASKSB_DATA_BASE    equ 0x20
         = 0000000000000028  TASKSB_DATA_PAGES   equ 0x28
         = 0000000000000030  TASKSB_STACK_BASE   equ 0x30
         = 0000000000000038  TASKSB_STACK_PAGES  equ 0x38
         = 0000000000000040  TASKSB_BOOT_DOS_SHELL_RELPATH equ 0x40
         = 0000000000000020  TASKSB_BOOT_DOS_SHELL_RELPATH_MAX equ 32
         = 0000000000003D18  KD_PAGE_BITMAP    equ 15640
         = 0000000000000320  KD_PAGE_BITMAP_SZ equ 800
         = 0000000000004038  KD_REGION_TABLE       equ 16440
         = 0000000000000010  KD_REGION_STRIDE      equ 16
         = 0000000000000008  KD_REGION_INLINE_MAX  equ 8
         = 0000000000000080  KD_REGION_TASK_SZ     equ 128
         = 0000000000000008  KD_REGION_MAX         equ 8
         = 000000000000C0C8  KD_REGION_OVERFLOW_HEAD equ 49352
         = 0000000000000008  KD_REGION_OFLOW_STRIDE  equ 8
         = 0000000000000000  KD_REGION_OFLOW_FIRST_PPN equ 0
         = 0000000000000002  KD_REGION_OFLOW_TOTAL   equ 2
         = 0000000000000004  KD_REGION_OFLOW_PAGES   equ 4
         = 0000000000000006  KD_REGION_OFLOW_RESV    equ 6
         = 0000000000000010  KD_REGION_PAGE_HDR_SZ equ 16
         = 0000000000000000  KD_REGION_PAGE_NEXT   equ 0
         = 00000000000000FF  KD_REGION_ROWS_PER_PG equ 255
         = 0000000000000000  KD_REG_VA         equ 0
         = 0000000000000004  KD_REG_PPN        equ 4
         = 0000000000000006  KD_REG_PAGES      equ 6
         = 0000000000000008  KD_REG_TYPE       equ 8
         = 0000000000000009  KD_REG_SHMID      equ 9
         = 000000000000000A  KD_REG_FLAGS      equ 10
         = 0000000000000000  REGION_FREE       equ 0
         = 0000000000000001  REGION_PRIVATE    equ 1
         = 0000000000000002  REGION_SHARED     equ 2
         = 0000000000000003  REGION_IO         equ 3
         = 000000000000BFB8  KD_SHMEM_TABLE        equ 49080
         = 0000000000000010  KD_SHMEM_STRIDE       equ 16
         = 0000000000000010  KD_SHMEM_INLINE_MAX   equ 16
         = 0000000000000010  KD_SHMEM_MAX          equ 16
         = 000000000000C8C0  KD_SHMEM_OFLOW_HDR        equ 51392
         = 0000000000000000  KD_SHMEM_OFLOW_FIRST_PPN  equ 0
         = 0000000000000002  KD_SHMEM_OFLOW_TOTAL      equ 2
         = 0000000000000004  KD_SHMEM_OFLOW_PAGES      equ 4
         = 0000000000000006  KD_SHMEM_OFLOW_RESV       equ 6
         = 0000000000000010  KD_SHMEM_PAGE_HDR_SZ  equ 16
         = 0000000000000000  KD_SHMEM_PAGE_NEXT    equ 0
         = 00000000000000FF  KD_SHMEM_ROWS_PER_PG  equ 255
         = 0000000000000000  KD_SHM_VALID      equ 0
         = 0000000000000001  KD_SHM_REFCOUNT   equ 1
         = 0000000000000002  KD_SHM_CREATOR    equ 2
         = 0000000000000003  KD_SHM_FLAGS      equ 3
         = 0000000000000004  KD_SHM_PPN        equ 4
         = 0000000000000006  KD_SHM_PAGES      equ 6
         = 0000000000000008  KD_SHM_NONCE      equ 8
         = 0000000000000040  IEXEC_HEARTBEAT_INTERVAL equ 64
         = 0000000034364549  IMG_MAGIC_LO      equ 0x34364549
         = 00000000474F5250  IMG_MAGIC_HI      equ 0x474F5250
         = 0000000000000020  IMG_HEADER_SIZE   equ 32
         = 0000000000000000  IMG_OFF_MAGIC     equ 0
         = 0000000000000008  IMG_OFF_CODE_SIZE equ 8
         = 000000000000000C  IMG_OFF_DATA_SIZE equ 12
         = 0000000000000010  IMG_OFF_FLAGS     equ 16
         = 0000000000000018  PROGTAB_ENTRY_SIZE equ 24
         = 0000000000000000  PROGTAB_OFF_PTR    equ 0
         = 0000000000000008  PROGTAB_OFF_SIZE   equ 8
         = 0000000000000020  CLOCK_INTERVAL    equ 32
         = 0000000000000003  PROGTAB_BOOT_COUNT equ 3
         = 00000000000000F0  TERM_IO_PAGE      equ 0xF0
         = 0000000000000C00  DATA_ARGS_OFFSET  equ 3072
         = 0000000000000100  DATA_ARGS_MAX     equ 256
         = 0000000000000000  CON_MSG_CHAR      equ 0
         = 0000000000000002  CON_MSG_READLINE  equ 2
         = 0000000000000120  MSG_GET_IOSM      equ 0x120
         = 0000000000000121  MSG_LIST_RESIDENTS equ 0x121
         = 0000000000000122  EXEC_MSG_ATTACH_HANDLER equ 0x122
         = 0000000000000123  EXEC_MSG_DETACH_HANDLER equ 0x123
         = 0000000000000124  EXEC_MSG_OPEN_DEVICE    equ 0x124
         = 0000000000000125  EXEC_MSG_CLOSE_DEVICE   equ 0x125
         = 0000000000000126  EXEC_MSG_OPEN_RESOURCE  equ 0x126
         = 0000000000000127  EXEC_MSG_CLOSE_RESOURCE equ 0x127
         = 0000000000000128  EXEC_MSG_LIST_RESIDENT_INVENTORY equ 0x128
         = 0000000080000000  EXEC_REPLY_FLAG         equ 0x80000000
         = 0000000056495352  RSIV_MAGIC              equ 0x56495352
         = 0000000000000001  RSIV_VERSION            equ 1
         = 0000000000000020  RSIV_HEADER_SIZE        equ 32
         = 0000000000000040  RSIV_RECORD_SIZE        equ 64
         = 0000000000000001  RSIV_FLAG_TRUNCATED     equ 0x00000001
         = 0000000000000001  DOS_OPEN          equ 1
         = 0000000000000002  DOS_READ          equ 2
         = 0000000000000003  DOS_WRITE         equ 3
         = 0000000000000004  DOS_CLOSE         equ 4
         = 0000000000000005  DOS_DIR           equ 5
         = 0000000000000006  DOS_RUN           equ 6
         = 0000000000000007  DOS_LOADSEG       equ 7
         = 0000000000000008  DOS_UNLOADSEG     equ 8
         = 0000000000000009  DOS_RUNSEG        equ 9
         = 000000000000000A  DOS_ASSIGN        equ 10
         = 000000000000000B  DOS_LOADLIB       equ 11
         = 0000000000000320  DOS_OP_PARSE_MANIFEST equ 0x320
         = 0000000000000000  DOS_PMP_PATH_OFF      equ 0
         = 0000000000000104  DOS_PMP_PATH_MAX      equ 260
         = 0000000000000110  DOS_PMP_IOSM_OFF      equ 272
         = 0000000000000190  DOS_PMP_RC_OFF        equ 400
         = 0000000000000000  DOS_ASSIGN_LIST          equ 0
         = 0000000000000001  DOS_ASSIGN_QUERY         equ 1
         = 0000000000000002  DOS_ASSIGN_SET           equ 2
         = 0000000000000003  DOS_ASSIGN_LAYERED_QUERY equ 3
         = 0000000000000004  DOS_ASSIGN_ADD           equ 4
         = 0000000000000005  DOS_ASSIGN_REMOVE        equ 5
         = 0000000000000020  DOS_ASSIGN_LAYERED_TGT_SZ equ 32
         = 0000000000000004  DOS_ASSIGN_OVERLAY_MAX    equ 4
         = 0000000000000000  DOS_MODE_READ     equ 0
         = 0000000000000001  DOS_MODE_WRITE    equ 1
         = 0000000000000000  DOS_OK            equ 0
         = 0000000000000001  DOS_ERR_NOTFOUND  equ 1
         = 0000000000000002  DOS_ERR_BADARG    equ 2
         = 0000000000000003  DOS_ERR_FULL      equ 3
         = 0000000000000004  DOS_ERR_BADHANDLE equ 4
         = 0000000000000006  DOS_ERR_NOMEM     equ 6
         = 000000004C474553  DOS_SEGLIST_MAGIC      equ 0x4C474553
         = 0000000000000000  DOS_SEGLIST_NEXT       equ 0
         = 0000000000000008  DOS_SEGLIST_OFF_MAGIC  equ 8
         = 000000000000000C  DOS_SEGLIST_OFF_COUNT  equ 12
         = 0000000000000010  DOS_SEGLIST_OFF_ENTRY  equ 16
         = 0000000000000018  DOS_SEGLIST_HDR_SZ     equ 24
         = 0000000000000028  DOS_SEG_ENTRY_SZ     equ 40
         = 0000000000000065  DOS_SEGLIST_MAX_ENTRIES equ 101
         = 0000000000000000  DOS_SEG_OFF_MEMVA    equ 0
         = 0000000000000008  DOS_SEG_OFF_TARGET   equ 8
         = 0000000000000010  DOS_SEG_OFF_FILESZ   equ 16
         = 0000000000000018  DOS_SEG_OFF_MEMSZ    equ 24
         = 0000000000000020  DOS_SEG_OFF_PAGES    equ 32
         = 0000000000000024  DOS_SEG_OFF_FLAGS    equ 36
         = 000000005345444C  M14_LDESC_MAGIC       equ 0x5345444C
         = 0000000000000001  M14_LDESC_VERSION     equ 1
         = 0000000000000030  M14_LDESC_SIZE        equ 48
         = 0000000000000020  M14_LDESC_SEG_SIZE    equ 32
         = 0000000000000000  M14_LDESC_OFF_MAGIC   equ 0
         = 0000000000000004  M14_LDESC_OFF_VERSION equ 4
         = 0000000000000008  M14_LDESC_OFF_SIZE    equ 8
         = 000000000000000C  M14_LDESC_OFF_SEGCNT  equ 12
         = 0000000000000010  M14_LDESC_OFF_ENTRY   equ 16
         = 0000000000000018  M14_LDESC_OFF_STACKPG equ 24
         = 0000000000000020  M14_LDESC_OFF_SEGTBL  equ 32
         = 0000000000000000  M14_LDSEG_OFF_SRCPTR  equ 0
         = 0000000000000008  M14_LDSEG_OFF_SRCSZ   equ 8
         = 0000000000000010  M14_LDSEG_OFF_TARGET  equ 16
         = 0000000000000018  M14_LDSEG_OFF_PAGES   equ 24
         = 000000000000001C  M14_LDSEG_OFF_FLAGS   equ 28
         = 0000000000000020  DOS_NAME_LEN      equ 32
         = 0000000000000010  DOS_META_HDR_SZ   equ 16
         = 0000000000000030  DOS_META_ENTRY_SZ equ 48
         = 0000000000000055  DOS_META_PER_PAGE equ 85
         = 0000000000000000  DOS_META_OFF_NAME equ 0
         = 0000000000000020  DOS_META_OFF_VA   equ 32
         = 0000000000000028  DOS_META_OFF_SIZE equ 40
         = 000000000000002C  DOS_META_OFF_RESV equ 44
         = 0000000000000010  DOS_HND_HDR_SZ    equ 16
         = 0000000000000008  DOS_HND_ENTRY_SZ  equ 8
         = 00000000000001FE  DOS_HND_PER_PAGE  equ 510
         = 0000000000000010  DOS_EXT_HDR_SZ    equ 16
         = 0000000000000FF0  DOS_EXT_PAYLOAD   equ 4080
         = 0000000000000000  DOS_EXT_OFF_NEXT  equ 0
         = 0000000000000100  INPUT_OPEN        equ 0x100
         = 0000000000000101  INPUT_CLOSE       equ 0x101
         = 0000000000000102  INPUT_EVENT       equ 0x102
         = 0000000000000001  IE_KEY_DOWN       equ 1
         = 0000000000000002  IE_KEY_UP         equ 2
         = 0000000000000003  IE_MOUSE_MOVE     equ 3
         = 0000000000000004  IE_MOUSE_BTN      equ 4
         = 0000000000000000  INPUT_ERR_OK      equ 0
         = 0000000000000001  INPUT_ERR_BUSY    equ 1
         = 0000000000000002  INPUT_ERR_BADARG  equ 2
         = 0000000000000200  GFX_ENUMERATE_ADAPTERS equ 0x200
         = 0000000000000201  GFX_GET_ADAPTER_INFO   equ 0x201
         = 0000000000000202  GFX_ENUMERATE_MODES    equ 0x202
         = 0000000000000203  GFX_GET_MODE_INFO      equ 0x203
         = 0000000000000204  GFX_OPEN_DISPLAY       equ 0x204
         = 0000000000000205  GFX_CLOSE_DISPLAY      equ 0x205
         = 0000000000000206  GFX_REGISTER_SURFACE   equ 0x206
         = 0000000000000207  GFX_UNREGISTER_SURFACE equ 0x207
         = 0000000000000208  GFX_PRESENT            equ 0x208
         = 0000000000000001  GFX_FMT_RGBA32    equ 1
         = 0000000000000001  GFX_CAP_RGBA32    equ 0x0001
         = 0000000000000000  GFX_ERR_OK        equ 0
         = 0000000000000001  GFX_ERR_BUSY      equ 1
         = 0000000000000002  GFX_ERR_BAD_MODE  equ 2
         = 0000000000000003  GFX_ERR_BAD_HANDLE equ 3
         = 0000000000000004  GFX_ERR_BAD_FORMAT equ 4
         = 0000000000000300  INTUITION_OPEN_WINDOW   equ 0x300
         = 0000000000000301  INTUITION_CLOSE_WINDOW  equ 0x301
         = 0000000000000302  INTUITION_DAMAGE        equ 0x302
         = 0000000000000310  IDCMP_MOUSEMOVE       equ 0x310
         = 0000000000000311  IDCMP_MOUSEBUTTONS    equ 0x311
         = 0000000000000312  IDCMP_RAWKEY          equ 0x312
         = 0000000000000313  IDCMP_CLOSEWINDOW     equ 0x313
         = 0000000000000314  IDCMP_ACTIVEWINDOW    equ 0x314
         = 0000000000000315  IDCMP_INACTIVEWINDOW  equ 0x315
         = 0000000000000000  INTUI_ERR_OK          equ 0
         = 0000000000000001  INTUI_ERR_BUSY        equ 1
         = 0000000000000002  INTUI_ERR_BADARG      equ 2
         = 0000000000000003  INTUI_ERR_BADHANDLE   equ 3
         = 0000000000000004  INTUI_ERR_NOMEM       equ 4
         = 0000000000000010  INTUI_WIN_TITLE_H     equ 16
         = 0000000000000002  INTUI_WIN_BORDER      equ 2
         = 0000000000000010  INTUI_CLOSE_GADGET_W  equ 16
         = 000000000000C0B8  KD_HWRES_TASK         equ 49336
         = 000000000000C0C0  KD_GRANT_TABLE_HDR    equ 49344
         = 0000000000000000  KD_GRANT_HDR_FIRST_PPN equ 0
         = 0000000000000002  KD_GRANT_HDR_TOTAL    equ 2
         = 0000000000000004  KD_GRANT_HDR_PAGES    equ 4
         = 0000000000000006  KD_GRANT_HDR_RESV     equ 6
         = 0000000000000008  KD_GRANT_HDR_SIZE     equ 8
         = 0000000000000000  KD_GRANT_PAGE_NEXT    equ 0
         = 0000000000000010  KD_GRANT_PAGE_HDR_SZ  equ 16
         = 0000000000000010  KD_GRANT_ROW_SIZE     equ 16
         = 00000000000000FF  KD_GRANT_ROWS_PER_PG  equ 255
         = 0000000000000000  KD_GRANT_TASK_ID      equ 0
         = 0000000000000004  KD_GRANT_REGION       equ 4
         = 0000000000000008  KD_GRANT_PPN_LO       equ 8
         = 000000000000000A  KD_GRANT_PPN_HI       equ 10
         = 000000000000000C  KD_GRANT_GRANTOR_PUBID equ 12
         = 00000000FFFFFFFF  GRANT_TASK_FREE       equ 0xFFFFFFFF
         = 00000000FFFFFFFF  GRANT_GRANTOR_NONE    equ 0xFFFFFFFF
         = 0000000000000000  HWRES_BECOME          equ 0
         = 0000000000000001  HWRES_CREATE          equ 1
         = 0000000000000002  HWRES_REVOKE          equ 2
         = 0000000000000003  HWRES_TASK_ALIVE      equ 3
         = 00000000FFFFFFFF  HWRES_TASK_FREE       equ 0xFFFFFFFF
         = 0000000050494843  HWRES_TAG_CHIP        equ 0x50494843
         = 000000004D415256  HWRES_TAG_VRAM        equ 0x4D415256
         = 0000000000000400  HWRES_MSG_REQUEST     equ 0x400
         = 0000000000000401  HWRES_MSG_GRANTED     equ 0x401
         = 0000000000000402  HWRES_MSG_DENIED      equ 0x402
         = 0000000000000010  BOOTSTRAP_GRANT_ROW_SZ equ 16
         = 0000000000000000  BOOTSTRAP_GRANT_OFF_PROG_IDX equ 0
         = 0000000000000004  BOOTSTRAP_GRANT_OFF_TAG      equ 4
         = 0000000000000008  BOOTSTRAP_GRANT_OFF_PPN_LO   equ 8
         = 000000000000000A  BOOTSTRAP_GRANT_OFF_PPN_HI   equ 10
         = 00000000000F23E0  BOOT_HOSTFS_BASE     equ 0xF23E0
         = 00000000000F23E0  BOOT_HOSTFS_CMD      equ BOOT_HOSTFS_BASE + 0
         = 00000000000F23E4  BOOT_HOSTFS_ARG1     equ BOOT_HOSTFS_BASE + 4
         = 00000000000F23E8  BOOT_HOSTFS_ARG2     equ BOOT_HOSTFS_BASE + 8
         = 00000000000F23EC  BOOT_HOSTFS_ARG3     equ BOOT_HOSTFS_BASE + 12
         = 00000000000F23F0  BOOT_HOSTFS_ARG4     equ BOOT_HOSTFS_BASE + 16
         = 00000000000F23F4  BOOT_HOSTFS_RES1     equ BOOT_HOSTFS_BASE + 20
         = 00000000000F23F8  BOOT_HOSTFS_RES2     equ BOOT_HOSTFS_BASE + 24
         = 00000000000F23FC  BOOT_HOSTFS_ERR      equ BOOT_HOSTFS_BASE + 28
         = 00000000000F23FF  BOOT_HOSTFS_END      equ BOOT_HOSTFS_BASE + 31
         = 0000000000000000  BOOT_HOSTFS_DISCOVER     equ 0
         = 0000000000000001  BOOT_HOSTFS_OPEN         equ 1
         = 0000000000000002  BOOT_HOSTFS_READ         equ 2
         = 0000000000000003  BOOT_HOSTFS_CLOSE        equ 3
         = 0000000000000004  BOOT_HOSTFS_STAT         equ 4
         = 0000000000000005  BOOT_HOSTFS_READDIR      equ 5
         = 0000000000000006  BOOT_HOSTFS_CREATE_WRITE equ 6
         = 0000000000000007  BOOT_HOSTFS_WRITE        equ 7
         = 0000000000000000  BOOT_HOSTFS_KIND_NONE equ 0
         = 0000000000000001  BOOT_HOSTFS_KIND_FILE equ 1
         = 0000000000000002  BOOT_HOSTFS_KIND_DIR  equ 2
         = 0000000000000000  BOOT_HOSTFS_STAT_SIZE_OFF equ 0
         = 0000000000000008  BOOT_HOSTFS_STAT_KIND_OFF equ 8
         = 0000000000000010  BOOT_HOSTFS_STAT_SIZE     equ 16
         = 0000000000000000  BOOT_HOSTFS_DIRENT_KIND_OFF equ 0
         = 0000000000000008  BOOT_HOSTFS_DIRENT_NAME_OFF equ 8
         = 0000000000000040  BOOT_HOSTFS_DIRENT_NAME_MAX equ 64
         = 0000000000000048  BOOT_HOSTFS_DIRENT_SIZE     equ 72
         = 0000000000000000  VECTOR_BASE       equ 0x000000
         = 0000000000000000  VECTOR_RESET      equ 0x000000
         = 0000000000000004  VECTOR_IRQ        equ 0x000004
         = 0000000000001000  PROGRAM_START     equ 0x001000
         = 000000000009F000  STACK_TOP         equ 0x09F000
         = 0000000000021000  BASIC_LINE_BUF    equ 0x021000
         = 0000000000000400  BASIC_LINE_BUFLEN equ 1024
         = 0000000000021FFF  BASIC_LINE_END    equ 0x021FFF
         = 0000000000022000  BASIC_STATE       equ 0x022000
         = 0000000000022FFF  BASIC_STATE_END   equ 0x022FFF
         = 0000000000000000  ST_PROG_START     equ 0x00
         = 0000000000000004  ST_PROG_END       equ 0x04
         = 0000000000000008  ST_VAR_START      equ 0x08
         = 000000000000000C  ST_VAR_END        equ 0x0C
         = 0000000000000010  ST_ARRAY_START    equ 0x10
         = 0000000000000014  ST_ARRAY_END      equ 0x14
         = 0000000000000018  ST_HEAP_TOP       equ 0x18
         = 000000000000001C  ST_HEAP_BOTTOM    equ 0x1C
         = 0000000000000020  ST_CURRENT_LINE   equ 0x20
         = 0000000000000024  ST_TEXT_PTR       equ 0x24
         = 0000000000000028  ST_DATA_PTR       equ 0x28
         = 000000000000002C  ST_GOSUB_SP       equ 0x2C
         = 0000000000000030  ST_FOR_SP         equ 0x30
         = 0000000000000034  ST_RANDOM_SEED    equ 0x34
         = 0000000000000038  ST_ERROR_FLAG     equ 0x38
         = 000000000000003C  ST_TRACE_FLAG     equ 0x3C
         = 0000000000000040  ST_DIRECT_MODE    equ 0x40
         = 0000000000000044  ST_SVAR_START     equ 0x44
         = 0000000000000048  ST_SVAR_END       equ 0x48
         = 000000000000004C  ST_TEXT_ATTR      equ 0x4C
         = 0000000000000050  ST_COPPER_BUILD   equ 0x50
         = 0000000000000054  ST_ULA_BRIGHT     equ 0x54
         = 0000000000000058  ST_ULA_INK        equ 0x58
         = 000000000000005C  ST_ULA_PAPER      equ 0x5C
         = 0000000000000060  ST_ULA_FLASH      equ 0x60
         = 0000000000000064  ST_CONT_LINE_PTR  equ 0x64
         = 0000000000000068  ST_CONT_TEXT_PTR  equ 0x68
         = 0000000000023000  BASIC_PROG_START  equ 0x023000
         = 000000000008BFFF  BASIC_PROG_END    equ 0x08BFFF
         = 000000000008C000  BASIC_STR_TEMP    equ 0x08C000
         = 000000000008FFFF  BASIC_STR_END     equ 0x08FFFF
         = 0000000000090000  BASIC_GOSUB_STACK equ 0x090000
         = 0000000000096FFF  BASIC_GOSUB_END   equ 0x096FFF
         = 0000000000097000  BASIC_HW_STACK    equ 0x097000
         = 000000000009EFFF  BASIC_HW_STACK_END equ 0x09EFFF
         = 0000000000002000  BANK1_WINDOW      equ 0x002000
         = 0000000000004000  BANK2_WINDOW      equ 0x004000
         = 0000000000006000  BANK3_WINDOW      equ 0x006000
         = 0000000000008000  VRAM_WINDOW       equ 0x008000
         = 0000000000002000  BANK_SIZE         equ 0x002000
         = 0000000000004000  VRAM_BANK_SIZE    equ 0x004000
         = 000000000000F700  BANK1_REG_LO      equ 0x00F700
         = 000000000000F701  BANK1_REG_HI      equ 0x00F701
         = 000000000000F702  BANK2_REG_LO      equ 0x00F702
         = 000000000000F703  BANK2_REG_HI      equ 0x00F703
         = 000000000000F704  BANK3_REG_LO      equ 0x00F704
         = 000000000000F705  BANK3_REG_HI      equ 0x00F705
         = 000000000000F7F0  VRAM_BANK_REG     equ 0x00F7F0
         = 00000000000F0700  TERM_OUT          equ 0xF0700
         = 00000000000F0704  TERM_STATUS       equ 0xF0704
         = 00000000000F0708  TERM_IN           equ 0xF0708
         = 00000000000F070C  TERM_LINE_STATUS  equ 0xF070C
         = 00000000000F0710  TERM_ECHO         equ 0xF0710
         = 00000000000F0724  TERM_CTRL         equ 0xF0724
         = 00000000000F0728  TERM_KEY_IN       equ 0xF0728
         = 00000000000F072C  TERM_KEY_STATUS   equ 0xF072C
         = 00000000000F07F0  TERM_SENTINEL     equ 0xF07F0
         = 00000000000F0000  VIDEO_CTRL        equ 0xF0000
         = 00000000000F0004  VIDEO_MODE        equ 0xF0004
         = 00000000000F0008  VIDEO_STATUS      equ 0xF0008
         = 0000000000000002  STATUS_VBLANK     equ 2
         = 00000000000F000C  COPPER_CTRL       equ 0xF000C
         = 00000000000F0010  COPPER_PTR        equ 0xF0010
         = 00000000000F001C  BLT_CTRL          equ 0xF001C
         = 00000000000F0020  BLT_OP            equ 0xF0020
         = 00000000000F0024  BLT_SRC           equ 0xF0024
         = 00000000000F0028  BLT_DST           equ 0xF0028
         = 00000000000F002C  BLT_WIDTH         equ 0xF002C
         = 00000000000F0030  BLT_HEIGHT        equ 0xF0030
         = 00000000000F0034  BLT_SRC_STRIDE    equ 0xF0034
         = 00000000000F0038  BLT_DST_STRIDE    equ 0xF0038
         = 00000000000F003C  BLT_COLOR         equ 0xF003C
         = 00000000000F0040  BLT_MASK          equ 0xF0040
         = 00000000000F0044  BLT_STATUS        equ 0xF0044
         = 00000000000F0058  BLT_MODE7_U0      equ 0xF0058
         = 00000000000F005C  BLT_MODE7_V0      equ 0xF005C
         = 00000000000F0060  BLT_MODE7_DU_COL  equ 0xF0060
         = 00000000000F0064  BLT_MODE7_DV_COL  equ 0xF0064
         = 00000000000F0068  BLT_MODE7_DU_ROW  equ 0xF0068
         = 00000000000F006C  BLT_MODE7_DV_ROW  equ 0xF006C
         = 00000000000F0070  BLT_MODE7_TEX_W   equ 0xF0070
         = 00000000000F0074  BLT_MODE7_TEX_H   equ 0xF0074
         = 00000000000F0488  BLT_FLAGS          equ 0xF0488
         = 00000000000F048C  BLT_FG             equ 0xF048C
         = 00000000000F0490  BLT_BG             equ 0xF0490
         = 00000000000F0494  BLT_MASK_MOD       equ 0xF0494
         = 00000000000F0498  BLT_MASK_SRCX      equ 0xF0498
         = 00000000000F0048  VIDEO_RASTER_Y       equ 0xF0048
         = 00000000000F004C  VIDEO_RASTER_HEIGHT  equ 0xF004C
         = 00000000000F0050  VIDEO_RASTER_COLOR   equ 0xF0050
         = 00000000000F0054  VIDEO_RASTER_CTRL    equ 0xF0054
         = 00000000000F0C00  PSG_BASE          equ 0xF0C00
         = 00000000000F0C0E  PSG_PLUS_CTRL     equ 0xF0C0E
         = 00000000000F0C10  PSG_PLAY_PTR      equ 0xF0C10
         = 00000000000F0C14  PSG_PLAY_LEN      equ 0xF0C14
         = 00000000000F0C18  PSG_PLAY_CTRL     equ 0xF0C18
         = 00000000000F0C1C  PSG_PLAY_STATUS   equ 0xF0C1C
         = 00000000000F0D00  POKEY_BASE        equ 0xF0D00
         = 00000000000F0D00  POKEY_AUDF1       equ 0xF0D00
         = 00000000000F0D01  POKEY_AUDC1       equ 0xF0D01
         = 00000000000F0D02  POKEY_AUDF2       equ 0xF0D02
         = 00000000000F0D03  POKEY_AUDC2       equ 0xF0D03
         = 00000000000F0D04  POKEY_AUDF3       equ 0xF0D04
         = 00000000000F0D05  POKEY_AUDC3       equ 0xF0D05
         = 00000000000F0D06  POKEY_AUDF4       equ 0xF0D06
         = 00000000000F0D07  POKEY_AUDC4       equ 0xF0D07
         = 00000000000F0D08  POKEY_AUDCTL      equ 0xF0D08
         = 00000000000F0D09  POKEY_PLUS_CTRL   equ 0xF0D09
         = 0000000000000001  AUDCTL_CLOCK_15KHZ   equ 0x01
         = 0000000000000002  AUDCTL_HIPASS_CH1    equ 0x02
         = 0000000000000004  AUDCTL_HIPASS_CH2    equ 0x04
         = 0000000000000008  AUDCTL_CH4_BY_CH3    equ 0x08
         = 0000000000000010  AUDCTL_CH2_BY_CH1    equ 0x10
         = 0000000000000020  AUDCTL_CH3_179MHZ    equ 0x20
         = 0000000000000040  AUDCTL_CH1_179MHZ    equ 0x40
         = 0000000000000080  AUDCTL_POLY9         equ 0x80
         = 0000000000000000  POKEY_DIST_POLY17_POLY5  equ 0x00
         = 0000000000000020  POKEY_DIST_POLY5         equ 0x20
         = 0000000000000040  POKEY_DIST_POLY17_POLY4  equ 0x40
         = 0000000000000060  POKEY_DIST_POLY5_POLY4   equ 0x60
         = 0000000000000080  POKEY_DIST_POLY17        equ 0x80
         = 00000000000000A0  POKEY_DIST_PURE_TONE     equ 0xA0
         = 00000000000000C0  POKEY_DIST_POLY4         equ 0xC0
         = 00000000000000E0  POKEY_DIST_POLY17_PULSE  equ 0xE0
         = 00000000000F0E00  SID_BASE          equ 0xF0E00
         = 00000000000F0E00  SID_V1_FREQ_LO    equ 0xF0E00
         = 00000000000F0E01  SID_V1_FREQ_HI    equ 0xF0E01
         = 00000000000F0E02  SID_V1_PW_LO      equ 0xF0E02
         = 00000000000F0E03  SID_V1_PW_HI      equ 0xF0E03
         = 00000000000F0E04  SID_V1_CTRL       equ 0xF0E04
         = 00000000000F0E05  SID_V1_AD         equ 0xF0E05
         = 00000000000F0E06  SID_V1_SR         equ 0xF0E06
         = 00000000000F0E07  SID_V2_FREQ_LO    equ 0xF0E07
         = 00000000000F0E08  SID_V2_FREQ_HI    equ 0xF0E08
         = 00000000000F0E09  SID_V2_PW_LO      equ 0xF0E09
         = 00000000000F0E0A  SID_V2_PW_HI      equ 0xF0E0A
         = 00000000000F0E0B  SID_V2_CTRL       equ 0xF0E0B
         = 00000000000F0E0C  SID_V2_AD         equ 0xF0E0C
         = 00000000000F0E0D  SID_V2_SR         equ 0xF0E0D
         = 00000000000F0E0E  SID_V3_FREQ_LO    equ 0xF0E0E
         = 00000000000F0E0F  SID_V3_FREQ_HI    equ 0xF0E0F
         = 00000000000F0E10  SID_V3_PW_LO      equ 0xF0E10
         = 00000000000F0E11  SID_V3_PW_HI      equ 0xF0E11
         = 00000000000F0E12  SID_V3_CTRL       equ 0xF0E12
         = 00000000000F0E13  SID_V3_AD         equ 0xF0E13
         = 00000000000F0E14  SID_V3_SR         equ 0xF0E14
         = 00000000000F0E15  SID_FC_LO         equ 0xF0E15
         = 00000000000F0E16  SID_FC_HI         equ 0xF0E16
         = 00000000000F0E17  SID_RES_FILT      equ 0xF0E17
         = 00000000000F0E18  SID_MODE_VOL      equ 0xF0E18
         = 00000000000F0E19  SID_PLUS_CTRL     equ 0xF0E19
         = 0000000000000001  SID_CTRL_GATE     equ 0x01
         = 0000000000000002  SID_CTRL_SYNC     equ 0x02
         = 0000000000000004  SID_CTRL_RINGMOD  equ 0x04
         = 0000000000000008  SID_CTRL_TEST     equ 0x08
         = 0000000000000010  SID_CTRL_TRIANGLE equ 0x10
         = 0000000000000020  SID_CTRL_SAWTOOTH equ 0x20
         = 0000000000000040  SID_CTRL_PULSE    equ 0x40
         = 0000000000000080  SID_CTRL_NOISE    equ 0x80
         = 0000000000000001  SID_FILT_V1       equ 0x01
         = 0000000000000002  SID_FILT_V2       equ 0x02
         = 0000000000000004  SID_FILT_V3       equ 0x04
         = 0000000000000008  SID_FILT_EXT      equ 0x08
         = 0000000000000010  SID_MODE_LP       equ 0x10
         = 0000000000000020  SID_MODE_BP       equ 0x20
         = 0000000000000040  SID_MODE_HP       equ 0x40
         = 0000000000000080  SID_MODE_3OFF     equ 0x80
         = 00000000000F0E20  SID_PLAY_PTR      equ 0xF0E20
         = 00000000000F0E24  SID_PLAY_LEN      equ 0xF0E24
         = 00000000000F0E28  SID_PLAY_CTRL     equ 0xF0E28
         = 00000000000F0E2C  SID_PLAY_STATUS   equ 0xF0E2C
         = 00000000000F0E2D  SID_SUBSONG       equ 0xF0E2D
         = 00000000000F0D10  SAP_PLAY_PTR      equ 0xF0D10
         = 00000000000F0D14  SAP_PLAY_LEN      equ 0xF0D14
         = 00000000000F0D18  SAP_PLAY_CTRL     equ 0xF0D18
         = 00000000000F0D1C  SAP_PLAY_STATUS   equ 0xF0D1C
         = 00000000000F0D1D  SAP_SUBSONG       equ 0xF0D1D
         = 00000000000F0F00  TED_BASE          equ 0xF0F00
         = 00000000000F0F00  TED_FREQ1_LO      equ 0xF0F00
         = 00000000000F0F01  TED_FREQ2_LO      equ 0xF0F01
         = 00000000000F0F02  TED_FREQ2_HI      equ 0xF0F02
         = 00000000000F0F03  TED_SND_CTRL      equ 0xF0F03
         = 00000000000F0F04  TED_FREQ1_HI      equ 0xF0F04
         = 00000000000F0F05  TED_PLUS_CTRL     equ 0xF0F05
         = 0000000000000080  TED_CTRL_SNDDC     equ 0x80
         = 0000000000000040  TED_CTRL_SND2NOISE equ 0x40
         = 0000000000000020  TED_CTRL_SND2ON    equ 0x20
         = 0000000000000010  TED_CTRL_SND1ON    equ 0x10
         = 000000000000000F  TED_CTRL_VOLUME    equ 0x0F
         = 00000000000F0F10  TED_PLAY_PTR      equ 0xF0F10
         = 00000000000F0F14  TED_PLAY_LEN      equ 0xF0F14
         = 00000000000F0F18  TED_PLAY_CTRL     equ 0xF0F18
         = 00000000000F0F1C  TED_PLAY_STATUS   equ 0xF0F1C
         = 00000000000F0F20  TED_VIDEO_BASE    equ 0xF0F20
         = 00000000000F0F20  TED_V_CTRL1       equ 0xF0F20
         = 00000000000F0F24  TED_V_CTRL2       equ 0xF0F24
         = 00000000000F0F28  TED_V_CHAR_BASE   equ 0xF0F28
         = 00000000000F0F2C  TED_V_VIDEO_BASE  equ 0xF0F2C
         = 00000000000F0F30  TED_V_BG_COLOR0   equ 0xF0F30
         = 00000000000F0F34  TED_V_BG_COLOR1   equ 0xF0F34
         = 00000000000F0F38  TED_V_BG_COLOR2   equ 0xF0F38
         = 00000000000F0F3C  TED_V_BG_COLOR3   equ 0xF0F3C
         = 00000000000F0F40  TED_V_BORDER      equ 0xF0F40
         = 00000000000F0F44  TED_V_CURSOR_HI   equ 0xF0F44
         = 00000000000F0F48  TED_V_CURSOR_LO   equ 0xF0F48
         = 00000000000F0F4C  TED_V_CURSOR_CLR  equ 0xF0F4C
         = 00000000000F0F50  TED_V_RASTER_LO   equ 0xF0F50
         = 00000000000F0F54  TED_V_RASTER_HI   equ 0xF0F54
         = 00000000000F0F58  TED_V_ENABLE      equ 0xF0F58
         = 00000000000F0F5C  TED_V_STATUS      equ 0xF0F5C
         = 0000000000000040  TED_V_CTRL1_ECM      equ 0x40
         = 0000000000000020  TED_V_CTRL1_BMM      equ 0x20
         = 0000000000000010  TED_V_CTRL1_DEN      equ 0x10
         = 0000000000000008  TED_V_CTRL1_RSEL     equ 0x08
         = 0000000000000007  TED_V_CTRL1_YSCROLL  equ 0x07
         = 0000000000000020  TED_V_CTRL2_RES      equ 0x20
         = 0000000000000010  TED_V_CTRL2_MCM      equ 0x10
         = 0000000000000008  TED_V_CTRL2_CSEL     equ 0x08
         = 0000000000000007  TED_V_CTRL2_XSCROLL  equ 0x07
         = 0000000000000001  TED_V_ENABLE_VIDEO   equ 0x01
         = 0000000000000001  TED_V_STATUS_VBLANK  equ 0x01
         = 0000000000000140  TED_V_DISPLAY_W   equ 320
         = 00000000000000C8  TED_V_DISPLAY_H   equ 200
         = 0000000000000180  TED_V_FRAME_W     equ 384
         = 0000000000000110  TED_V_FRAME_H     equ 272
         = 0000000000000028  TED_V_CELLS_X     equ 40
         = 0000000000000019  TED_V_CELLS_Y     equ 25
         = 000000008003C3C8  COP_SETBASE_TED_VIDEO equ 0x8003C3C8
         = 00000000000F0B80  AHX_BASE          equ 0xF0B80
         = 00000000000F0B80  AHX_PLUS_CTRL     equ 0xF0B80
         = 00000000000F0B84  AHX_PLAY_PTR      equ 0xF0B84
         = 00000000000F0B88  AHX_PLAY_LEN      equ 0xF0B88
         = 00000000000F0B8C  AHX_PLAY_CTRL     equ 0xF0B8C
         = 00000000000F0B90  AHX_PLAY_STATUS   equ 0xF0B90
         = 00000000000F0B91  AHX_SUBSONG       equ 0xF0B91
         = 00000000000F0BC0  MOD_PLAY_PTR      equ 0xF0BC0
         = 00000000000F0BC4  MOD_PLAY_LEN      equ 0xF0BC4
         = 00000000000F0BC8  MOD_PLAY_CTRL     equ 0xF0BC8
         = 00000000000F0BCC  MOD_PLAY_STATUS   equ 0xF0BCC
         = 00000000000F0BD0  MOD_FILTER_MODEL  equ 0xF0BD0
         = 00000000000F0BD4  MOD_POSITION      equ 0xF0BD4
         = 00000000000F0BD8  WAV_PLAY_PTR      equ 0xF0BD8
         = 00000000000F0BDC  WAV_PLAY_LEN      equ 0xF0BDC
         = 00000000000F0BE0  WAV_PLAY_CTRL     equ 0xF0BE0
         = 00000000000F0BE4  WAV_PLAY_STATUS   equ 0xF0BE4
         = 00000000000F0BE8  WAV_POSITION      equ 0xF0BE8
         = 00000000000F1000  VGA_BASE          equ 0xF1000
         = 00000000000F1000  VGA_MODE          equ 0xF1000
         = 00000000000F1004  VGA_STATUS        equ 0xF1004
         = 00000000000F1008  VGA_CTRL          equ 0xF1008
         = 00000000000F1010  VGA_SEQ_INDEX     equ 0xF1010
         = 00000000000F1014  VGA_SEQ_DATA      equ 0xF1014
         = 00000000000F1018  VGA_SEQ_MAPMASK   equ 0xF1018
         = 00000000000F1020  VGA_CRTC_INDEX    equ 0xF1020
         = 00000000000F1024  VGA_CRTC_DATA     equ 0xF1024
         = 00000000000F1028  VGA_CRTC_STARTHI  equ 0xF1028
         = 00000000000F102C  VGA_CRTC_STARTLO  equ 0xF102C
         = 00000000000F1030  VGA_GC_INDEX      equ 0xF1030
         = 00000000000F1034  VGA_GC_DATA       equ 0xF1034
         = 00000000000F1038  VGA_GC_READMAP    equ 0xF1038
         = 00000000000F103C  VGA_GC_BITMASK    equ 0xF103C
         = 00000000000F1040  VGA_ATTR_INDEX    equ 0xF1040
         = 00000000000F1044  VGA_ATTR_DATA     equ 0xF1044
         = 00000000000F1050  VGA_DAC_MASK      equ 0xF1050
         = 00000000000F1054  VGA_DAC_RINDEX    equ 0xF1054
         = 00000000000F1058  VGA_DAC_WINDEX    equ 0xF1058
         = 00000000000F105C  VGA_DAC_DATA      equ 0xF105C
         = 00000000000F1100  VGA_PALETTE       equ 0xF1100
         = 00000000000A0000  VGA_VRAM          equ 0xA0000
         = 0000000000000003  VGA_MODE_TEXT     equ 0x03
         = 0000000000000012  VGA_MODE_12H      equ 0x12
         = 0000000000000013  VGA_MODE_13H      equ 0x13
         = 0000000000000014  VGA_MODE_X        equ 0x14
         = 0000000000000001  VGA_STATUS_VSYNC  equ 0x01
         = 0000000000000008  VGA_STATUS_RETRACE equ 0x08
         = 0000000000000001  VGA_CTRL_ENABLE   equ 0x01
         = 00000000000F0800  AUDIO_CTRL        equ 0xF0800
         = 00000000000F0804  ENV_SHAPE         equ 0xF0804
         = 00000000000F0820  FILTER_CUTOFF     equ 0xF0820
         = 00000000000F0824  FILTER_RESONANCE  equ 0xF0824
         = 00000000000F0828  FILTER_TYPE       equ 0xF0828
         = 00000000000F082C  FILTER_MOD_SOURCE equ 0xF082C
         = 00000000000F0830  FILTER_MOD_AMOUNT equ 0xF0830
         = 0000000000000000  FILTER_OFF        equ 0
         = 0000000000000001  FILTER_LOWPASS    equ 1
         = 0000000000000002  FILTER_HIGHPASS   equ 2
         = 0000000000000003  FILTER_BANDPASS   equ 3
         = 0000000000000000  ENV_SHAPE_ADSR      equ 0
         = 0000000000000001  ENV_SHAPE_SAW_UP    equ 1
         = 0000000000000002  ENV_SHAPE_SAW_DOWN  equ 2
         = 0000000000000003  ENV_SHAPE_LOOP      equ 3
         = 0000000000000004  ENV_SHAPE_SID       equ 4
         = 00000000000F0900  SQUARE_FREQ       equ 0xF0900
         = 00000000000F0904  SQUARE_VOL        equ 0xF0904
         = 00000000000F0908  SQUARE_CTRL       equ 0xF0908
         = 00000000000F090C  SQUARE_DUTY       equ 0xF090C
         = 00000000000F0910  SQUARE_SWEEP      equ 0xF0910
         = 00000000000F0922  SQUARE_PWM_CTRL   equ 0xF0922
         = 00000000000F0930  SQUARE_ATK        equ 0xF0930
         = 00000000000F0934  SQUARE_DEC        equ 0xF0934
         = 00000000000F0938  SQUARE_SUS        equ 0xF0938
         = 00000000000F093C  SQUARE_REL        equ 0xF093C
         = 00000000000F0940  TRI_FREQ          equ 0xF0940
         = 00000000000F0944  TRI_VOL           equ 0xF0944
         = 00000000000F0948  TRI_CTRL          equ 0xF0948
         = 00000000000F0914  TRI_SWEEP         equ 0xF0914
         = 00000000000F0960  TRI_ATK           equ 0xF0960
         = 00000000000F0964  TRI_DEC           equ 0xF0964
         = 00000000000F0968  TRI_SUS           equ 0xF0968
         = 00000000000F096C  TRI_REL           equ 0xF096C
         = 00000000000F0980  SINE_FREQ         equ 0xF0980
         = 00000000000F0984  SINE_VOL          equ 0xF0984
         = 00000000000F0988  SINE_CTRL         equ 0xF0988
         = 00000000000F0918  SINE_SWEEP        equ 0xF0918
         = 00000000000F0990  SINE_ATK          equ 0xF0990
         = 00000000000F0994  SINE_DEC          equ 0xF0994
         = 00000000000F0998  SINE_SUS          equ 0xF0998
         = 00000000000F099C  SINE_REL          equ 0xF099C
         = 00000000000F09C0  NOISE_FREQ        equ 0xF09C0
         = 00000000000F09C4  NOISE_VOL         equ 0xF09C4
         = 00000000000F09C8  NOISE_CTRL        equ 0xF09C8
         = 00000000000F09D0  NOISE_ATK         equ 0xF09D0
         = 00000000000F09D4  NOISE_DEC         equ 0xF09D4
         = 00000000000F09D8  NOISE_SUS         equ 0xF09D8
         = 00000000000F09DC  NOISE_REL         equ 0xF09DC
         = 00000000000F09E0  NOISE_MODE        equ 0xF09E0
         = 0000000000000000  NOISE_MODE_WHITE    equ 0
         = 0000000000000001  NOISE_MODE_PERIODIC equ 1
         = 0000000000000002  NOISE_MODE_METALLIC equ 2
         = 0000000000000003  NOISE_MODE_PSG      equ 3
         = 00000000000F0A00  SYNC_SOURCE_CH0   equ 0xF0A00
         = 00000000000F0A04  SYNC_SOURCE_CH1   equ 0xF0A04
         = 00000000000F0A08  SYNC_SOURCE_CH2   equ 0xF0A08
         = 00000000000F0A0C  SYNC_SOURCE_CH3   equ 0xF0A0C
         = 00000000000F0A10  RING_MOD_SOURCE_CH0 equ 0xF0A10
         = 00000000000F0A14  RING_MOD_SOURCE_CH1 equ 0xF0A14
         = 00000000000F0A18  RING_MOD_SOURCE_CH2 equ 0xF0A18
         = 00000000000F0A1C  RING_MOD_SOURCE_CH3 equ 0xF0A1C
         = 00000000000F0A20  SAW_FREQ          equ 0xF0A20
         = 00000000000F0A24  SAW_VOL           equ 0xF0A24
         = 00000000000F0A28  SAW_CTRL          equ 0xF0A28
         = 00000000000F0A2C  SAW_SWEEP         equ 0xF0A2C
         = 00000000000F0A30  SAW_ATK           equ 0xF0A30
         = 00000000000F0A34  SAW_DEC           equ 0xF0A34
         = 00000000000F0A38  SAW_SUS           equ 0xF0A38
         = 00000000000F0A3C  SAW_REL           equ 0xF0A3C
         = 00000000000F0A60  SYNC_SOURCE_CH4   equ 0xF0A60
         = 00000000000F0A64  RING_MOD_SOURCE_CH4 equ 0xF0A64
         = 00000000000F0A40  OVERDRIVE_CTRL    equ 0xF0A40
         = 00000000000F0A50  REVERB_MIX        equ 0xF0A50
         = 00000000000F0A54  REVERB_DECAY      equ 0xF0A54
         = 00000000000F0A80  FLEX_CH_BASE      equ 0xF0A80
         = 0000000000000040  FLEX_CH_STRIDE    equ 0x40
         = 00000000000F0A80  FLEX_CH0_BASE     equ 0xF0A80
         = 00000000000F0AC0  FLEX_CH1_BASE     equ 0xF0AC0
         = 00000000000F0B00  FLEX_CH2_BASE     equ 0xF0B00
         = 00000000000F0B40  FLEX_CH3_BASE     equ 0xF0B40
         = 0000000000000000  FLEX_OFF_FREQ       equ 0x00
         = 0000000000000004  FLEX_OFF_VOL        equ 0x04
         = 0000000000000008  FLEX_OFF_CTRL       equ 0x08
         = 000000000000000C  FLEX_OFF_DUTY       equ 0x0C
         = 0000000000000010  FLEX_OFF_SWEEP      equ 0x10
         = 0000000000000014  FLEX_OFF_ATK        equ 0x14
         = 0000000000000018  FLEX_OFF_DEC        equ 0x18
         = 000000000000001C  FLEX_OFF_SUS        equ 0x1C
         = 0000000000000020  FLEX_OFF_REL        equ 0x20
         = 0000000000000024  FLEX_OFF_WAVE_TYPE  equ 0x24
         = 0000000000000028  FLEX_OFF_PWM_CTRL   equ 0x28
         = 000000000000002C  FLEX_OFF_NOISEMODE  equ 0x2C
         = 0000000000000000  WAVE_SQUARE       equ 0
         = 0000000000000001  WAVE_TRIANGLE     equ 1
         = 0000000000000002  WAVE_SINE         equ 2
         = 0000000000000003  WAVE_NOISE        equ 3
         = 0000000000000004  WAVE_SAWTOOTH     equ 4
         = 0000000000000002  CTRL_GATE         equ 0x02
         = 0000000000000080  PWM_ENABLE        equ 0x80
         = 000000000000007F  PWM_RATE_MASK     equ 0x7F
         = 0000000000000080  SWEEP_ENABLE      equ 0x80
         = 0000000000000000  SWEEP_DIR_UP      equ 0x00
         = 0000000000000008  SWEEP_DIR_DOWN    equ 0x08
         = 0000000000000070  SWEEP_PERIOD_MASK equ 0x70
         = 0000000000000007  SWEEP_SHIFT_MASK  equ 0x07
         = 0000000000100000  VRAM_START        equ 0x100000
         = 0000000000000500  SCREEN_W          set 1280
         = 00000000000003C0  SCREEN_H          set 960
         = 0000000000001400  LINE_BYTES        set 5120
         = 0000000000000000  MODE_640x480      equ 0x00
         = 0000000000000001  MODE_800x600      equ 0x01
         = 0000000000000002  MODE_1024x768     equ 0x02
         = 0000000000000003  MODE_1280x960     equ 0x03
         = 0000000000000000  BLT_OP_COPY       equ 0
         = 0000000000000001  BLT_OP_FILL       equ 1
         = 0000000000000002  BLT_OP_LINE       equ 2
         = 0000000000000003  BLT_OP_MASKED     equ 3
         = 0000000000000004  BLT_OP_ALPHA      equ 4
         = 0000000000000005  BLT_OP_MODE7      equ 5
         = 0000000000000006  BLT_OP_COLOR_EXPAND equ 6
         = 0000000000000000  BLT_FLAGS_BPP_RGBA32     equ 0x00
         = 0000000000000001  BLT_FLAGS_BPP_CLUT8      equ 0x01
         = 0000000000000003  BLT_FLAGS_BPP_MASK       equ 0x03
         = 0000000000000004  BLT_FLAGS_DRAWMODE_SHIFT equ 4
         = 00000000000000F0  BLT_FLAGS_DRAWMODE_MASK  equ 0xF0
         = 0000000000000100  BLT_FLAGS_JAM1           equ 0x100
         = 0000000000000200  BLT_FLAGS_INVERT_TMPL    equ 0x200
         = 0000000000000400  BLT_FLAGS_INVERT_MODE    equ 0x400
         = 00000000FF000000  BACKGROUND        equ 0xFF000000
         = 0000000000000000  COP_WAIT_MASK         equ 0x00000000
         = 0000000000001000  COP_WAIT_SCALE        equ 0x1000
         = 0000000040120000  COP_MOVE_RASTER_Y     equ 0x40120000
         = 0000000040130000  COP_MOVE_RASTER_H     equ 0x40130000
         = 0000000040140000  COP_MOVE_RASTER_COLOR equ 0x40140000
         = 0000000040150000  COP_MOVE_RASTER_CTRL  equ 0x40150000
         = 00000000C0000000  COP_END               equ 0xC0000000
         = 0000000080000000  COP_SETBASE_OP        equ 0x80000000
         = 0000000000000002  COP_SETBASE_SHIFT     equ 2
         = 000000008003C000  COP_SETBASE_VIDEO     equ 0x8003C000
         = 000000008003C400  COP_SETBASE_VGA       equ 0x8003C400
         = 000000008003C416  COP_SETBASE_VGA_DAC   equ 0x8003C416
         = 0000000040000000  COP_MOVE_VGA_WINDEX   equ 0x40000000
         = 0000000040010000  COP_MOVE_VGA_DATA     equ 0x40010000
         = 000000000000F800  TIMER_CTRL        equ 0x00F800
         = 000000000000F804  TIMER_COUNT       equ 0x00F804
         = 000000000000F808  TIMER_RELOAD      equ 0x00F808
         = 00000000000F2000  ULA_BASE          equ 0xF2000
         = 00000000000F2000  ULA_BORDER        equ 0xF2000
         = 00000000000F2004  ULA_CTRL          equ 0xF2004
         = 00000000000F2008  ULA_STATUS        equ 0xF2008
         = 0000000000000001  ULA_CTRL_ENABLE   equ 0x01
         = 0000000000004000  ULA_VRAM          equ 0x4000
         = 0000000000001800  ULA_BITMAP_SIZE   equ 6144
         = 0000000000001800  ULA_ATTR_OFFSET   equ 0x1800
         = 0000000000000300  ULA_ATTR_SIZE     equ 768
         = 0000000000001B00  ULA_VRAM_SIZE     equ 6912
         = 0000000000000100  ULA_DISPLAY_W     equ 256
         = 00000000000000C0  ULA_DISPLAY_H     equ 192
         = 0000000000000020  ULA_BORDER_SIZE   equ 32
         = 0000000000000140  ULA_FRAME_W       equ 320
         = 0000000000000100  ULA_FRAME_H       equ 256
         = 0000000000000020  ULA_CELLS_X       equ 32
         = 0000000000000018  ULA_CELLS_Y       equ 24
         = 00000000000F2100  ANTIC_BASE        equ 0xF2100
         = 00000000000F2100  ANTIC_DMACTL      equ 0xF2100
         = 00000000000F2104  ANTIC_CHACTL      equ 0xF2104
         = 00000000000F2108  ANTIC_DLISTL      equ 0xF2108
         = 00000000000F210C  ANTIC_DLISTH      equ 0xF210C
         = 00000000000F2110  ANTIC_HSCROL      equ 0xF2110
         = 00000000000F2114  ANTIC_VSCROL      equ 0xF2114
         = 00000000000F2118  ANTIC_PMBASE      equ 0xF2118
         = 00000000000F211C  ANTIC_CHBASE      equ 0xF211C
         = 00000000000F2120  ANTIC_WSYNC       equ 0xF2120
         = 00000000000F2124  ANTIC_VCOUNT      equ 0xF2124
         = 00000000000F2128  ANTIC_PENH        equ 0xF2128
         = 00000000000F212C  ANTIC_PENV        equ 0xF212C
         = 00000000000F2130  ANTIC_NMIEN       equ 0xF2130
         = 00000000000F2134  ANTIC_NMIST       equ 0xF2134
         = 00000000000F2138  ANTIC_ENABLE      equ 0xF2138
         = 00000000000F213C  ANTIC_STATUS      equ 0xF213C
         = 0000000000000001  ANTIC_DMA_NARROW  equ 0x01
         = 0000000000000002  ANTIC_DMA_NORMAL  equ 0x02
         = 0000000000000003  ANTIC_DMA_WIDE    equ 0x03
         = 0000000000000004  ANTIC_DMA_MISSILE equ 0x04
         = 0000000000000008  ANTIC_DMA_PLAYER  equ 0x08
         = 0000000000000010  ANTIC_DMA_PMRES   equ 0x10
         = 0000000000000020  ANTIC_DMA_DL      equ 0x20
         = 0000000000000001  ANTIC_CHACTL_BLANK   equ 0x01
         = 0000000000000002  ANTIC_CHACTL_INVERT  equ 0x02
         = 0000000000000004  ANTIC_CHACTL_REFLECT equ 0x04
         = 0000000000000080  ANTIC_NMIEN_DLI   equ 0x80
         = 0000000000000040  ANTIC_NMIEN_VBI   equ 0x40
         = 0000000000000000  DL_BLANK1         equ 0x00
         = 0000000000000010  DL_BLANK2         equ 0x10
         = 0000000000000020  DL_BLANK3         equ 0x20
         = 0000000000000030  DL_BLANK4         equ 0x30
         = 0000000000000040  DL_BLANK5         equ 0x40
         = 0000000000000050  DL_BLANK6         equ 0x50
         = 0000000000000060  DL_BLANK7         equ 0x60
         = 0000000000000070  DL_BLANK8         equ 0x70
         = 0000000000000001  DL_JMP            equ 0x01
         = 0000000000000041  DL_JVB            equ 0x41
         = 0000000000000002  DL_MODE2          equ 0x02
         = 0000000000000003  DL_MODE3          equ 0x03
         = 0000000000000004  DL_MODE4          equ 0x04
         = 0000000000000005  DL_MODE5          equ 0x05
         = 0000000000000006  DL_MODE6          equ 0x06
         = 0000000000000007  DL_MODE7          equ 0x07
         = 0000000000000008  DL_MODE8          equ 0x08
         = 0000000000000009  DL_MODE9          equ 0x09
         = 000000000000000A  DL_MODE10         equ 0x0A
         = 000000000000000B  DL_MODE11         equ 0x0B
         = 000000000000000C  DL_MODE12         equ 0x0C
         = 000000000000000D  DL_MODE13         equ 0x0D
         = 000000000000000E  DL_MODE14         equ 0x0E
         = 000000000000000F  DL_MODE15         equ 0x0F
         = 0000000000000040  DL_LMS            equ 0x40
         = 0000000000000080  DL_DLI            equ 0x80
         = 0000000000000010  DL_HSCROL         equ 0x10
         = 0000000000000020  DL_VSCROL         equ 0x20
         = 0000000000000001  ANTIC_ENABLE_VIDEO   equ 0x01
         = 0000000000000001  ANTIC_STATUS_VBLANK  equ 0x01
         = 0000000000000140  ANTIC_DISPLAY_W   equ 320
         = 00000000000000C0  ANTIC_DISPLAY_H   equ 192
         = 0000000000000180  ANTIC_FRAME_W     equ 384
         = 00000000000000F0  ANTIC_FRAME_H     equ 240
         = 000000008003C840  COP_SETBASE_ANTIC equ 0x8003C840
         = 00000000000F2140  GTIA_BASE         equ 0xF2140
         = 00000000000F2140  GTIA_COLPF0       equ 0xF2140
         = 00000000000F2144  GTIA_COLPF1       equ 0xF2144
         = 00000000000F2148  GTIA_COLPF2       equ 0xF2148
         = 00000000000F214C  GTIA_COLPF3       equ 0xF214C
         = 00000000000F2150  GTIA_COLBK        equ 0xF2150
         = 00000000000F2154  GTIA_COLPM0       equ 0xF2154
         = 00000000000F2158  GTIA_COLPM1       equ 0xF2158
         = 00000000000F215C  GTIA_COLPM2       equ 0xF215C
         = 00000000000F2160  GTIA_COLPM3       equ 0xF2160
         = 00000000000F2164  GTIA_PRIOR        equ 0xF2164
         = 00000000000F2168  GTIA_GRACTL       equ 0xF2168
         = 00000000000F216C  GTIA_CONSOL       equ 0xF216C
         = 00000000000F2170  GTIA_HPOSP0       equ 0xF2170
         = 00000000000F2174  GTIA_HPOSP1       equ 0xF2174
         = 00000000000F2178  GTIA_HPOSP2       equ 0xF2178
         = 00000000000F217C  GTIA_HPOSP3       equ 0xF217C
         = 00000000000F2180  GTIA_HPOSM0       equ 0xF2180
         = 00000000000F2184  GTIA_HPOSM1       equ 0xF2184
         = 00000000000F2188  GTIA_HPOSM2       equ 0xF2188
         = 00000000000F218C  GTIA_HPOSM3       equ 0xF218C
         = 00000000000F2190  GTIA_SIZEP0       equ 0xF2190
         = 00000000000F2194  GTIA_SIZEP1       equ 0xF2194
         = 00000000000F2198  GTIA_SIZEP2       equ 0xF2198
         = 00000000000F219C  GTIA_SIZEP3       equ 0xF219C
         = 00000000000F21A0  GTIA_SIZEM        equ 0xF21A0
         = 00000000000F21A4  GTIA_GRAFP0       equ 0xF21A4
         = 00000000000F21A8  GTIA_GRAFP1       equ 0xF21A8
         = 00000000000F21AC  GTIA_GRAFP2       equ 0xF21AC
         = 00000000000F21B0  GTIA_GRAFP3       equ 0xF21B0
         = 00000000000F21B4  GTIA_GRAFM        equ 0xF21B4
         = 0000000000000001  GTIA_PRIOR_P03    equ 0x01
         = 0000000000000002  GTIA_PRIOR_P01    equ 0x02
         = 0000000000000004  GTIA_PRIOR_P23    equ 0x04
         = 0000000000000010  GTIA_PRIOR_MULTI  equ 0x10
         = 0000000000000020  GTIA_PRIOR_FIFTH  equ 0x20
         = 0000000000000040  GTIA_PRIOR_GTIA1  equ 0x40
         = 0000000000000080  GTIA_PRIOR_GTIA2  equ 0x80
         = 0000000000000001  GTIA_GRACTL_MISSLE equ 0x01
         = 0000000000000002  GTIA_GRACTL_PLAYER equ 0x02
         = 0000000000000004  GTIA_GRACTL_LATCH  equ 0x04
         = 00000000000F21B7  GTIA_END          equ 0xF21B7
         = 000000008003C850  COP_SETBASE_GTIA  equ 0x8003C850
         = 00000000000F4000  VOODOO_BASE           equ 0xF4000
         = 00000000000F4000  VOODOO_STATUS         equ 0xF4000
         = 00000000000F4004  VOODOO_ENABLE         equ 0xF4004
         = 00000000000F4008  VOODOO_VERTEX_AX      equ 0xF4008
         = 00000000000F400C  VOODOO_VERTEX_AY      equ 0xF400C
         = 00000000000F4010  VOODOO_VERTEX_BX      equ 0xF4010
         = 00000000000F4014  VOODOO_VERTEX_BY      equ 0xF4014
         = 00000000000F4018  VOODOO_VERTEX_CX      equ 0xF4018
         = 00000000000F401C  VOODOO_VERTEX_CY      equ 0xF401C
         = 00000000000F4020  VOODOO_START_R        equ 0xF4020
         = 00000000000F4024  VOODOO_START_G        equ 0xF4024
         = 00000000000F4028  VOODOO_START_B        equ 0xF4028
         = 00000000000F402C  VOODOO_START_Z        equ 0xF402C
         = 00000000000F4030  VOODOO_START_A        equ 0xF4030
         = 00000000000F4034  VOODOO_START_S        equ 0xF4034
         = 00000000000F4038  VOODOO_START_T        equ 0xF4038
         = 00000000000F403C  VOODOO_START_W        equ 0xF403C
         = 00000000000F4040  VOODOO_DRDX           equ 0xF4040
         = 00000000000F4044  VOODOO_DGDX           equ 0xF4044
         = 00000000000F4048  VOODOO_DBDX           equ 0xF4048
         = 00000000000F404C  VOODOO_DZDX           equ 0xF404C
         = 00000000000F4050  VOODOO_DADX           equ 0xF4050
         = 00000000000F4054  VOODOO_DSDX           equ 0xF4054
         = 00000000000F4058  VOODOO_DTDX           equ 0xF4058
         = 00000000000F405C  VOODOO_DWDX           equ 0xF405C
         = 00000000000F4060  VOODOO_DRDY           equ 0xF4060
         = 00000000000F4064  VOODOO_DGDY           equ 0xF4064
         = 00000000000F4068  VOODOO_DBDY           equ 0xF4068
         = 00000000000F406C  VOODOO_DZDY           equ 0xF406C
         = 00000000000F4070  VOODOO_DADY           equ 0xF4070
         = 00000000000F4074  VOODOO_DSDY           equ 0xF4074
         = 00000000000F4078  VOODOO_DTDY           equ 0xF4078
         = 00000000000F407C  VOODOO_DWDY           equ 0xF407C
         = 00000000000F4080  VOODOO_TRIANGLE_CMD   equ 0xF4080
         = 00000000000F4088  VOODOO_COLOR_SELECT   equ 0xF4088
         = 00000000000F4104  VOODOO_FBZCOLOR_PATH  equ 0xF4104
         = 00000000000F4108  VOODOO_FOG_MODE       equ 0xF4108
         = 00000000000F410C  VOODOO_ALPHA_MODE     equ 0xF410C
         = 00000000000F4110  VOODOO_FBZ_MODE       equ 0xF4110
         = 00000000000F4114  VOODOO_LFB_MODE       equ 0xF4114
         = 00000000000F4118  VOODOO_CLIP_LEFT_RIGHT equ 0xF4118
         = 00000000000F411C  VOODOO_CLIP_LOW_Y_HIGH equ 0xF411C
         = 00000000000F4120  VOODOO_NOP_CMD        equ 0xF4120
         = 00000000000F4124  VOODOO_FAST_FILL_CMD  equ 0xF4124
         = 00000000000F4128  VOODOO_SWAP_BUFFER_CMD equ 0xF4128
         = 00000000000F41C4  VOODOO_FOG_COLOR      equ 0xF41C4
         = 00000000000F41C8  VOODOO_ZA_COLOR       equ 0xF41C8
         = 00000000000F41CC  VOODOO_CHROMA_KEY     equ 0xF41CC
         = 00000000000F41D8  VOODOO_COLOR0         equ 0xF41D8
         = 00000000000F41DC  VOODOO_COLOR1         equ 0xF41DC
         = 00000000000F4214  VOODOO_VIDEO_DIM      equ 0xF4214
         = 00000000000F4300  VOODOO_TEXTURE_MODE   equ 0xF4300
         = 00000000000F430C  VOODOO_TEX_BASE0      equ 0xF430C
         = 00000000000F4330  VOODOO_TEX_WIDTH      equ 0xF4330
         = 00000000000F4334  VOODOO_TEX_HEIGHT     equ 0xF4334
         = 00000000000F4338  VOODOO_TEX_UPLOAD     equ 0xF4338
         = 00000000000F5000  VOODOO_TEXMEM_BASE    equ 0xF5000
         = 0000000000000001  VOODOO_STATUS_FBI_BUSY    equ 0x01
         = 0000000000000002  VOODOO_STATUS_TMU_BUSY    equ 0x02
         = 0000000000000004  VOODOO_STATUS_SST_BUSY    equ 0x04
         = 0000000000000040  VOODOO_STATUS_VRETRACE    equ 0x40
         = 0000000000000080  VOODOO_STATUS_SWAPBUF     equ 0x80
         = 0000000000000001  VOODOO_FBZ_CLIPPING     equ 0x0001
         = 0000000000000002  VOODOO_FBZ_CHROMAKEY    equ 0x0002
         = 0000000000000010  VOODOO_FBZ_DEPTH_ENABLE equ 0x0010
         = 00000000000000E0  VOODOO_FBZ_DEPTH_FUNC   equ 0x00E0
         = 0000000000000200  VOODOO_FBZ_RGB_WRITE    equ 0x0200
         = 0000000000000400  VOODOO_FBZ_DEPTH_WRITE  equ 0x0400
         = 0000000000000000  VOODOO_DEPTH_NEVER        equ 0
         = 0000000000000001  VOODOO_DEPTH_LESS         equ 1
         = 0000000000000002  VOODOO_DEPTH_EQUAL        equ 2
         = 0000000000000003  VOODOO_DEPTH_LESSEQUAL    equ 3
         = 0000000000000004  VOODOO_DEPTH_GREATER      equ 4
         = 0000000000000005  VOODOO_DEPTH_NOTEQUAL     equ 5
         = 0000000000000006  VOODOO_DEPTH_GREATEREQUAL equ 6
         = 0000000000000007  VOODOO_DEPTH_ALWAYS       equ 7
         = 0000000000000001  VOODOO_ALPHA_TEST_EN    equ 0x0001
         = 000000000000000E  VOODOO_ALPHA_FUNC_MASK  equ 0x000E
         = 0000000000000001  VOODOO_ALPHA_FUNC_SHIFT equ 1
         = 0000000000000010  VOODOO_ALPHA_BLEND_EN   equ 0x0010
         = 0000000000000F00  VOODOO_ALPHA_SRC_RGB    equ 0x0F00
         = 000000000000F000  VOODOO_ALPHA_DST_RGB    equ 0xF000
         = 0000000000000018  VOODOO_ALPHA_REF_SHIFT  equ 24
         = 0000000000000000  VOODOO_ALPHA_NEVER        equ 0
         = 0000000000000001  VOODOO_ALPHA_LESS         equ 1
         = 0000000000000002  VOODOO_ALPHA_EQUAL        equ 2
         = 0000000000000003  VOODOO_ALPHA_LESSEQUAL    equ 3
         = 0000000000000004  VOODOO_ALPHA_GREATER      equ 4
         = 0000000000000005  VOODOO_ALPHA_NOTEQUAL     equ 5
         = 0000000000000006  VOODOO_ALPHA_GREATEREQUAL equ 6
         = 0000000000000007  VOODOO_ALPHA_ALWAYS       equ 7
         = 0000000000000000  VOODOO_BLEND_ZERO       equ 0
         = 0000000000000001  VOODOO_BLEND_SRC_ALPHA  equ 1
         = 0000000000000002  VOODOO_BLEND_COLOR      equ 2
         = 0000000000000003  VOODOO_BLEND_DST_ALPHA  equ 3
         = 0000000000000004  VOODOO_BLEND_ONE        equ 4
         = 0000000000000005  VOODOO_BLEND_INV_SRC_A  equ 5
         = 0000000000000006  VOODOO_BLEND_INV_COLOR  equ 6
         = 0000000000000007  VOODOO_BLEND_INV_DST_A  equ 7
         = 000000000000000F  VOODOO_BLEND_SATURATE   equ 15
         = 0000000000000001  VOODOO_SWAP_VSYNC       equ 0x01
         = 0000000000000002  VOODOO_SWAP_CLEAR       equ 0x02
         = 0000000000000001  VOODOO_TEX_ENABLE       equ 0x0001
         = 000000000000000E  VOODOO_TEX_MINIFY       equ 0x000E
         = 0000000000000010  VOODOO_TEX_MAGNIFY      equ 0x0010
         = 0000000000000020  VOODOO_TEX_CLAMP_S      equ 0x0020
         = 0000000000000040  VOODOO_TEX_CLAMP_T      equ 0x0040
         = 0000000000000F00  VOODOO_TEX_FORMAT       equ 0x0F00
         = 0000000000000008  VOODOO_TEX_FORMAT_SHIFT equ 8
         = 0000000000000000  VOODOO_TEX_FMT_PALETTE  equ 0
         = 0000000000000005  VOODOO_TEX_FMT_P8       equ 5
         = 0000000000000008  VOODOO_TEX_FMT_ARGB1555 equ 8
         = 0000000000000009  VOODOO_TEX_FMT_ARGB4444 equ 9
         = 000000000000000A  VOODOO_TEX_FMT_ARGB8888 equ 10
         = 00000000000003FF  VOODOO_CLIP_MASK        equ 0x3FF
         = 0000000000000004  VOODOO_FIXED_12_4       equ 4
         = 000000000000000C  VOODOO_FIXED_12_12      equ 12
         = 0000000000000003  VOODOO_FCP_RGB_SELECT_MASK  equ 0x03
         = 0000000000000000  VOODOO_FCP_RGB_SELECT_SHIFT equ 0
         = 000000000000000C  VOODOO_FCP_A_SELECT_MASK    equ 0x0C
         = 0000000000000002  VOODOO_FCP_A_SELECT_SHIFT   equ 2
         = 0000000000000070  VOODOO_FCP_CC_MSELECT_MASK  equ 0x70
         = 0000000000000004  VOODOO_FCP_CC_MSELECT_SHIFT equ 4
         = 0000000008000000  VOODOO_FCP_TEXTURE_ENABLE   equ 0x08000000
         = 0000000000000000  VOODOO_CC_ITERATED      equ 0
         = 0000000000000001  VOODOO_CC_TEXTURE       equ 1
         = 0000000000000002  VOODOO_CC_COLOR1        equ 2
         = 0000000000000003  VOODOO_CC_LFB           equ 3
         = 0000000000000000  VOODOO_CC_ZERO          equ 0
         = 0000000000000001  VOODOO_CC_CSUB_CL       equ 1
         = 0000000000000002  VOODOO_CC_ALOCAL        equ 2
         = 0000000000000003  VOODOO_CC_AOTHER        equ 3
         = 0000000000000004  VOODOO_CC_CLOCAL        equ 4
         = 0000000000000005  VOODOO_CC_ALOCAL_T      equ 5
         = 0000000000000006  VOODOO_CC_CLOC_MUL      equ 6
         = 0000000000000007  VOODOO_CC_AOTHER_T      equ 7
         = 00000000FFFFFFFF  VOODOO_COMBINE_UNSET    equ 0xFFFFFFFF
         = 0000000000000000  VOODOO_COMBINE_ITERATED equ 0x00
         = 0000000000000001  VOODOO_COMBINE_TEXTURE  equ 0x01
         = 0000000000000061  VOODOO_COMBINE_MODULATE equ 0x61
         = 0000000000000081  VOODOO_COMBINE_ADD      equ 0x81
         = 0000000000000041  VOODOO_COMBINE_DECAL    equ 0x41
         = 0000000000000001  VOODOO_FOG_ENABLE       equ 0x0001
         = 0000000000000002  VOODOO_FOG_ADD          equ 0x0002
         = 0000000000000004  VOODOO_FOG_MULT         equ 0x0004
         = 0000000000000008  VOODOO_FOG_ZALPHA       equ 0x0008
         = 0000000000000010  VOODOO_FOG_CONSTANT     equ 0x0010
         = 0000000000000020  VOODOO_FOG_DITHER       equ 0x0020
         = 0000000000000040  VOODOO_FOG_ZONES        equ 0x0040
         = 0000000000000008  VOODOO_FOG_TABLE_SHIFT  equ 8
         = 000000000000003F  VOODOO_FOG_TABLE_MASK   equ 0x3F
         = 00000000000F4140  VOODOO_FOG_TABLE_BASE   equ 0xF4140
         = 0000000000000040  VOODOO_FOG_TABLE_SIZE   equ 64
         = 0000000000000100  VOODOO_FBZ_DITHER       equ 0x0100
         = 0000000000000800  VOODOO_FBZ_DITHER_2X2   equ 0x0800
         = 00000000000F2200  FILE_NAME_PTR     equ 0xF2200
         = 00000000000F2204  FILE_DATA_PTR     equ 0xF2204
         = 00000000000F2208  FILE_DATA_LEN     equ 0xF2208
         = 00000000000F220C  FILE_CTRL         equ 0xF220C
         = 00000000000F2210  FILE_STATUS       equ 0xF2210
         = 00000000000F2214  FILE_RESULT_LEN   equ 0xF2214
         = 00000000000F2218  FILE_ERROR_CODE   equ 0xF2218
         = 00000000006FF000  FILE_NAME_BUF     equ 0x6FF000
         = 0000000000700000  FILE_DATA_BUF     equ 0x700000
         = 00000000000F2300  MEDIA_NAME_PTR    equ 0xF2300
         = 00000000000F2304  MEDIA_SUBSONG     equ 0xF2304
         = 00000000000F2308  MEDIA_CTRL        equ 0xF2308
         = 00000000000F230C  MEDIA_STATUS      equ 0xF230C
         = 00000000000F2310  MEDIA_TYPE        equ 0xF2310
         = 00000000000F2314  MEDIA_ERROR       equ 0xF2314
         = 00000000000F2320  EXEC_NAME_PTR     equ 0xF2320
         = 00000000000F2324  EXEC_CTRL         equ 0xF2324
         = 00000000000F2328  EXEC_STATUS       equ 0xF2328
         = 00000000000F232C  EXEC_TYPE         equ 0xF232C
         = 00000000000F2330  EXEC_ERROR        equ 0xF2330
         = 00000000000F2334  EXEC_SESSION      equ 0xF2334
         = 0000000000000002  EXEC_OP_EMUTOS    equ 2
         = 0000000000000003  EXEC_OP_AROS      equ 3
         = 0000000000000004  EXEC_OP_IEXEC     equ 4
         = 00000000000F2340  COPROC_CMD            equ 0xF2340
         = 00000000000F2344  COPROC_CPU_TYPE       equ 0xF2344
         = 00000000000F2348  COPROC_CMD_STATUS     equ 0xF2348
         = 00000000000F234C  COPROC_CMD_ERROR      equ 0xF234C
         = 00000000000F2350  COPROC_TICKET         equ 0xF2350
         = 00000000000F2354  COPROC_TICKET_STATUS  equ 0xF2354
         = 00000000000F2358  COPROC_OP             equ 0xF2358
         = 00000000000F235C  COPROC_REQ_PTR        equ 0xF235C
         = 00000000000F2360  COPROC_REQ_LEN        equ 0xF2360
         = 00000000000F2364  COPROC_RESP_PTR       equ 0xF2364
         = 00000000000F2368  COPROC_RESP_CAP       equ 0xF2368
         = 00000000000F236C  COPROC_TIMEOUT        equ 0xF236C
         = 00000000000F2370  COPROC_NAME_PTR       equ 0xF2370
         = 00000000000F2374  COPROC_WORKER_STATE   equ 0xF2374
         = 00000000000F2378  COPROC_STATS_OPS      equ 0xF2378
         = 00000000000F237C  COPROC_STATS_BYTES    equ 0xF237C
         = 00000000000F2380  COPROC_IRQ_CTRL       equ 0xF2380
         = 00000000000F2384  COPROC_DISPATCH_OVERHEAD equ 0xF2384
         = 00000000000F2388  COPROC_COMPLETED_TICKET equ 0xF2388
         = 00000000000F23B0  COPROC_RING_DEPTH     equ 0xF23B0
         = 00000000000F23B4  COPROC_WORKER_UPTIME  equ 0xF23B4
         = 00000000000F23B8  COPROC_STATS_RESET    equ 0xF23B8
         = 00000000000F23BC  COPROC_BUSY_PCT       equ 0xF23BC
         = 0000000000000001  COPROC_CMD_START      equ 1
         = 0000000000000002  COPROC_CMD_STOP       equ 2
         = 0000000000000003  COPROC_CMD_ENQUEUE    equ 3
         = 0000000000000004  COPROC_CMD_POLL       equ 4
         = 0000000000000005  COPROC_CMD_WAIT_CMD   equ 5
         = 0000000000000000  COPROC_ST_PENDING     equ 0
         = 0000000000000001  COPROC_ST_RUNNING     equ 1
         = 0000000000000002  COPROC_ST_OK          equ 2
         = 0000000000000003  COPROC_ST_ERROR       equ 3
         = 0000000000000004  COPROC_ST_TIMEOUT     equ 4
         = 0000000000000005  COPROC_ST_WORKER_DOWN equ 5
         = 0000000000000001  COPROC_CPU_IE32       equ 1
         = 0000000000000002  COPROC_CPU_IE64       equ 2
         = 0000000000000003  COPROC_CPU_6502       equ 3
         = 0000000000000004  COPROC_CPU_M68K       equ 4
         = 0000000000000005  COPROC_CPU_Z80        equ 5
         = 0000000000000006  COPROC_CPU_X86        equ 6
         = 00000000000F2380  SYS_GC_TRIGGER        equ 0xF2380
         = 0000000000000007  SYSINFO_ASLR_IMAGE_BASE equ 7
                         iexec_start:
00001000  01 0D 00 00 A0 B0 00 00... move.l  r1, #trap_handler
00001008  E6 20 08 00 00 00 00 00... mtcr    cr4, r1
00001010  01 0D 00 00 D8 43 01 00... move.l  r1, #intr_handler
00001018  E6 38 08 00 00 00 00 00... mtcr    cr7, r1
00001020  01 0D 00 00 00 00 0A 00... move.l  r1, #KERN_STACK_TOP
00001028  E6 40 08 00 00 00 00 00... mtcr    cr8, r1
00001030  01 FE 08 00 00 00 00 00... move.q  r31, r1
00001038  01 15 00 00 00 D0 07 00... move.l  r2, #KERN_PAGE_TABLE
00001040  01 25 00 00 00 00 00 00... move.l  r4, #0
                         .kern_pt_loop:
00001048  34 1F 20 00 0D 00 00 00... lsl     r3, r4, #13
00001050  31 1F 18 00 07 00 00 00... or      r3, r3, #(PTE_P | PTE_R | PTE_W)
00001058  34 2F 20 00 03 00 00 00... lsl     r5, r4, #3
00001060  20 2E 28 10 00 00 00 00... add     r5, r5, r2
00001068  11 1E 28 00 00 00 00 00... store.q r3, (r5)
00001070  20 27 20 00 01 00 00 00... add     r4, r4, #1
00001078  01 35 00 00 80 01 00 00... move.l  r6, #KERN_PAGES
00001080  43 06 20 30 C8 FF FF FF... blt     r4, r6, .kern_pt_loop
00001088  01 15 00 00 00 D0 07 00... move.l  r2, #KERN_PAGE_TABLE
00001090  01 25 00 00 00 00 00 00... move.l  r4, #0
                         .kern_image_rx_map:
00001098  01 35 00 00 7D 00 00 00... move.l  r6, #KERN_IMAGE_PAGE_END
000010A0  44 06 20 30 40 00 00 00... bge     r4, r6, .kern_image_rx_done
000010A8  34 1F 20 00 0D 00 00 00... lsl     r3, r4, #13
000010B0  31 1F 18 00 0B 00 00 00... or      r3, r3, #(PTE_P | PTE_R | PTE_X)
000010B8  34 2F 20 00 03 00 00 00... lsl     r5, r4, #3
000010C0  20 2E 28 10 00 00 00 00... add     r5, r5, r2
000010C8  11 1E 28 00 00 00 00 00... store.q r3, (r5)
000010D0  20 27 20 00 01 00 00 00... add     r4, r4, #1
000010D8  40 06 00 00 C0 FF FF FF... bra     .kern_image_rx_map
                         .kern_image_rx_done:
000010E0  01 1D 00 00 00 00 00 00... move.l  r3, #0
000010E8  01 25 00 00 9E 00 00 00... move.l  r4, #KERN_STACK_GUARD_PAGE
000010F0  34 2F 20 00 03 00 00 00... lsl     r5, r4, #3
000010F8  20 2E 28 10 00 00 00 00... add     r5, r5, r2
00001100  11 1E 28 00 00 00 00 00... store.q r3, (r5)
00001108  01 25 00 00 00 06 00 00... move.l  r4, #USER_CODE_VPN_BASE
00001110  01 35 00 00 00 08 00 00... move.l  r6, #USER_PT_PAGE_BASE
                         .kern_user_map:
00001118  44 06 20 30 40 00 00 00... bge     r4, r6, .kern_user_map_done
00001120  34 1F 20 00 0D 00 00 00... lsl     r3, r4, #13
00001128  31 1F 18 00 07 00 00 00... or      r3, r3, #(PTE_P | PTE_R | PTE_W)
00001130  34 2F 20 00 03 00 00 00... lsl     r5, r4, #3
00001138  20 2E 28 10 00 00 00 00... add     r5, r5, r2
00001140  11 1E 28 00 00 00 00 00... store.q r3, (r5)
00001148  20 27 20 00 01 00 00 00... add     r4, r4, #1
00001150  40 06 00 00 C8 FF FF FF... bra     .kern_user_map
                         .kern_user_map_done:
00001158  01 15 00 00 00 D0 07 00... move.l  r2, #KERN_PAGE_TABLE
00001160  01 25 00 00 00 08 00 00... move.l  r4, #USER_PT_PAGE_BASE
00001168  01 35 00 00 00 0A 00 00... move.l  r6, #USER_PT_PAGE_END
                         .kern_userpt_map:
00001170  34 1F 20 00 0D 00 00 00... lsl     r3, r4, #13
00001178  31 1F 18 00 07 00 00 00... or      r3, r3, #(PTE_P | PTE_R | PTE_W)
00001180  34 2F 20 00 03 00 00 00... lsl     r5, r4, #3
00001188  20 2E 28 10 00 00 00 00... add     r5, r5, r2
00001190  11 1E 28 00 00 00 00 00... store.q r3, (r5)
00001198  20 27 20 00 01 00 00 00... add     r4, r4, #1
000011A0  43 06 20 30 D0 FF FF FF... blt     r4, r6, .kern_userpt_map
000011A8  01 65 00 00 00 D0 08 00... move.l  r12, #KERN_DATA_BASE
000011B0  11 06 60 00 00 00 00 00... store.q r0, (r12)
000011B8  11 07 60 00 08 00 00 00... store.q r0, KD_TICK_COUNT(r12)
000011C0  11 07 60 00 10 00 00 00... store.q r0, KD_NUM_TASKS(r12)
000011C8  10 5F 60 00 20 05 01 00... load.q  r11, KD_ASLR_STATE(r12)
000011D0  42 06 58 00 18 00 00 00... bne r11, r0, .init_aslr_seed_ready
000011D8  01 5D 00 00 4D 3C 2B 1A... move.l  r11, #0x1A2B3C4D
000011E0  11 5F 60 00 20 05 01 00... store.q r11, KD_ASLR_STATE(r12)
                         .init_aslr_seed_ready:
000011E8  01 25 00 00 00 00 00 00... move.l  r4, #0
                         .init_free_tasks:
000011F0  01 35 00 00 FF 00 00 00... move.l  r6, #MAX_TASKS
000011F8  44 06 20 30 90 00 00 00... bge     r4, r6, .init_free_done
00001200  34 2F 20 00 05 00 00 00... lsl     r5, r4, #5
00001208  20 2F 28 00 40 00 00 00... add     r5, r5, #KD_TASK_BASE
00001210  01 15 00 00 00 D0 08 00... move.l  r2, #KERN_DATA_BASE
00001218  20 2E 28 10 00 00 00 00... add     r5, r5, r2
00001220  11 06 28 00 00 00 00 00... store.q r0, KD_TASK_PC(r5)
00001228  11 07 28 00 08 00 00 00... store.q r0, KD_TASK_USP(r5)
00001230  11 05 28 00 10 00 00 00... store.l r0, KD_TASK_SIG_ALLOC(r5)
00001238  11 05 28 00 14 00 00 00... store.l r0, KD_TASK_SIG_WAIT(r5)
00001240  11 05 28 00 18 00 00 00... store.l r0, KD_TASK_SIG_RECV(r5)
00001248  01 09 00 00 03 00 00 00... move.b  r1, #TASK_FREE
00001250  11 09 28 00 1C 00 00 00... store.b r1, KD_TASK_STATE(r5)
00001258  01 09 00 00 FF 00 00 00... move.b  r1, #WAITPORT_NONE
00001260  11 09 28 00 1D 00 00 00... store.b r1, KD_TASK_WAITPORT(r5)
00001268  11 01 28 00 1E 00 00 00... store.b r0, KD_TASK_GPR_SAVED(r5)
00001270  11 01 28 00 1F 00 00 00... store.b r0, KD_TASK_TEARFLAGS(r5)
00001278  20 27 20 00 01 00 00 00... add     r4, r4, #1
00001280  40 06 00 00 70 FF FF FF... bra     .init_free_tasks
                         .init_free_done:
00001288  01 15 00 00 00 D0 08 00... move.l  r2, #KERN_DATA_BASE
00001290  20 17 10 00 18 28 00 00... add     r2, r2, #KD_PORT_BASE
00001298  01 25 00 00 00 00 00 00... move.l  r4, #0
                         .port_init_loop:
000012A0  11 00 10 00 00 00 00 00... store.b r0, KD_PORT_VALID(r2)
000012A8  11 01 10 00 05 00 00 00... store.b r0, KD_PORT_FLAGS(r2)
000012B0  11 07 10 00 08 00 00 00... store.q r0, KD_PORT_NAME(r2)
000012B8  20 37 10 00 08 00 00 00... add     r6, r2, #KD_PORT_NAME
000012C0  20 37 30 00 08 00 00 00... add     r6, r6, #8
000012C8  11 06 30 00 00 00 00 00... store.q r0, (r6)
000012D0  20 37 30 00 08 00 00 00... add     r6, r6, #8
000012D8  11 06 30 00 00 00 00 00... store.q r0, (r6)
000012E0  20 37 30 00 08 00 00 00... add     r6, r6, #8
000012E8  11 06 30 00 00 00 00 00... store.q r0, (r6)
000012F0  20 17 10 00 A8 00 00 00... add     r2, r2, #KD_PORT_STRIDE
000012F8  20 27 20 00 01 00 00 00... add     r4, r4, #1
00001300  01 2D 00 00 20 00 00 00... move.l  r5, #KD_PORT_MAX
00001308  43 06 20 28 98 FF FF FF... blt     r4, r5, .port_init_loop
00001310  01 15 00 00 00 D0 08 00... move.l  r2, #KERN_DATA_BASE
00001318  20 17 10 00 18 3D 00 00... add     r2, r2, #KD_PAGE_BITMAP
00001320  01 1D 00 00 20 03 00 00... move.l  r3, #KD_PAGE_BITMAP_SZ
00001328  35 1F 18 00 03 00 00 00... lsr     r3, r3, #3
00001330  01 25 00 00 00 00 00 00... move.l  r4, #0
                         .zero_bitmap:
00001338  11 06 10 00 00 00 00 00... store.q r0, (r2)
00001340  20 17 10 00 08 00 00 00... add     r2, r2, #8
00001348  20 27 20 00 01 00 00 00... add     r4, r4, #1
00001350  43 06 20 18 E8 FF FF FF... blt     r4, r3, .zero_bitmap
00001358  01 15 00 00 00 D0 08 00... move.l  r2, #KERN_DATA_BASE
00001360  20 17 10 00 38 40 00 00... add     r2, r2, #KD_REGION_TABLE
00001368  01 1D 00 00 F0 0F 00 00... move.l  r3, #(MAX_TASKS * KD_REGION_TASK_SZ / 8)
00001370  01 25 00 00 00 00 00 00... move.l  r4, #0
                         .zero_regions:
00001378  11 06 10 00 00 00 00 00... store.q r0, (r2)
00001380  20 17 10 00 08 00 00 00... add     r2, r2, #8
00001388  20 27 20 00 01 00 00 00... add     r4, r4, #1
00001390  43 06 20 18 E8 FF FF FF... blt     r4, r3, .zero_regions
00001398  01 15 00 00 00 D0 08 00... move.l  r2, #KERN_DATA_BASE
000013A0  20 17 10 00 B8 BF 00 00... add     r2, r2, #KD_SHMEM_TABLE
000013A8  01 1D 00 00 20 00 00 00... move.l  r3, #(KD_SHMEM_MAX * KD_SHMEM_STRIDE / 8)
000013B0  01 25 00 00 00 00 00 00... move.l  r4, #0
                         .zero_shmem:
000013B8  11 06 10 00 00 00 00 00... store.q r0, (r2)
000013C0  20 17 10 00 08 00 00 00... add     r2, r2, #8
000013C8  20 27 20 00 01 00 00 00... add     r4, r4, #1
000013D0  43 06 20 18 E8 FF FF FF... blt     r4, r3, .zero_shmem
000013D8  01 0D 00 00 FF FF FF FF... move.l  r1, #TASK_PUBID_FREE
000013E0  11 0D 60 00 BC C0 00 00... store.l r1, KD_DOSLIB_PUBID(r12)
000013E8  01 15 00 00 00 D0 08 00... move.l  r2, #KERN_DATA_BASE
000013F0  01 25 00 00 FF FF FF FF... move.l  r4, #HWRES_TASK_FREE
000013F8  11 25 10 00 B8 C0 00 00... store.l r4, KD_HWRES_TASK(r2)
00001400  01 15 00 00 00 D0 08 00... move.l  r2, #KERN_DATA_BASE
00001408  20 17 10 00 C0 C0 00 00... add     r2, r2, #KD_GRANT_TABLE_HDR
00001410  11 06 10 00 00 00 00 00... store.q r0, (r2)
00001418  01 15 00 00 00 D0 08 00... move.l  r2, #KERN_DATA_BASE
00001420  20 17 10 00 C8 C0 00 00... add     r2, r2, #KD_REGION_OVERFLOW_HEAD
00001428  01 1D 00 00 FF 00 00 00... move.l  r3, #(MAX_TASKS * KD_REGION_OFLOW_STRIDE / 8)
00001430  01 25 00 00 00 00 00 00... move.l  r4, #0
                         .zero_oflow:
00001438  11 06 10 00 00 00 00 00... store.q r0, (r2)
00001440  20 17 10 00 08 00 00 00... add     r2, r2, #8
00001448  20 27 20 00 01 00 00 00... add     r4, r4, #1
00001450  43 06 20 18 E8 FF FF FF... blt     r4, r3, .zero_oflow
00001458  01 15 00 00 00 D0 08 00... move.l  r2, #KERN_DATA_BASE
00001460  20 17 10 00 C0 C8 00 00... add     r2, r2, #KD_SHMEM_OFLOW_HDR
00001468  11 06 10 00 00 00 00 00... store.q r0, (r2)
00001470  01 15 00 00 00 D0 08 00... move.l  r2, #KERN_DATA_BASE
00001478  20 17 10 00 C8 C8 00 00... add     r2, r2, #KD_PORT_OFLOW_HDR
00001480  11 06 10 00 00 00 00 00... store.q r0, (r2)
00001488  01 15 00 00 00 D0 08 00... move.l  r2, #KERN_DATA_BASE
00001490  20 17 10 00 D0 C8 00 00... add     r2, r2, #KD_TASK_LAYOUT_BASE
00001498  01 1D 00 00 F9 06 00 00... move.l  r3, #(MAX_TASKS * KD_TASK_LAYOUT_STRIDE / 8)
000014A0  01 25 00 00 00 00 00 00... move.l  r4, #0
                         .zero_task_layout:
000014A8  11 06 10 00 00 00 00 00... store.q r0, (r2)
000014B0  20 17 10 00 08 00 00 00... add     r2, r2, #8
000014B8  20 27 20 00 01 00 00 00... add     r4, r4, #1
000014C0  43 06 20 18 E8 FF FF FF... blt     r4, r3, .zero_task_layout
000014C8  01 15 00 00 00 D0 08 00... move.l  r2, #KERN_DATA_BASE
000014D0  20 17 10 00 98 00 01 00... add     r2, r2, #KD_TASK_IMG_BITMAP
000014D8  01 1D 00 00 08 00 00 00... move.l  r3, #(KD_TASK_IMG_BITMAP_SZ / 8)
000014E0  01 25 00 00 00 00 00 00... move.l  r4, #0
                         .zero_taskimg_bitmap:
000014E8  11 06 10 00 00 00 00 00... store.q r0, (r2)
000014F0  20 17 10 00 08 00 00 00... add     r2, r2, #8
000014F8  20 27 20 00 01 00 00 00... add     r4, r4, #1
00001500  43 06 20 18 E8 FF FF FF... blt     r4, r3, .zero_taskimg_bitmap
00001508  01 15 00 00 00 D0 08 00... move.l  r2, #KERN_DATA_BASE
00001510  20 17 10 00 D8 00 01 00... add     r2, r2, #KD_TASK_PT_BITMAP
00001518  01 1D 00 00 08 00 00 00... move.l  r3, #(KD_TASK_PT_BITMAP_SZ / 8)
00001520  01 25 00 00 00 00 00 00... move.l  r4, #0
                         .zero_taskpt_bitmap:
00001528  11 06 10 00 00 00 00 00... store.q r0, (r2)
00001530  20 17 10 00 08 00 00 00... add     r2, r2, #8
00001538  20 27 20 00 01 00 00 00... add     r4, r4, #1
00001540  43 06 20 18 E8 FF FF FF... blt     r4, r3, .zero_taskpt_bitmap
00001548  01 15 00 00 00 D0 08 00... move.l  r2, #KERN_DATA_BASE
00001550  20 17 10 00 18 01 01 00... add     r2, r2, #KD_TASK_PUBID_BASE
00001558  01 1D 00 00 FF 00 00 00... move.l  r3, #MAX_TASKS
00001560  01 25 00 00 00 00 00 00... move.l  r4, #0
00001568  01 2D 00 00 FF FF FF FF... move.l  r5, #0xFFFFFFFF
                         .zero_task_pubids:
00001570  44 06 20 18 28 00 00 00... bge     r4, r3, .zero_taskid_next
00001578  11 2C 10 00 00 00 00 00... store.l r5, (r2)
00001580  20 17 10 00 04 00 00 00... add     r2, r2, #KD_TASK_PUBID_STRIDE
00001588  20 27 20 00 01 00 00 00... add     r4, r4, #1
00001590  40 06 00 00 E0 FF FF FF... bra     .zero_task_pubids
                         .zero_taskid_next:
00001598  01 15 00 00 00 D0 08 00... move.l  r2, #KERN_DATA_BASE
000015A0  11 07 10 00 18 05 01 00... store.q r0, KD_TASKID_NEXT(r2)
000015A8  01 0D 00 00 01 00 00 00... move.l  r1, #1
000015B0  50 06 00 00 38 70 00 00... jsr     alloc_pages
000015B8  01 15 00 00 00 D0 08 00... move.l  r2, #KERN_DATA_BASE
000015C0  11 0B 10 00 CE C8 00 00... store.w r1, KD_TASK_EXIT_HOOK_PPN(r2)
000015C8  34 0F 08 00 0C 00 00 00... lsl     r1, r1, #12
000015D0  01 16 08 00 00 00 00 00... move.q  r2, r1
000015D8  01 1D 00 00 00 02 00 00... move.l  r3, #(MMU_PAGE_SIZE / 8)
000015E0  01 25 00 00 00 00 00 00... move.l  r4, #0
                         .zero_task_exit_page:
000015E8  11 06 10 00 00 00 00 00... store.q r0, (r2)
000015F0  20 17 10 00 08 00 00 00... add     r2, r2, #8
000015F8  20 27 20 00 01 00 00 00... add     r4, r4, #1
00001600  43 06 20 18 E8 FF FF FF... blt     r4, r3, .zero_task_exit_page
00001608  01 0D 00 00 01 00 00 00... move.l  r1, #1
00001610  50 06 00 00 D8 6F 00 00... jsr     alloc_pages
00001618  41 06 08 00 58 00 00 00... beq r1, r0, .quota_page_skip
00001620  01 15 00 00 00 D0 08 00... move.l  r2, #KERN_DATA_BASE
00001628  11 0B 10 00 38 06 01 00... store.w r1, KD_QUOTA_PAGE_PPN(r2)
00001630  34 0F 08 00 0C 00 00 00... lsl     r1, r1, #12
00001638  01 16 08 00 00 00 00 00... move.q  r2, r1
00001640  01 1D 00 00 00 02 00 00... move.l  r3, #(MMU_PAGE_SIZE / 8)
00001648  01 25 00 00 00 00 00 00... move.l  r4, #0
                         .zero_quota_page:
00001650  11 06 10 00 00 00 00 00... store.q r0, (r2)
00001658  20 17 10 00 08 00 00 00... add     r2, r2, #8
00001660  20 27 20 00 01 00 00 00... add     r4, r4, #1
00001668  43 06 20 18 E8 FF FF FF... blt     r4, r3, .zero_quota_page
                         .quota_page_skip:
00001670  01 15 00 00 00 D0 08 00... move.l  r2, #KERN_DATA_BASE
00001678  20 17 10 00 3C 06 01 00... add     r2, r2, #KD_QUOTA_LIMITS_BASE
00001680  01 1D 00 00 00 04 00 00... move.l  r3, #QUOTA_DEFAULT_PAGES
00001688  11 1C 10 00 00 00 00 00... store.l r3, (r2)
00001690  01 1D 00 00 20 00 00 00... move.l  r3, #QUOTA_DEFAULT_PORTS
00001698  11 1D 10 00 04 00 00 00... store.l r3, 4(r2)
000016A0  01 1D 00 00 10 00 00 00... move.l  r3, #QUOTA_DEFAULT_WAITERS
000016A8  11 1D 10 00 08 00 00 00... store.l r3, 8(r2)
000016B0  01 1D 00 00 00 08 00 00... move.l  r3, #QUOTA_DEFAULT_SHMEM
000016B8  11 1D 10 00 0C 00 00 00... store.l r3, 12(r2)
000016C0  01 1D 00 00 00 02 00 00... move.l  r3, #QUOTA_DEFAULT_GRANTS
000016C8  11 1D 10 00 10 00 00 00... store.l r3, 16(r2)
000016D0  01 15 00 00 00 D0 07 00... move.l  r2, #KERN_PAGE_TABLE
000016D8  01 25 00 00 00 12 00 00... move.l  r4, #ALLOC_POOL_BASE
000016E0  01 35 00 00 00 12 00 00... move.l  r6, #ALLOC_POOL_BASE
000016E8  01 3D 00 00 00 0E 00 00... move.l  r7, #ALLOC_POOL_PAGES
000016F0  20 36 30 38 00 00 00 00... add     r6, r6, r7
                         .kern_pool_map:
000016F8  34 1F 20 00 0D 00 00 00... lsl     r3, r4, #13
00001700  31 1F 18 00 07 00 00 00... or      r3, r3, #(PTE_P | PTE_R | PTE_W)
00001708  34 2F 20 00 03 00 00 00... lsl     r5, r4, #3
00001710  20 2E 28 10 00 00 00 00... add     r5, r5, r2
00001718  11 1E 28 00 00 00 00 00... store.q r3, (r5)
00001720  20 27 20 00 01 00 00 00... add     r4, r4, #1
00001728  43 06 20 30 D0 FF FF FF... blt     r4, r6, .kern_pool_map
00001730  01 0D 00 00 00 D0 07 00... move.l  r1, #KERN_PAGE_TABLE
00001738  E6 00 08 00 00 00 00 00... mtcr    cr0, r1
00001740  01 0D 00 00 0D 00 00 00... move.l  r1, #(MMU_CTRL_ENABLE | MMU_CTRL_SKEF | MMU_CTRL_SKAC)
00001748  E6 28 08 00 00 00 00 00... mtcr    cr5, r1
00001750  50 06 00 00 F0 36 00 00... jsr     kern_boot_manifest_prepare
00001758  42 06 10 00 38 02 00 00... bne r2, r0, .boot_load_fail
00001760  50 06 00 00 70 82 00 00... jsr     kern_create_exec_library_port
00001768  42 06 10 00 28 02 00 00... bne r2, r0, .boot_load_fail
00001770  01 ED 00 00 00 00 00 00... move.l  r29, #0
                         .boot_manifest_loop:
00001778  01 5D 00 00 02 00 00 00... move.l  r11, #KD_BOOT_MANIFEST_BOOT_COUNT
00001780  44 06 E8 58 08 02 00 00... bge     r29, r11, .boot_manifest_done
00001788  01 F5 00 00 00 D0 08 00... move.l  r30, #KERN_DATA_BASE
00001790  20 F7 F0 00 50 0B 01 00... add     r30, r30, #KD_BOOT_MANIFEST_BASE
00001798  01 5D 00 00 28 00 00 00... move.l  r11, #KD_BOOT_MANIFEST_STRIDE
000017A0  22 5E E8 58 00 00 00 00... mulu    r11, r29, r11
000017A8  20 F6 F0 58 00 00 00 00... add     r30, r30, r11
000017B0  10 5C F0 00 00 00 00 00... load.l  r11, KD_BOOT_MANIFEST_ID(r30)
000017B8  01 65 00 00 FF FF FF FF... move.l  r12, #0xFFFFFFFF
000017C0  41 06 58 60 C8 01 00 00... beq     r11, r12, .boot_manifest_done
000017C8  01 65 00 00 0A 00 00 00... move.l  r12, #BOOT_MANIFEST_ID_CONSOLE
000017D0  42 06 58 60 48 00 00 00... bne     r11, r12, .boot_manifest_check_dos
000017D8  01 0D 00 00 0C 00 00 00... move.l  r1, #(TASK_STARTUP_FLAG_BOOT | TASK_STARTUP_FLAG_TRUSTED_INTERNAL)
000017E0  52 06 E8 00 00 00 00 00... push    r29
000017E8  52 06 F0 00 00 00 00 00... push    r30
000017F0  50 06 00 00 20 39 00 00... jsr     kern_boot_load_host_console
000017F8  53 F6 00 00 00 00 00 00... pop     r30
00001800  53 EE 00 00 00 00 00 00... pop     r29
00001808  42 06 10 00 88 01 00 00... bne r2, r0, .boot_load_fail
00001810  40 06 00 00 D0 00 00 00... bra     .boot_manifest_launched
                         .boot_manifest_check_dos:
00001818  01 65 00 00 0B 00 00 00... move.l  r12, #BOOT_MANIFEST_ID_DOSLIB
00001820  42 06 58 60 48 00 00 00... bne     r11, r12, .boot_manifest_regular
00001828  01 0D 00 00 0C 00 00 00... move.l  r1, #(TASK_STARTUP_FLAG_BOOT | TASK_STARTUP_FLAG_TRUSTED_INTERNAL)
00001830  52 06 E8 00 00 00 00 00... push    r29
00001838  52 06 F0 00 00 00 00 00... push    r30
00001840  50 06 00 00 F8 38 00 00... jsr     kern_boot_load_host_doslib
00001848  53 F6 00 00 00 00 00 00... pop     r30
00001850  53 EE 00 00 00 00 00 00... pop     r29
00001858  42 06 10 00 38 01 00 00... bne r2, r0, .boot_load_fail
00001860  40 06 00 00 80 00 00 00... bra     .boot_manifest_launched
                         .boot_manifest_regular:
00001868  10 0F F0 00 08 00 00 00... load.q  r1, KD_BOOT_MANIFEST_PTR(r30)
00001870  41 06 08 00 20 01 00 00... beq r1, r0, .boot_load_fail
00001878  10 17 F0 00 10 00 00 00... load.q  r2, KD_BOOT_MANIFEST_SIZE(r30)
00001880  41 06 10 00 10 01 00 00... beq r2, r0, .boot_load_fail
00001888  01 1D 00 00 04 00 00 00... move.l  r3, #TASK_STARTUP_FLAG_BOOT
00001890  10 5D F0 00 04 00 00 00... load.l  r11, KD_BOOT_MANIFEST_FLAGS(r30)
00001898  30 5F 58 00 01 00 00 00... and     r11, r11, #BOOT_MANIFEST_FLAG_TRUSTED_INTERNAL
000018A0  41 06 58 00 10 00 00 00... beq r11, r0, .boot_manifest_regular_flags_ready
000018A8  31 1F 18 00 08 00 00 00... or      r3, r3, #TASK_STARTUP_FLAG_TRUSTED_INTERNAL
                         .boot_manifest_regular_flags_ready:
000018B0  52 06 E8 00 00 00 00 00... push    r29
000018B8  52 06 F0 00 00 00 00 00... push    r30
000018C0  50 06 00 00 00 46 00 00... jsr     boot_load_elf_image
000018C8  53 F6 00 00 00 00 00 00... pop     r30
000018D0  53 EE 00 00 00 00 00 00... pop     r29
000018D8  42 06 10 00 B8 00 00 00... bne r2, r0, .boot_load_fail
                         .boot_manifest_launched:
000018E0  01 96 18 00 00 00 00 00... move.q  r18, r3
000018E8  10 5C F0 00 00 00 00 00... load.l  r11, KD_BOOT_MANIFEST_ID(r30)
000018F0  01 65 00 00 0B 00 00 00... move.l  r12, #BOOT_MANIFEST_ID_DOSLIB
000018F8  42 06 58 60 18 00 00 00... bne     r11, r12, .boot_manifest_after_launch
00001900  01 65 00 00 00 D0 08 00... move.l  r12, #KERN_DATA_BASE
00001908  11 0D 60 00 BC C0 00 00... store.l r1, KD_DOSLIB_PUBID(r12)
                         .boot_manifest_after_launch:
00001910  52 06 E8 00 00 00 00 00... push    r29
00001918  52 06 F0 00 00 00 00 00... push    r30
00001920  01 16 08 00 00 00 00 00... move.q  r2, r1
00001928  10 0C F0 00 00 00 00 00... load.l  r1, KD_BOOT_MANIFEST_ID(r30)
00001930  50 06 00 00 60 74 00 00... jsr     kern_bootstrap_grant_for_program
00001938  53 F6 00 00 00 00 00 00... pop     r30
00001940  53 EE 00 00 00 00 00 00... pop     r29
00001948  42 06 10 00 48 00 00 00... bne r2, r0, .boot_load_fail
00001950  10 5C F0 00 00 00 00 00... load.l  r11, KD_BOOT_MANIFEST_ID(r30)
00001958  01 65 00 00 0B 00 00 00... move.l  r12, #BOOT_MANIFEST_ID_DOSLIB
00001960  42 06 58 60 18 00 00 00... bne     r11, r12, .boot_manifest_next
00001968  01 0E 90 00 00 00 00 00... move.q  r1, r18
00001970  50 06 00 00 B8 43 00 00... jsr     kern_seed_dos_boot_shell_relpath_tasksb
                         .boot_manifest_next:
00001978  20 EF E8 00 01 00 00 00... add     r29, r29, #1
00001980  40 06 00 00 F8 FD FF FF... bra     .boot_manifest_loop
                         .boot_manifest_done:
00001988  40 06 00 00 20 00 00 00... bra     .boot_load_done
                         .boot_load_fail:
00001990  04 47 00 00 04 4A 01 00... lea r8, boot_fail_msg(r0)
00001998  50 06 00 00 F0 00 00 00... jsr     kern_puts
000019A0  E1 00 00 00 00 00 00 00... halt
                         .boot_load_done:
000019A8  04 E7 00 00 24 07 0F 00... lea r28, TERM_CTRL(r0)
000019B0  01 0D 00 00 01 00 00 00... move.l  r1, #1
000019B8  11 0C E0 00 00 00 00 00... store.l r1, (r28)
000019C0  01 0D 00 00 10 27 00 00... move.l  r1, #10000
000019C8  E6 48 08 00 00 00 00 00... mtcr    cr9, r1
000019D0  01 0D 00 00 10 27 00 00... move.l  r1, #10000
000019D8  E6 50 08 00 00 00 00 00... mtcr    cr10, r1
000019E0  01 0F 00 00 03 00 00 00... move.q  r1, #3
000019E8  E6 58 08 00 00 00 00 00... mtcr    cr11, r1
000019F0  01 65 00 00 00 D0 08 00... move.l  r12, #KERN_DATA_BASE
000019F8  10 0F 60 00 10 00 00 00... load.q  r1, KD_NUM_TASKS(r12)
00001A00  41 06 08 00 58 00 00 00... beq r1, r0, .boot_no_tasks
00001A08  01 7D 00 00 00 D0 08 00... move.l  r15, #KERN_DATA_BASE
00001A10  20 7F 78 00 40 00 00 00... add     r15, r15, #KD_TASK_BASE
00001A18  10 0F 78 00 08 00 00 00... load.q  r1, KD_TASK_USP(r15)
00001A20  E6 60 08 00 00 00 00 00... mtcr    cr12, r1
00001A28  10 0E 78 00 00 00 00 00... load.q  r1, KD_TASK_PC(r15)
00001A30  E6 18 08 00 00 00 00 00... mtcr    cr3, r1
00001A38  10 0F 60 00 20 20 00 00... load.q  r1, KD_PTBR_BASE(r12)
00001A40  E6 00 08 00 00 00 00 00... mtcr    cr0, r1
00001A48  E9 00 00 00 00 00 00 00... tlbflush
00001A50  E8 00 00 00 00 00 00 00... eret
                         .boot_no_tasks:
00001A58  04 47 00 00 E8 49 01 00... lea r8, no_tasks_msg(r0)
00001A60  50 06 00 00 28 00 00 00... jsr     kern_puts
00001A68  E1 00 00 00 00 00 00 00... halt
                         kern_put_char:
00001A70  04 E7 00 00 00 07 0F 00... lea r28, TERM_OUT(r0)
00001A78  11 40 E0 00 00 00 00 00... store.b r8, (r28)
00001A80  51 00 00 00 00 00 00 00... rts
                         kern_puts:
00001A88  52 06 A0 00 00 00 00 00... push    r20
00001A90  01 A6 40 00 00 00 00 00... move.q  r20, r8
                         .puts_loop:
00001A98  10 40 A0 00 00 00 00 00... load.b  r8, (r20)
00001AA0  41 06 40 00 20 00 00 00... beq r8, r0, .puts_done
00001AA8  50 06 00 00 C8 FF FF FF... jsr     kern_put_char
00001AB0  20 A7 A0 00 01 00 00 00... add     r20, r20, #1
00001AB8  40 06 00 00 E0 FF FF FF... bra     .puts_loop
                         .puts_done:
00001AC0  53 A6 00 00 00 00 00 00... pop     r20
00001AC8  51 00 00 00 00 00 00 00... rts
                         kern_put_hex:
00001AD0  52 06 A0 00 00 00 00 00... push    r20
00001AD8  52 06 A8 00 00 00 00 00... push    r21
00001AE0  52 06 B0 00 00 00 00 00... push    r22
00001AE8  04 E7 00 00 00 07 0F 00... lea r28, TERM_OUT(r0)
00001AF0  01 A6 40 00 00 00 00 00... move.q  r20, r8
00001AF8  01 AF 00 00 3C 00 00 00... move.q  r21, #60
                         .hex_loop:
00001B00  35 B6 A0 A8 00 00 00 00... lsr     r22, r20, r21
00001B08  30 B7 B0 00 0F 00 00 00... and     r22, r22, #0x0F
00001B10  01 EF 00 00 0A 00 00 00... move.q  r29, #10
00001B18  43 06 B0 E8 18 00 00 00... blt     r22, r29, .hex_digit
00001B20  20 B7 B0 00 37 00 00 00... add     r22, r22, #55
00001B28  40 06 00 00 10 00 00 00... bra     .hex_emit
                         .hex_digit:
00001B30  20 B7 B0 00 30 00 00 00... add     r22, r22, #48
                         .hex_emit:
00001B38  11 B0 E0 00 00 00 00 00... store.b r22, (r28)
00001B40  21 AF A8 00 04 00 00 00... sub     r21, r21, #4
00001B48  01 EF 00 00 00 00 00 00... move.q  r29, #0
00001B50  44 06 A8 E8 B0 FF FF FF... bge     r21, r29, .hex_loop
00001B58  53 B6 00 00 00 00 00 00... pop     r22
00001B60  53 AE 00 00 00 00 00 00... pop     r21
00001B68  53 A6 00 00 00 00 00 00... pop     r20
00001B70  51 00 00 00 00 00 00 00... rts
                         find_next_runnable:
00001B78  01 86 68 00 00 00 00 00... move.q  r16, r13
00001B80  01 8D 00 00 00 00 00 00... move.l  r17, #0
00001B88  20 6F 68 00 01 00 00 00... add     r13, r13, #1
00001B90  01 95 00 00 FF 00 00 00... move.l  r18, #MAX_TASKS
00001B98  43 06 68 90 10 00 00 00... blt     r13, r18, .fnr_check
00001BA0  01 6D 00 00 00 00 00 00... move.l  r13, #0
                         .fnr_check:
00001BA8  34 9F 68 00 05 00 00 00... lsl     r19, r13, #5
00001BB0  20 9F 98 00 40 00 00 00... add     r19, r19, #KD_TASK_BASE
00001BB8  20 9E 98 60 00 00 00 00... add     r19, r19, r12
00001BC0  10 A1 98 00 1C 00 00 00... load.b  r20, KD_TASK_STATE(r19)
00001BC8  01 AD 00 00 02 00 00 00... move.l  r21, #TASK_WAITING
00001BD0  41 06 A0 A8 20 00 00 00... beq     r20, r21, .fnr_next
00001BD8  01 AD 00 00 03 00 00 00... move.l  r21, #TASK_FREE
00001BE0  41 06 A0 A8 10 00 00 00... beq     r20, r21, .fnr_next
00001BE8  51 00 00 00 00 00 00 00... rts
                         .fnr_next:
00001BF0  20 8F 88 00 01 00 00 00... add     r17, r17, #1
00001BF8  01 95 00 00 FF 00 00 00... move.l  r18, #MAX_TASKS
00001C00  44 06 88 90 30 00 00 00... bge     r17, r18, .fnr_deadlock
00001C08  20 6F 68 00 01 00 00 00... add     r13, r13, #1
00001C10  01 95 00 00 FF 00 00 00... move.l  r18, #MAX_TASKS
00001C18  43 06 68 90 90 FF FF FF... blt     r13, r18, .fnr_check
00001C20  01 6D 00 00 00 00 00 00... move.l  r13, #0
00001C28  40 06 00 00 80 FF FF FF... bra     .fnr_check
                         .fnr_deadlock:
00001C30  52 06 80 00 00 00 00 00... push    r16
00001C38  50 06 00 00 30 FE 00 00... jsr     m16_module_has_pending_deadline
00001C40  53 86 00 00 00 00 00 00... pop     r16
00001C48  42 06 08 00 20 00 00 00... bne r1, r0, .fnr_idle
00001C50  04 47 00 00 CC 48 01 00... lea r8, deadlock_msg(r0)
00001C58  50 06 00 00 30 FE FF FF... jsr     kern_puts
00001C60  E1 00 00 00 00 00 00 00... halt
                         .fnr_idle:
00001C68  10 5F 60 00 08 00 00 00... load.q  r11, KD_TICK_COUNT(r12)
00001C70  20 5F 58 00 01 00 00 00... add     r11, r11, #1
00001C78  11 5F 60 00 08 00 00 00... store.q r11, KD_TICK_COUNT(r12)
00001C80  52 06 80 00 00 00 00 00... push    r16
00001C88  50 06 00 00 30 12 01 00... jsr     m16_module_timeout_scan
00001C90  53 86 00 00 00 00 00 00... pop     r16
00001C98  01 6E 80 00 00 00 00 00... move.q  r13, r16
00001CA0  01 8D 00 00 00 00 00 00... move.l  r17, #0
00001CA8  20 6F 68 00 01 00 00 00... add     r13, r13, #1
00001CB0  01 95 00 00 FF 00 00 00... move.l  r18, #MAX_TASKS
00001CB8  43 06 68 90 F0 FE FF FF... blt     r13, r18, .fnr_check
00001CC0  01 6D 00 00 00 00 00 00... move.l  r13, #0
00001CC8  40 06 00 00 E0 FE FF FF... bra     .fnr_check
                         build_user_pt:
00001CD0  52 06 50 00 00 00 00 00... push    r10
00001CD8  52 06 48 00 00 00 00 00... push    r9
00001CE0  52 06 58 00 00 00 00 00... push    r11
00001CE8  01 3D 00 00 00 00 01 00... move.l  r7, #USER_SLOT_STRIDE
00001CF0  22 3E 50 38 00 00 00 00... mulu    r7, r10, r7
00001CF8  20 3F 38 00 00 00 80 00... add     r7, r7, #USER_PT_BASE
00001D00  01 15 00 00 00 D0 07 00... move.l  r2, #KERN_PAGE_TABLE
00001D08  01 25 00 00 00 00 00 00... move.l  r4, #0
                         .bup_copy_kern:
00001D10  01 35 00 00 80 01 00 00... move.l  r6, #KERN_PAGES
00001D18  44 06 20 30 40 00 00 00... bge     r4, r6, .bup_copy_pool
00001D20  34 2F 20 00 03 00 00 00... lsl     r5, r4, #3
00001D28  20 46 28 10 00 00 00 00... add     r8, r5, r2
00001D30  10 1E 40 00 00 00 00 00... load.q  r3, (r8)
00001D38  20 4E 28 38 00 00 00 00... add     r9, r5, r7
00001D40  11 1E 48 00 00 00 00 00... store.q r3, (r9)
00001D48  20 27 20 00 01 00 00 00... add     r4, r4, #1
00001D50  40 06 00 00 C0 FF FF FF... bra     .bup_copy_kern
                         .bup_copy_pool:
00001D58  01 25 00 00 00 12 00 00... move.l  r4, #ALLOC_POOL_BASE
00001D60  01 35 00 00 00 0E 00 00... move.l  r6, #ALLOC_POOL_PAGES
00001D68  20 36 30 20 00 00 00 00... add     r6, r6, r4
                         .bup_copy_pool_loop:
00001D70  44 06 20 30 40 00 00 00... bge     r4, r6, .bup_copy_user
00001D78  34 2F 20 00 03 00 00 00... lsl     r5, r4, #3
00001D80  20 46 28 10 00 00 00 00... add     r8, r5, r2
00001D88  10 1E 40 00 00 00 00 00... load.q  r3, (r8)
00001D90  20 4E 28 38 00 00 00 00... add     r9, r5, r7
00001D98  11 1E 48 00 00 00 00 00... store.q r3, (r9)
00001DA0  20 27 20 00 01 00 00 00... add     r4, r4, #1
00001DA8  40 06 00 00 C8 FF FF FF... bra     .bup_copy_pool_loop
                         .bup_copy_user:
00001DB0  01 25 00 00 00 06 00 00... move.l  r4, #USER_CODE_VPN_BASE
00001DB8  01 35 00 00 00 06 00 00... move.l  r6, #USER_CODE_VPN_BASE
00001DC0  01 4D 00 00 FF 00 00 00... move.l  r9, #MAX_TASKS
00001DC8  01 45 00 00 10 00 00 00... move.l  r8, #USER_VPN_STRIDE
00001DD0  22 4E 48 40 00 00 00 00... mulu    r9, r9, r8
00001DD8  20 36 30 48 00 00 00 00... add     r6, r6, r9
                         .bup_copy_user_loop:
00001DE0  44 06 20 30 40 00 00 00... bge     r4, r6, .bup_copy_userpt
00001DE8  34 2F 20 00 03 00 00 00... lsl     r5, r4, #3
00001DF0  20 46 28 10 00 00 00 00... add     r8, r5, r2
00001DF8  10 1E 40 00 00 00 00 00... load.q  r3, (r8)
00001E00  20 4E 28 38 00 00 00 00... add     r9, r5, r7
00001E08  11 1E 48 00 00 00 00 00... store.q r3, (r9)
00001E10  20 27 20 00 01 00 00 00... add     r4, r4, #1
00001E18  40 06 00 00 C8 FF FF FF... bra     .bup_copy_user_loop
                         .bup_copy_userpt:
00001E20  01 25 00 00 00 08 00 00... move.l  r4, #USER_PT_PAGE_BASE
00001E28  01 35 00 00 00 0A 00 00... move.l  r6, #USER_PT_PAGE_END
                         .bup_copy_userpt_loop:
00001E30  44 06 20 30 40 00 00 00... bge     r4, r6, .bup_add_user_pages
00001E38  34 2F 20 00 03 00 00 00... lsl     r5, r4, #3
00001E40  20 46 28 10 00 00 00 00... add     r8, r5, r2
00001E48  10 1E 40 00 00 00 00 00... load.q  r3, (r8)
00001E50  20 4E 28 38 00 00 00 00... add     r9, r5, r7
00001E58  11 1E 48 00 00 00 00 00... store.q r3, (r9)
00001E60  20 27 20 00 01 00 00 00... add     r4, r4, #1
00001E68  40 06 00 00 C8 FF FF FF... bra     .bup_copy_userpt_loop
                         .bup_add_user_pages:
00001E70  53 5E 00 00 00 00 00 00... pop     r11
00001E78  53 4E 00 00 00 00 00 00... pop     r9
00001E80  53 56 00 00 00 00 00 00... pop     r10
00001E88  01 45 00 00 10 00 00 00... move.l  r8, #USER_VPN_STRIDE
00001E90  22 46 50 40 00 00 00 00... mulu    r8, r10, r8
00001E98  20 47 40 00 00 06 00 00... add     r8, r8, #USER_CODE_VPN_BASE
00001EA0  01 25 00 00 00 00 00 00... move.l  r4, #0
                         .bup_code_loop:
00001EA8  44 06 20 48 48 00 00 00... bge     r4, r9, .bup_code_done
00001EB0  20 36 40 20 00 00 00 00... add     r6, r8, r4
00001EB8  34 1F 30 00 0D 00 00 00... lsl     r3, r6, #13
00001EC0  31 1F 18 00 1B 00 00 00... or      r3, r3, #(PTE_P | PTE_R | PTE_X | PTE_U)
00001EC8  34 2F 30 00 03 00 00 00... lsl     r5, r6, #3
00001ED0  20 2E 28 38 00 00 00 00... add     r5, r5, r7
00001ED8  11 1E 28 00 00 00 00 00... store.q r3, (r5)
00001EE0  20 27 20 00 01 00 00 00... add     r4, r4, #1
00001EE8  40 06 00 00 C0 FF FF FF... bra     .bup_code_loop
                         .bup_code_done:
00001EF0  20 36 40 48 00 00 00 00... add     r6, r8, r9
00001EF8  34 1F 30 00 0D 00 00 00... lsl     r3, r6, #13
00001F00  31 1F 18 00 17 00 00 00... or      r3, r3, #(PTE_P | PTE_R | PTE_W | PTE_U)
00001F08  34 2F 30 00 03 00 00 00... lsl     r5, r6, #3
00001F10  20 2E 28 38 00 00 00 00... add     r5, r5, r7
00001F18  11 1E 28 00 00 00 00 00... store.q r3, (r5)
00001F20  20 36 40 48 00 00 00 00... add     r6, r8, r9
00001F28  20 37 30 00 01 00 00 00... add     r6, r6, #1
00001F30  01 25 00 00 00 00 00 00... move.l  r4, #0
                         .bup_data_loop:
00001F38  44 06 20 58 48 00 00 00... bge     r4, r11, .bup_data_done
00001F40  20 16 30 20 00 00 00 00... add     r2, r6, r4
00001F48  34 1F 10 00 0D 00 00 00... lsl     r3, r2, #13
00001F50  31 1F 18 00 17 00 00 00... or      r3, r3, #(PTE_P | PTE_R | PTE_W | PTE_U)
00001F58  34 2F 10 00 03 00 00 00... lsl     r5, r2, #3
00001F60  20 2E 28 38 00 00 00 00... add     r5, r5, r7
00001F68  11 1E 28 00 00 00 00 00... store.q r3, (r5)
00001F70  20 27 20 00 01 00 00 00... add     r4, r4, #1
00001F78  40 06 00 00 C0 FF FF FF... bra     .bup_data_loop
                         .bup_data_done:
00001F80  51 00 00 00 00 00 00 00... rts
                         write_startup_block:
00001F88  11 06 08 00 00 00 00 00... store.q r0, (r1)
00001F90  11 07 08 00 08 00 00 00... store.q r0, 8(r1)
00001F98  11 07 08 00 10 00 00 00... store.q r0, 16(r1)
00001FA0  11 07 08 00 18 00 00 00... store.q r0, 24(r1)
00001FA8  11 07 08 00 20 00 00 00... store.q r0, 32(r1)
00001FB0  11 07 08 00 28 00 00 00... store.q r0, 40(r1)
00001FB8  11 07 08 00 30 00 00 00... store.q r0, 48(r1)
00001FC0  11 07 08 00 38 00 00 00... store.q r0, 56(r1)
00001FC8  11 07 08 00 40 00 00 00... store.q r0, 64(r1)
00001FD0  11 07 08 00 48 00 00 00... store.q r0, 72(r1)
00001FD8  11 07 08 00 50 00 00 00... store.q r0, 80(r1)
00001FE0  11 07 08 00 58 00 00 00... store.q r0, 88(r1)
00001FE8  01 55 00 00 01 00 00 00... move.l  r10, #TASK_STARTUP_VERSION
00001FF0  11 54 08 00 00 00 00 00... store.l r10, TASKSB_VERSION(r1)
00001FF8  01 55 00 00 60 00 00 00... move.l  r10, #TASK_STARTUP_SIZE
00002000  11 55 08 00 04 00 00 00... store.l r10, TASKSB_SIZE(r1)
00002008  11 15 08 00 08 00 00 00... store.l r2, TASKSB_TASK_ID(r1)
00002010  11 1D 08 00 0C 00 00 00... store.l r3, TASKSB_FLAGS(r1)
00002018  11 27 08 00 10 00 00 00... store.q r4, TASKSB_CODE_BASE(r1)
00002020  11 2D 08 00 18 00 00 00... store.l r5, TASKSB_CODE_PAGES(r1)
00002028  11 47 08 00 20 00 00 00... store.q r8, TASKSB_DATA_BASE(r1)
00002030  11 4D 08 00 28 00 00 00... store.l r9, TASKSB_DATA_PAGES(r1)
00002038  11 37 08 00 30 00 00 00... store.q r6, TASKSB_STACK_BASE(r1)
00002040  11 3D 08 00 38 00 00 00... store.l r7, TASKSB_STACK_PAGES(r1)
00002048  51 00 00 00 00 00 00 00... rts
                         kern_task_layout_addr:
00002050  01 1D 00 00 00 D0 08 00... move.l  r3, #KERN_DATA_BASE
00002058  20 1F 18 00 D0 C8 00 00... add     r3, r3, #KD_TASK_LAYOUT_BASE
00002060  01 25 00 00 38 00 00 00... move.l  r4, #KD_TASK_LAYOUT_STRIDE
00002068  22 26 08 20 00 00 00 00... mulu    r4, r1, r4
00002070  20 0E 18 20 00 00 00 00... add     r1, r3, r4
00002078  51 00 00 00 00 00 00 00... rts
                         kern_task_pubid_addr:
00002080  01 1D 00 00 00 D0 08 00... move.l  r3, #KERN_DATA_BASE
00002088  20 1F 18 00 18 01 01 00... add     r3, r3, #KD_TASK_PUBID_BASE
00002090  01 25 00 00 04 00 00 00... move.l  r4, #KD_TASK_PUBID_STRIDE
00002098  22 26 08 20 00 00 00 00... mulu    r4, r1, r4
000020A0  20 0E 18 20 00 00 00 00... add     r1, r3, r4
000020A8  51 00 00 00 00 00 00 00... rts
                         kern_current_public_task_id:
000020B0  01 1D 00 00 00 D0 08 00... move.l  r3, #KERN_DATA_BASE
000020B8  10 0E 18 00 00 00 00 00... load.q  r1, KD_CURRENT_TASK(r3)
000020C0  50 06 00 00 C0 FF FF FF... jsr     kern_task_pubid_addr
000020C8  10 0C 08 00 00 00 00 00... load.l  r1, (r1)
000020D0  51 00 00 00 00 00 00 00... rts
                         kern_find_slot_for_public_id:
000020D8  01 36 08 00 00 00 00 00... move.q  r6, r1
000020E0  01 1D 00 00 00 00 00 00... move.l  r3, #0
                         .kfspid_scan:
000020E8  01 25 00 00 FF 00 00 00... move.l  r4, #MAX_TASKS
000020F0  44 06 18 20 98 00 00 00... bge     r3, r4, .kfspid_notfound
000020F8  01 25 00 00 00 D0 08 00... move.l  r4, #KERN_DATA_BASE
00002100  34 2F 18 00 05 00 00 00... lsl     r5, r3, #5
00002108  20 2F 28 00 40 00 00 00... add     r5, r5, #KD_TASK_BASE
00002110  20 2E 28 20 00 00 00 00... add     r5, r5, r4
00002118  10 39 28 00 1C 00 00 00... load.b  r7, KD_TASK_STATE(r5)
00002120  01 45 00 00 03 00 00 00... move.l  r8, #TASK_FREE
00002128  41 06 38 40 38 00 00 00... beq     r7, r8, .kfspid_next
00002130  52 06 18 00 00 00 00 00... push    r3
00002138  01 0E 18 00 00 00 00 00... move.q  r1, r3
00002140  50 06 00 00 40 FF FF FF... jsr     kern_task_pubid_addr
00002148  10 3C 08 00 00 00 00 00... load.l  r7, (r1)
00002150  53 1E 00 00 00 00 00 00... pop     r3
00002158  41 06 38 30 18 00 00 00... beq     r7, r6, .kfspid_found
                         .kfspid_next:
00002160  20 1F 18 00 01 00 00 00... add     r3, r3, #1
00002168  40 06 00 00 80 FF FF FF... bra     .kfspid_scan
                         .kfspid_found:
00002170  01 0E 18 00 00 00 00 00... move.q  r1, r3
00002178  01 17 00 00 01 00 00 00... move.q  r2, #1
00002180  51 00 00 00 00 00 00 00... rts
                         .kfspid_notfound:
00002188  01 0F 00 00 00 00 00 00... move.q  r1, #0
00002190  01 17 00 00 00 00 00 00... move.q  r2, #0
00002198  51 00 00 00 00 00 00 00... rts
                         kern_aslr_next_base:
000021A0  01 2D 00 00 00 D0 08 00... move.l  r5, #KERN_DATA_BASE
000021A8  10 0F 28 00 20 05 01 00... load.q  r1, KD_ASLR_STATE(r5)
000021B0  01 15 00 00 0D 66 19 00... move.l  r2, #1664525
000021B8  22 0E 08 10 00 00 00 00... mulu    r1, r1, r2
000021C0  20 0F 08 00 5F F3 6E 3C... add     r1, r1, #1013904223
000021C8  11 0F 28 00 20 05 01 00... store.q r1, KD_ASLR_STATE(r5)
000021D0  35 1F 08 00 10 00 00 00... lsr     r3, r1, #16
000021D8  30 1F 18 00 FF 00 00 00... and     r3, r3, #0xFF
000021E0  34 1F 18 00 0C 00 00 00... lsl     r3, r3, #12
000021E8  20 0F 18 00 00 00 60 00... add     r1, r3, #USER_IMAGE_BASE
000021F0  51 00 00 00 00 00 00 00... rts
                         kern_aslr_choose_image_base:
000021F8  01 66 08 00 00 00 00 00... move.q  r12, r1
00002200  41 06 60 00 F0 00 00 00... beq r12, r0, .kaslrci_nomem
00002208  01 35 00 00 10 00 00 00... move.l  r6, #16
                         .kaslrci_retry:
00002210  41 06 30 00 E0 00 00 00... beq r6, r0, .kaslrci_nomem
00002218  21 37 30 00 01 00 00 00... sub     r6, r6, #1
00002220  50 06 00 00 80 FF FF FF... jsr     kern_aslr_next_base
00002228  01 3E 08 00 00 00 00 00... move.q  r7, r1
00002230  01 45 00 00 00 00 60 00... move.l  r8, #USER_IMAGE_BASE
00002238  43 06 38 40 98 00 00 00... blt     r7, r8, .kaslrci_collision
00002240  21 46 38 40 00 00 00 00... sub     r8, r7, r8
00002248  35 47 40 00 0C 00 00 00... lsr     r8, r8, #12
00002250  20 4E 40 60 00 00 00 00... add     r9, r8, r12
00002258  01 55 00 00 00 02 00 00... move.l  r10, #USER_IMAGE_PAGES
00002260  45 06 48 50 70 00 00 00... bgt     r9, r10, .kaslrci_collision
00002268  01 55 00 00 00 D0 08 00... move.l  r10, #KERN_DATA_BASE
00002270  20 57 50 00 98 00 01 00... add     r10, r10, #KD_TASK_IMG_BITMAP
00002278  01 5E 40 00 00 00 00 00... move.q  r11, r8
                         .kaslrci_check:
00002280  44 06 58 48 58 00 00 00... bge     r11, r9, .kaslrci_ok
00002288  35 1F 58 00 03 00 00 00... lsr     r3, r11, #3
00002290  20 1E 18 50 00 00 00 00... add     r3, r3, r10
00002298  10 20 18 00 00 00 00 00... load.b  r4, (r3)
000022A0  30 2F 58 00 07 00 00 00... and     r5, r11, #7
000022A8  35 26 20 28 00 00 00 00... lsr     r4, r4, r5
000022B0  30 27 20 00 01 00 00 00... and     r4, r4, #1
000022B8  42 06 20 00 18 00 00 00... bne r4, r0, .kaslrci_collision
000022C0  20 5F 58 00 01 00 00 00... add     r11, r11, #1
000022C8  40 06 00 00 B8 FF FF FF... bra     .kaslrci_check
                         .kaslrci_collision:
000022D0  40 06 00 00 40 FF FF FF... bra     .kaslrci_retry
                         .kaslrci_ok:
000022D8  01 0E 38 00 00 00 00 00... move.q  r1, r7
000022E0  01 17 00 00 00 00 00 00... move.q  r2, #ERR_OK
000022E8  51 00 00 00 00 00 00 00... rts
                         .kaslrci_nomem:
000022F0  01 0E 00 00 00 00 00 00... move.q  r1, r0
000022F8  01 17 00 00 01 00 00 00... move.q  r2, #ERR_NOMEM
00002300  51 00 00 00 00 00 00 00... rts
                         alloc_task_image_pages:
00002308  01 1D 00 00 00 D0 08 00... move.l  r3, #KERN_DATA_BASE
00002310  20 1F 18 00 98 00 01 00... add     r3, r3, #KD_TASK_IMG_BITMAP
00002318  01 25 00 00 00 00 00 00... move.l  r4, #0
00002320  01 2D 00 00 00 02 00 00... move.l  r5, #USER_IMAGE_PAGES
                         .atip_scan:
00002328  44 06 20 28 48 01 00 00... bge     r4, r5, .atip_fail
00002330  01 36 20 00 00 00 00 00... move.q  r6, r4
00002338  01 3E 20 00 00 00 00 00... move.q  r7, r4
00002340  20 46 20 08 00 00 00 00... add     r8, r4, r1
00002348  45 06 40 28 28 01 00 00... bgt     r8, r5, .atip_fail
                         .atip_check_bit:
00002350  44 06 38 40 60 00 00 00... bge     r7, r8, .atip_found
00002358  35 4F 38 00 03 00 00 00... lsr     r9, r7, #3
00002360  20 4E 48 18 00 00 00 00... add     r9, r9, r3
00002368  10 48 48 00 00 00 00 00... load.b  r9, (r9)
00002370  30 57 38 00 07 00 00 00... and     r10, r7, #7
00002378  35 4E 48 50 00 00 00 00... lsr     r9, r9, r10
00002380  30 4F 48 00 01 00 00 00... and     r9, r9, #1
00002388  42 06 48 00 18 00 00 00... bne r9, r0, .atip_next
00002390  20 3F 38 00 01 00 00 00... add     r7, r7, #1
00002398  40 06 00 00 B8 FF FF FF... bra     .atip_check_bit
                         .atip_next:
000023A0  20 27 38 00 01 00 00 00... add     r4, r7, #1
000023A8  40 06 00 00 80 FF FF FF... bra     .atip_scan
                         .atip_found:
000023B0  01 3E 30 00 00 00 00 00... move.q  r7, r6
                         .atip_mark:
000023B8  44 06 38 40 58 00 00 00... bge     r7, r8, .atip_ret
000023C0  35 4F 38 00 03 00 00 00... lsr     r9, r7, #3
000023C8  20 4E 48 18 00 00 00 00... add     r9, r9, r3
000023D0  10 50 48 00 00 00 00 00... load.b  r10, (r9)
000023D8  30 5F 38 00 07 00 00 00... and     r11, r7, #7
000023E0  01 67 00 00 01 00 00 00... move.q  r12, #1
000023E8  34 66 60 58 00 00 00 00... lsl     r12, r12, r11
000023F0  31 56 50 60 00 00 00 00... or      r10, r10, r12
000023F8  11 50 48 00 00 00 00 00... store.b r10, (r9)
00002400  20 3F 38 00 01 00 00 00... add     r7, r7, #1
00002408  40 06 00 00 B0 FF FF FF... bra     .atip_mark
                         .atip_ret:
00002410  34 0F 30 00 0C 00 00 00... lsl     r1, r6, #12
00002418  20 0F 08 00 00 00 60 00... add     r1, r1, #USER_IMAGE_BASE
00002420  01 6E 08 00 00 00 00 00... move.q  r13, r1
00002428  21 7E 40 30 00 00 00 00... sub     r15, r8, r6
00002430  34 7F 78 00 0C 00 00 00... lsl     r15, r15, #12
00002438  20 7E 78 68 00 00 00 00... add     r15, r15, r13
                         .atip_zero:
00002440  44 06 68 78 20 00 00 00... bge     r13, r15, .atip_ok
00002448  11 06 68 00 00 00 00 00... store.q r0, (r13)
00002450  20 6F 68 00 08 00 00 00... add     r13, r13, #8
00002458  40 06 00 00 E8 FF FF FF... bra     .atip_zero
                         .atip_ok:
00002460  01 17 00 00 00 00 00 00... move.q  r2, #ERR_OK
00002468  51 00 00 00 00 00 00 00... rts
                         .atip_fail:
00002470  01 76 08 00 00 00 00 00... move.q  r14, r1
00002478  50 06 00 00 70 61 00 00... jsr     alloc_pages
00002480  42 06 10 00 50 00 00 00... bne r2, r0, .atip_fail_nomem
00002488  34 0F 08 00 0C 00 00 00... lsl     r1, r1, #12
00002490  01 6E 08 00 00 00 00 00... move.q  r13, r1
00002498  01 7E 08 00 00 00 00 00... move.q  r15, r1
000024A0  34 77 70 00 0C 00 00 00... lsl     r14, r14, #12
000024A8  20 7E 78 70 00 00 00 00... add     r15, r15, r14
                         .atip_zero_pool:
000024B0  44 06 68 78 B0 FF FF FF... bge     r13, r15, .atip_ok
000024B8  11 06 68 00 00 00 00 00... store.q r0, (r13)
000024C0  20 6F 68 00 08 00 00 00... add     r13, r13, #8
000024C8  40 06 00 00 E8 FF FF FF... bra     .atip_zero_pool
                         .atip_fail_nomem:
000024D0  01 0E 00 00 00 00 00 00... move.q  r1, r0
000024D8  01 17 00 00 01 00 00 00... move.q  r2, #ERR_NOMEM
000024E0  51 00 00 00 00 00 00 00... rts
                         alloc_task_image_pages_exact:
000024E8  41 06 10 00 A0 01 00 00... beq r2, r0, .atipe_badarg
000024F0  01 1D 00 00 FF 0F 00 00... move.l  r3, #0xFFF
000024F8  30 26 08 18 00 00 00 00... and     r4, r1, r3
00002500  42 06 20 00 88 01 00 00... bne r4, r0, .atipe_badarg
00002508  01 1D 00 00 00 00 60 00... move.l  r3, #USER_IMAGE_BASE
00002510  43 06 08 18 78 01 00 00... blt     r1, r3, .atipe_badarg
00002518  01 1D 00 00 00 00 80 00... move.l  r3, #USER_IMAGE_END
00002520  44 06 08 18 68 01 00 00... bge     r1, r3, .atipe_badarg
00002528  01 26 08 00 00 00 00 00... move.q  r4, r1
00002530  21 27 20 00 00 00 60 00... sub     r4, r4, #USER_IMAGE_BASE
00002538  35 27 20 00 0C 00 00 00... lsr     r4, r4, #12
00002540  20 2E 20 10 00 00 00 00... add     r5, r4, r2
00002548  01 35 00 00 00 02 00 00... move.l  r6, #USER_IMAGE_PAGES
00002550  45 06 28 30 38 01 00 00... bgt     r5, r6, .atipe_badarg
00002558  01 1D 00 00 00 D0 08 00... move.l  r3, #KERN_DATA_BASE
00002560  20 1F 18 00 98 00 01 00... add     r3, r3, #KD_TASK_IMG_BITMAP
00002568  01 36 20 00 00 00 00 00... move.q  r6, r4
                         .atipe_check:
00002570  44 06 30 28 50 00 00 00... bge     r6, r5, .atipe_mark
00002578  35 3F 30 00 03 00 00 00... lsr     r7, r6, #3
00002580  20 3E 38 18 00 00 00 00... add     r7, r7, r3
00002588  10 40 38 00 00 00 00 00... load.b  r8, (r7)
00002590  30 4F 30 00 07 00 00 00... and     r9, r6, #7
00002598  35 46 40 48 00 00 00 00... lsr     r8, r8, r9
000025A0  30 47 40 00 01 00 00 00... and     r8, r8, #1
000025A8  42 06 40 00 C8 00 00 00... bne r8, r0, .atipe_nomem
000025B0  20 37 30 00 01 00 00 00... add     r6, r6, #1
000025B8  40 06 00 00 B8 FF FF FF... bra     .atipe_check
                         .atipe_mark:
000025C0  01 36 20 00 00 00 00 00... move.q  r6, r4
                         .atipe_mark_loop:
000025C8  44 06 30 28 58 00 00 00... bge     r6, r5, .atipe_zero
000025D0  35 3F 30 00 03 00 00 00... lsr     r7, r6, #3
000025D8  20 3E 38 18 00 00 00 00... add     r7, r7, r3
000025E0  10 40 38 00 00 00 00 00... load.b  r8, (r7)
000025E8  30 4F 30 00 07 00 00 00... and     r9, r6, #7
000025F0  01 57 00 00 01 00 00 00... move.q  r10, #1
000025F8  34 56 50 48 00 00 00 00... lsl     r10, r10, r9
00002600  31 46 40 50 00 00 00 00... or      r8, r8, r10
00002608  11 40 38 00 00 00 00 00... store.b r8, (r7)
00002610  20 37 30 00 01 00 00 00... add     r6, r6, #1
00002618  40 06 00 00 B0 FF FF FF... bra     .atipe_mark_loop
                         .atipe_zero:
00002620  01 36 08 00 00 00 00 00... move.q  r6, r1
00002628  01 3E 10 00 00 00 00 00... move.q  r7, r2
00002630  34 3F 38 00 0C 00 00 00... lsl     r7, r7, #12
00002638  20 3E 38 30 00 00 00 00... add     r7, r7, r6
                         .atipe_zero_loop:
00002640  44 06 30 38 20 00 00 00... bge     r6, r7, .atipe_ok
00002648  11 06 30 00 00 00 00 00... store.q r0, (r6)
00002650  20 37 30 00 08 00 00 00... add     r6, r6, #8
00002658  40 06 00 00 E8 FF FF FF... bra     .atipe_zero_loop
                         .atipe_ok:
00002660  01 17 00 00 00 00 00 00... move.q  r2, #ERR_OK
00002668  51 00 00 00 00 00 00 00... rts
                         .atipe_nomem:
00002670  01 0E 00 00 00 00 00 00... move.q  r1, r0
00002678  01 17 00 00 01 00 00 00... move.q  r2, #ERR_NOMEM
00002680  51 00 00 00 00 00 00 00... rts
                         .atipe_badarg:
00002688  01 0E 00 00 00 00 00 00... move.q  r1, r0
00002690  01 17 00 00 03 00 00 00... move.q  r2, #ERR_BADARG
00002698  51 00 00 00 00 00 00 00... rts
                         free_task_image_pages:
000026A0  41 06 08 00 D8 00 00 00... beq r1, r0, .ftip_done
000026A8  41 06 10 00 D0 00 00 00... beq r2, r0, .ftip_done
000026B0  01 1D 00 00 00 00 60 00... move.l  r3, #USER_IMAGE_BASE
000026B8  43 06 08 18 18 00 00 00... blt     r1, r3, .ftip_pool
000026C0  01 1D 00 00 00 00 80 00... move.l  r3, #USER_IMAGE_END
000026C8  43 06 08 18 20 00 00 00... blt     r1, r3, .ftip_fixed
                         .ftip_pool:
000026D0  35 0F 08 00 0C 00 00 00... lsr     r1, r1, #12
000026D8  50 06 00 00 68 60 00 00... jsr     free_pages
000026E0  40 06 00 00 98 00 00 00... bra     .ftip_done
                         .ftip_fixed:
000026E8  21 1F 08 00 00 00 60 00... sub     r3, r1, #USER_IMAGE_BASE
000026F0  35 1F 18 00 0C 00 00 00... lsr     r3, r3, #12
000026F8  01 25 00 00 00 D0 08 00... move.l  r4, #KERN_DATA_BASE
00002700  20 27 20 00 98 00 01 00... add     r4, r4, #KD_TASK_IMG_BITMAP
00002708  01 2D 00 00 00 00 00 00... move.l  r5, #0
                         .ftip_loop:
00002710  44 06 28 10 68 00 00 00... bge     r5, r2, .ftip_done
00002718  20 36 18 28 00 00 00 00... add     r6, r3, r5
00002720  35 3F 30 00 03 00 00 00... lsr     r7, r6, #3
00002728  20 3E 38 20 00 00 00 00... add     r7, r7, r4
00002730  10 40 38 00 00 00 00 00... load.b  r8, (r7)
00002738  30 4F 30 00 07 00 00 00... and     r9, r6, #7
00002740  01 57 00 00 01 00 00 00... move.q  r10, #1
00002748  34 56 50 48 00 00 00 00... lsl     r10, r10, r9
00002750  33 56 50 00 00 00 00 00... not     r10, r10
00002758  30 46 40 50 00 00 00 00... and     r8, r8, r10
00002760  11 40 38 00 00 00 00 00... store.b r8, (r7)
00002768  20 2F 28 00 01 00 00 00... add     r5, r5, #1
00002770  40 06 00 00 A0 FF FF FF... bra     .ftip_loop
                         .ftip_done:
00002778  51 00 00 00 00 00 00 00... rts
                         alloc_task_pt_block:
00002780  01 0D 00 00 10 00 00 00... move.l  r1, #USER_PT_SLOT_PAGES
00002788  01 1D 00 00 00 D0 08 00... move.l  r3, #KERN_DATA_BASE
00002790  20 1F 18 00 D8 00 01 00... add     r3, r3, #KD_TASK_PT_BITMAP
00002798  01 25 00 00 00 00 00 00... move.l  r4, #0
000027A0  01 2D 00 00 00 02 00 00... move.l  r5, #USER_PT_REGION_PAGES
                         .atpt_scan:
000027A8  44 06 20 28 40 01 00 00... bge     r4, r5, .atpt_fail
000027B0  01 36 20 00 00 00 00 00... move.q  r6, r4
000027B8  01 3E 20 00 00 00 00 00... move.q  r7, r4
000027C0  20 46 20 08 00 00 00 00... add     r8, r4, r1
000027C8  45 06 40 28 20 01 00 00... bgt     r8, r5, .atpt_fail
                         .atpt_check_bit:
000027D0  44 06 38 40 60 00 00 00... bge     r7, r8, .atpt_found
000027D8  35 4F 38 00 03 00 00 00... lsr     r9, r7, #3
000027E0  20 4E 48 18 00 00 00 00... add     r9, r9, r3
000027E8  10 48 48 00 00 00 00 00... load.b  r9, (r9)
000027F0  30 57 38 00 07 00 00 00... and     r10, r7, #7
000027F8  35 4E 48 50 00 00 00 00... lsr     r9, r9, r10
00002800  30 4F 48 00 01 00 00 00... and     r9, r9, #1
00002808  42 06 48 00 18 00 00 00... bne r9, r0, .atpt_next
00002810  20 3F 38 00 01 00 00 00... add     r7, r7, #1
00002818  40 06 00 00 B8 FF FF FF... bra     .atpt_check_bit
                         .atpt_next:
00002820  20 27 38 00 01 00 00 00... add     r4, r7, #1
00002828  40 06 00 00 80 FF FF FF... bra     .atpt_scan
                         .atpt_found:
00002830  01 3E 30 00 00 00 00 00... move.q  r7, r6
                         .atpt_mark:
00002838  44 06 38 40 58 00 00 00... bge     r7, r8, .atpt_zero
00002840  35 4F 38 00 03 00 00 00... lsr     r9, r7, #3
00002848  20 4E 48 18 00 00 00 00... add     r9, r9, r3
00002850  10 50 48 00 00 00 00 00... load.b  r10, (r9)
00002858  30 5F 38 00 07 00 00 00... and     r11, r7, #7
00002860  01 67 00 00 01 00 00 00... move.q  r12, #1
00002868  34 66 60 58 00 00 00 00... lsl     r12, r12, r11
00002870  31 56 50 60 00 00 00 00... or      r10, r10, r12
00002878  11 50 48 00 00 00 00 00... store.b r10, (r9)
00002880  20 3F 38 00 01 00 00 00... add     r7, r7, #1
00002888  40 06 00 00 B0 FF FF FF... bra     .atpt_mark
                         .atpt_zero:
00002890  34 0F 30 00 0C 00 00 00... lsl     r1, r6, #12
00002898  20 0F 08 00 00 00 80 00... add     r1, r1, #USER_PT_BASE
000028A0  01 6E 08 00 00 00 00 00... move.q  r13, r1
000028A8  01 75 00 00 00 00 01 00... move.l  r14, #(USER_PT_SLOT_PAGES * MMU_PAGE_SIZE)
000028B0  20 76 70 68 00 00 00 00... add     r14, r14, r13
                         .atpt_zero_loop:
000028B8  44 06 68 70 20 00 00 00... bge     r13, r14, .atpt_ok
000028C0  11 06 68 00 00 00 00 00... store.q r0, (r13)
000028C8  20 6F 68 00 08 00 00 00... add     r13, r13, #8
000028D0  40 06 00 00 E8 FF FF FF... bra     .atpt_zero_loop
                         .atpt_ok:
000028D8  01 17 00 00 00 00 00 00... move.q  r2, #ERR_OK
000028E0  51 00 00 00 00 00 00 00... rts
                         .atpt_fail:
000028E8  01 0D 00 00 10 00 00 00... move.l  r1, #USER_PT_SLOT_PAGES
000028F0  50 06 00 00 F8 5C 00 00... jsr     alloc_pages
000028F8  42 06 10 00 48 00 00 00... bne r2, r0, .atpt_fail_nomem
00002900  34 0F 08 00 0C 00 00 00... lsl     r1, r1, #12
00002908  01 6E 08 00 00 00 00 00... move.q  r13, r1
00002910  01 75 00 00 00 00 01 00... move.l  r14, #(USER_PT_SLOT_PAGES * MMU_PAGE_SIZE)
00002918  20 76 70 68 00 00 00 00... add     r14, r14, r13
                         .atpt_zero_pool_loop:
00002920  44 06 68 70 B8 FF FF FF... bge     r13, r14, .atpt_ok
00002928  11 06 68 00 00 00 00 00... store.q r0, (r13)
00002930  20 6F 68 00 08 00 00 00... add     r13, r13, #8
00002938  40 06 00 00 E8 FF FF FF... bra     .atpt_zero_pool_loop
                         .atpt_fail_nomem:
00002940  01 0E 00 00 00 00 00 00... move.q  r1, r0
00002948  01 17 00 00 01 00 00 00... move.q  r2, #ERR_NOMEM
00002950  51 00 00 00 00 00 00 00... rts
                         free_task_pt_block:
00002958  41 06 08 00 E0 00 00 00... beq r1, r0, .ftpt_done
00002960  01 15 00 00 00 00 80 00... move.l  r2, #USER_PT_BASE
00002968  43 06 08 10 18 00 00 00... blt     r1, r2, .ftpt_pool
00002970  01 15 00 00 00 00 A0 00... move.l  r2, #USER_DYN_BASE
00002978  43 06 08 10 28 00 00 00... blt     r1, r2, .ftpt_fixed
                         .ftpt_pool:
00002980  35 0F 08 00 0C 00 00 00... lsr     r1, r1, #12
00002988  01 15 00 00 10 00 00 00... move.l  r2, #USER_PT_SLOT_PAGES
00002990  50 06 00 00 B0 5D 00 00... jsr     free_pages
00002998  40 06 00 00 A0 00 00 00... bra     .ftpt_done
                         .ftpt_fixed:
000029A0  21 1F 08 00 00 00 80 00... sub     r3, r1, #USER_PT_BASE
000029A8  35 1F 18 00 0C 00 00 00... lsr     r3, r3, #12
000029B0  01 25 00 00 00 D0 08 00... move.l  r4, #KERN_DATA_BASE
000029B8  20 27 20 00 D8 00 01 00... add     r4, r4, #KD_TASK_PT_BITMAP
000029C0  01 2D 00 00 00 00 00 00... move.l  r5, #0
                         .ftpt_loop:
000029C8  01 35 00 00 10 00 00 00... move.l  r6, #USER_PT_SLOT_PAGES
000029D0  44 06 28 30 68 00 00 00... bge     r5, r6, .ftpt_done
000029D8  20 36 18 28 00 00 00 00... add     r6, r3, r5
000029E0  35 3F 30 00 03 00 00 00... lsr     r7, r6, #3
000029E8  20 3E 38 20 00 00 00 00... add     r7, r7, r4
000029F0  10 40 38 00 00 00 00 00... load.b  r8, (r7)
000029F8  30 4F 30 00 07 00 00 00... and     r9, r6, #7
00002A00  01 57 00 00 01 00 00 00... move.q  r10, #1
00002A08  34 56 50 48 00 00 00 00... lsl     r10, r10, r9
00002A10  33 56 50 00 00 00 00 00... not     r10, r10
00002A18  30 46 40 50 00 00 00 00... and     r8, r8, r10
00002A20  11 40 38 00 00 00 00 00... store.b r8, (r7)
00002A28  20 2F 28 00 01 00 00 00... add     r5, r5, #1
00002A30  40 06 00 00 98 FF FF FF... bra     .ftpt_loop
                         .ftpt_done:
00002A38  51 00 00 00 00 00 00 00... rts
                         build_user_pt_dynamic:
00002A40  52 06 08 00 00 00 00 00... push    r1
00002A48  52 06 10 00 00 00 00 00... push    r2
00002A50  52 06 18 00 00 00 00 00... push    r3
00002A58  52 06 20 00 00 00 00 00... push    r4
00002A60  52 06 28 00 00 00 00 00... push    r5
00002A68  52 06 30 00 00 00 00 00... push    r6
00002A70  52 06 38 00 00 00 00 00... push    r7
00002A78  52 06 40 00 00 00 00 00... push    r8
00002A80  01 A6 08 00 00 00 00 00... move.q  r20, r1
00002A88  01 15 00 00 00 D0 07 00... move.l  r2, #KERN_PAGE_TABLE
00002A90  01 25 00 00 00 00 00 00... move.l  r4, #0
                         .bupd_copy_kern:
00002A98  01 35 00 00 80 01 00 00... move.l  r6, #KERN_PAGES
00002AA0  44 06 20 30 40 00 00 00... bge     r4, r6, .bupd_copy_pool
00002AA8  34 2F 20 00 03 00 00 00... lsl     r5, r4, #3
00002AB0  20 46 28 10 00 00 00 00... add     r8, r5, r2
00002AB8  10 1E 40 00 00 00 00 00... load.q  r3, (r8)
00002AC0  20 4E 28 A0 00 00 00 00... add     r9, r5, r20
00002AC8  11 1E 48 00 00 00 00 00... store.q r3, (r9)
00002AD0  20 27 20 00 01 00 00 00... add     r4, r4, #1
00002AD8  40 06 00 00 C0 FF FF FF... bra     .bupd_copy_kern
                         .bupd_copy_pool:
00002AE0  01 25 00 00 00 12 00 00... move.l  r4, #ALLOC_POOL_BASE
00002AE8  01 35 00 00 00 0E 00 00... move.l  r6, #ALLOC_POOL_PAGES
00002AF0  20 36 30 20 00 00 00 00... add     r6, r6, r4
                         .bupd_copy_pool_loop:
00002AF8  44 06 20 30 40 00 00 00... bge     r4, r6, .bupd_copy_user
00002B00  34 2F 20 00 03 00 00 00... lsl     r5, r4, #3
00002B08  20 46 28 10 00 00 00 00... add     r8, r5, r2
00002B10  10 1E 40 00 00 00 00 00... load.q  r3, (r8)
00002B18  20 4E 28 A0 00 00 00 00... add     r9, r5, r20
00002B20  11 1E 48 00 00 00 00 00... store.q r3, (r9)
00002B28  20 27 20 00 01 00 00 00... add     r4, r4, #1
00002B30  40 06 00 00 C8 FF FF FF... bra     .bupd_copy_pool_loop
                         .bupd_copy_user:
00002B38  01 25 00 00 00 06 00 00... move.l  r4, #USER_CODE_VPN_BASE
00002B40  01 35 00 00 00 08 00 00... move.l  r6, #USER_PT_PAGE_BASE
                         .bupd_copy_user_loop:
00002B48  44 06 20 30 40 00 00 00... bge     r4, r6, .bupd_copy_userpt
00002B50  34 2F 20 00 03 00 00 00... lsl     r5, r4, #3
00002B58  20 46 28 10 00 00 00 00... add     r8, r5, r2
00002B60  10 1E 40 00 00 00 00 00... load.q  r3, (r8)
00002B68  20 4E 28 A0 00 00 00 00... add     r9, r5, r20
00002B70  11 1E 48 00 00 00 00 00... store.q r3, (r9)
00002B78  20 27 20 00 01 00 00 00... add     r4, r4, #1
00002B80  40 06 00 00 C8 FF FF FF... bra     .bupd_copy_user_loop
                         .bupd_copy_userpt:
00002B88  01 25 00 00 00 08 00 00... move.l  r4, #USER_PT_PAGE_BASE
00002B90  01 35 00 00 00 0A 00 00... move.l  r6, #USER_PT_PAGE_END
                         .bupd_copy_userpt_loop:
00002B98  44 06 20 30 40 00 00 00... bge     r4, r6, .bupd_add_pages
00002BA0  34 2F 20 00 03 00 00 00... lsl     r5, r4, #3
00002BA8  20 46 28 10 00 00 00 00... add     r8, r5, r2
00002BB0  10 1E 40 00 00 00 00 00... load.q  r3, (r8)
00002BB8  20 4E 28 A0 00 00 00 00... add     r9, r5, r20
00002BC0  11 1E 48 00 00 00 00 00... store.q r3, (r9)
00002BC8  20 27 20 00 01 00 00 00... add     r4, r4, #1
00002BD0  40 06 00 00 C8 FF FF FF... bra     .bupd_copy_userpt_loop
                         .bupd_add_pages:
00002BD8  53 46 00 00 00 00 00 00... pop     r8
00002BE0  53 3E 00 00 00 00 00 00... pop     r7
00002BE8  53 36 00 00 00 00 00 00... pop     r6
00002BF0  53 2E 00 00 00 00 00 00... pop     r5
00002BF8  53 26 00 00 00 00 00 00... pop     r4
00002C00  53 1E 00 00 00 00 00 00... pop     r3
00002C08  53 16 00 00 00 00 00 00... pop     r2
00002C10  53 0E 00 00 00 00 00 00... pop     r1
00002C18  01 66 40 00 00 00 00 00... move.q  r12, r8
00002C20  01 45 00 00 00 00 00 00... move.l  r8, #0
                         .bupd_code_loop:
00002C28  44 06 40 18 50 00 00 00... bge     r8, r3, .bupd_code_done
00002C30  35 4F 10 00 0C 00 00 00... lsr     r9, r2, #12
00002C38  20 4E 48 40 00 00 00 00... add     r9, r9, r8
00002C40  34 57 48 00 0D 00 00 00... lsl     r10, r9, #13
00002C48  31 57 50 00 1B 00 00 00... or      r10, r10, #(PTE_P | PTE_R | PTE_X | PTE_U)
00002C50  34 5F 48 00 03 00 00 00... lsl     r11, r9, #3
00002C58  20 5E 58 08 00 00 00 00... add     r11, r11, r1
00002C60  11 56 58 00 00 00 00 00... store.q r10, (r11)
00002C68  20 47 40 00 01 00 00 00... add     r8, r8, #1
00002C70  40 06 00 00 B8 FF FF FF... bra     .bupd_code_loop
                         .bupd_code_done:
00002C78  01 45 00 00 00 00 00 00... move.l  r8, #0
                         .bupd_stack_loop:
00002C80  44 06 40 28 50 00 00 00... bge     r8, r5, .bupd_stack_done
00002C88  35 4F 20 00 0C 00 00 00... lsr     r9, r4, #12
00002C90  20 4E 48 40 00 00 00 00... add     r9, r9, r8
00002C98  34 57 48 00 0D 00 00 00... lsl     r10, r9, #13
00002CA0  31 57 50 00 17 00 00 00... or      r10, r10, #(PTE_P | PTE_R | PTE_W | PTE_U)
00002CA8  34 5F 48 00 03 00 00 00... lsl     r11, r9, #3
00002CB0  20 5E 58 08 00 00 00 00... add     r11, r11, r1
00002CB8  11 56 58 00 00 00 00 00... store.q r10, (r11)
00002CC0  20 47 40 00 01 00 00 00... add     r8, r8, #1
00002CC8  40 06 00 00 B8 FF FF FF... bra     .bupd_stack_loop
                         .bupd_stack_done:
00002CD0  35 4F 20 00 0C 00 00 00... lsr     r9, r4, #12
00002CD8  21 4F 48 00 01 00 00 00... sub     r9, r9, #STACK_GUARD_PAGES
00002CE0  34 5F 48 00 03 00 00 00... lsl     r11, r9, #3
00002CE8  20 5E 58 08 00 00 00 00... add     r11, r11, r1
00002CF0  11 06 58 00 00 00 00 00... store.q r0, (r11)
00002CF8  01 45 00 00 00 00 00 00... move.l  r8, #0
                         .bupd_data_loop:
00002D00  44 06 40 38 50 00 00 00... bge     r8, r7, .bupd_data_done
00002D08  35 4F 30 00 0C 00 00 00... lsr     r9, r6, #12
00002D10  20 4E 48 40 00 00 00 00... add     r9, r9, r8
00002D18  34 57 48 00 0D 00 00 00... lsl     r10, r9, #13
00002D20  31 57 50 00 17 00 00 00... or      r10, r10, #(PTE_P | PTE_R | PTE_W | PTE_U)
00002D28  34 5F 48 00 03 00 00 00... lsl     r11, r9, #3
00002D30  20 5E 58 08 00 00 00 00... add     r11, r11, r1
00002D38  11 56 58 00 00 00 00 00... store.q r10, (r11)
00002D40  20 47 40 00 01 00 00 00... add     r8, r8, #1
00002D48  40 06 00 00 B8 FF FF FF... bra     .bupd_data_loop
                         .bupd_data_done:
00002D50  35 4F 60 00 0C 00 00 00... lsr     r9, r12, #12
00002D58  34 57 48 00 0D 00 00 00... lsl     r10, r9, #13
00002D60  31 57 50 00 13 00 00 00... or      r10, r10, #(PTE_P | PTE_R | PTE_U)
00002D68  34 5F 48 00 03 00 00 00... lsl     r11, r9, #3
00002D70  20 5E 58 08 00 00 00 00... add     r11, r11, r1
00002D78  11 56 58 00 00 00 00 00... store.q r10, (r11)
                         .bupd_done:
00002D80  51 00 00 00 00 00 00 00... rts
                         build_user_pt_dynamic_desc:
00002D88  10 66 F8 00 00 00 00 00... load.q  r12, (sp)
00002D90  10 6F F8 00 08 00 00 00... load.q  r13, 8(sp)
00002D98  52 06 08 00 00 00 00 00... push    r1
00002DA0  52 06 10 00 00 00 00 00... push    r2
00002DA8  52 06 18 00 00 00 00 00... push    r3
00002DB0  52 06 20 00 00 00 00 00... push    r4
00002DB8  52 06 28 00 00 00 00 00... push    r5
00002DC0  52 06 30 00 00 00 00 00... push    r6
00002DC8  52 06 38 00 00 00 00 00... push    r7
00002DD0  52 06 40 00 00 00 00 00... push    r8
00002DD8  01 A6 08 00 00 00 00 00... move.q  r20, r1
00002DE0  01 15 00 00 00 D0 07 00... move.l  r2, #KERN_PAGE_TABLE
00002DE8  01 25 00 00 00 00 00 00... move.l  r4, #0
                         .bupdd_copy_kern:
00002DF0  01 35 00 00 80 01 00 00... move.l  r6, #KERN_PAGES
00002DF8  44 06 20 30 40 00 00 00... bge     r4, r6, .bupdd_copy_pool
00002E00  34 2F 20 00 03 00 00 00... lsl     r5, r4, #3
00002E08  20 46 28 10 00 00 00 00... add     r8, r5, r2
00002E10  10 1E 40 00 00 00 00 00... load.q  r3, (r8)
00002E18  20 4E 28 A0 00 00 00 00... add     r9, r5, r20
00002E20  11 1E 48 00 00 00 00 00... store.q r3, (r9)
00002E28  20 27 20 00 01 00 00 00... add     r4, r4, #1
00002E30  40 06 00 00 C0 FF FF FF... bra     .bupdd_copy_kern
                         .bupdd_copy_pool:
00002E38  01 25 00 00 00 12 00 00... move.l  r4, #ALLOC_POOL_BASE
00002E40  01 35 00 00 00 0E 00 00... move.l  r6, #ALLOC_POOL_PAGES
00002E48  20 36 30 20 00 00 00 00... add     r6, r6, r4
                         .bupdd_copy_pool_loop:
00002E50  44 06 20 30 40 00 00 00... bge     r4, r6, .bupdd_copy_user
00002E58  34 2F 20 00 03 00 00 00... lsl     r5, r4, #3
00002E60  20 46 28 10 00 00 00 00... add     r8, r5, r2
00002E68  10 1E 40 00 00 00 00 00... load.q  r3, (r8)
00002E70  20 4E 28 A0 00 00 00 00... add     r9, r5, r20
00002E78  11 1E 48 00 00 00 00 00... store.q r3, (r9)
00002E80  20 27 20 00 01 00 00 00... add     r4, r4, #1
00002E88  40 06 00 00 C8 FF FF FF... bra     .bupdd_copy_pool_loop
                         .bupdd_copy_user:
00002E90  01 25 00 00 00 06 00 00... move.l  r4, #USER_CODE_VPN_BASE
00002E98  01 35 00 00 00 08 00 00... move.l  r6, #USER_PT_PAGE_BASE
                         .bupdd_copy_user_loop:
00002EA0  44 06 20 30 40 00 00 00... bge     r4, r6, .bupdd_copy_userpt
00002EA8  34 2F 20 00 03 00 00 00... lsl     r5, r4, #3
00002EB0  20 46 28 10 00 00 00 00... add     r8, r5, r2
00002EB8  10 1E 40 00 00 00 00 00... load.q  r3, (r8)
00002EC0  20 4E 28 A0 00 00 00 00... add     r9, r5, r20
00002EC8  11 1E 48 00 00 00 00 00... store.q r3, (r9)
00002ED0  20 27 20 00 01 00 00 00... add     r4, r4, #1
00002ED8  40 06 00 00 C8 FF FF FF... bra     .bupdd_copy_user_loop
                         .bupdd_copy_userpt:
00002EE0  01 25 00 00 00 08 00 00... move.l  r4, #USER_PT_PAGE_BASE
00002EE8  01 35 00 00 00 0A 00 00... move.l  r6, #USER_PT_PAGE_END
                         .bupdd_copy_userpt_loop:
00002EF0  44 06 20 30 40 00 00 00... bge     r4, r6, .bupdd_add_pages
00002EF8  34 2F 20 00 03 00 00 00... lsl     r5, r4, #3
00002F00  20 46 28 10 00 00 00 00... add     r8, r5, r2
00002F08  10 1E 40 00 00 00 00 00... load.q  r3, (r8)
00002F10  20 4E 28 A0 00 00 00 00... add     r9, r5, r20
00002F18  11 1E 48 00 00 00 00 00... store.q r3, (r9)
00002F20  20 27 20 00 01 00 00 00... add     r4, r4, #1
00002F28  40 06 00 00 C8 FF FF FF... bra     .bupdd_copy_userpt_loop
                         .bupdd_add_pages:
00002F30  53 46 00 00 00 00 00 00... pop     r8
00002F38  53 3E 00 00 00 00 00 00... pop     r7
00002F40  53 36 00 00 00 00 00 00... pop     r6
00002F48  53 2E 00 00 00 00 00 00... pop     r5
00002F50  53 26 00 00 00 00 00 00... pop     r4
00002F58  53 1E 00 00 00 00 00 00... pop     r3
00002F60  53 16 00 00 00 00 00 00... pop     r2
00002F68  53 0E 00 00 00 00 00 00... pop     r1
00002F70  01 45 00 00 00 00 00 00... move.l  r8, #0
                         .bupdd_code_loop:
00002F78  44 06 40 20 60 00 00 00... bge     r8, r4, .bupdd_code_done
00002F80  35 4F 10 00 0C 00 00 00... lsr     r9, r2, #12
00002F88  20 4E 48 40 00 00 00 00... add     r9, r9, r8
00002F90  34 57 48 00 0D 00 00 00... lsl     r10, r9, #13
00002F98  31 57 50 00 1B 00 00 00... or      r10, r10, #(PTE_P | PTE_R | PTE_X | PTE_U)
00002FA0  35 5F 18 00 0C 00 00 00... lsr     r11, r3, #12
00002FA8  20 5E 58 40 00 00 00 00... add     r11, r11, r8
00002FB0  34 5F 58 00 03 00 00 00... lsl     r11, r11, #3
00002FB8  20 5E 58 08 00 00 00 00... add     r11, r11, r1
00002FC0  11 56 58 00 00 00 00 00... store.q r10, (r11)
00002FC8  20 47 40 00 01 00 00 00... add     r8, r8, #1
00002FD0  40 06 00 00 A8 FF FF FF... bra     .bupdd_code_loop
                         .bupdd_code_done:
00002FD8  01 45 00 00 00 00 00 00... move.l  r8, #0
                         .bupdd_stack_loop:
00002FE0  44 06 40 30 50 00 00 00... bge     r8, r6, .bupdd_stack_done
00002FE8  35 4F 28 00 0C 00 00 00... lsr     r9, r5, #12
00002FF0  20 4E 48 40 00 00 00 00... add     r9, r9, r8
00002FF8  34 57 48 00 0D 00 00 00... lsl     r10, r9, #13
00003000  31 57 50 00 17 00 00 00... or      r10, r10, #(PTE_P | PTE_R | PTE_W | PTE_U)
00003008  34 5F 48 00 03 00 00 00... lsl     r11, r9, #3
00003010  20 5E 58 08 00 00 00 00... add     r11, r11, r1
00003018  11 56 58 00 00 00 00 00... store.q r10, (r11)
00003020  20 47 40 00 01 00 00 00... add     r8, r8, #1
00003028  40 06 00 00 B8 FF FF FF... bra     .bupdd_stack_loop
                         .bupdd_stack_done:
00003030  35 4F 28 00 0C 00 00 00... lsr     r9, r5, #12
00003038  21 4F 48 00 01 00 00 00... sub     r9, r9, #STACK_GUARD_PAGES
00003040  34 5F 48 00 03 00 00 00... lsl     r11, r9, #3
00003048  20 5E 58 08 00 00 00 00... add     r11, r11, r1
00003050  11 06 58 00 00 00 00 00... store.q r0, (r11)
00003058  01 45 00 00 00 00 00 00... move.l  r8, #0
                         .bupdd_data_loop:
00003060  44 06 40 68 00 1A 00 00... bge     r8, r13, .bupdd_data_done
00003068  35 4F 38 00 0C 00 00 00... lsr     r9, r7, #12
00003070  20 4E 48 40 00 00 00 00... add     r9, r9, r8
00003078  34 57 48 00 0D 00 00 00... lsl     r10, r9, #13
00003080  31 57 50 00 17 00 00 00... or      r10, r10, #(PTE_P | PTE_R | PTE_W | PTE_U)
00003088  35 5F 40 00 00 00 00 00... lsr     r11, r8, #0
00003090  35 5F 40 00 00 00 00 00... lsr     r11, r8, #0
00003098  35 5F 40 00 00 00 00 00... lsr     r11, r8, #0
000030A0  35 5F 40 00 00 00 00 00... lsr     r11, r8, #0
000030A8  35 5F 40 00 00 00 00 00... lsr     r11, r8, #0
000030B0  35 5F 40 00 00 00 00 00... lsr     r11, r8, #0
000030B8  35 5F 40 00 00 00 00 00... lsr     r11, r8, #0
000030C0  35 5F 40 00 00 00 00 00... lsr     r11, r8, #0
000030C8  35 5F 40 00 00 00 00 00... lsr     r11, r8, #0
000030D0  35 5F 40 00 00 00 00 00... lsr     r11, r8, #0
000030D8  35 5F 40 00 00 00 00 00... lsr     r11, r8, #0
000030E0  35 5F 40 00 00 00 00 00... lsr     r11, r8, #0
000030E8  35 5F 40 00 00 00 00 00... lsr     r11, r8, #0
000030F0  35 5F 40 00 00 00 00 00... lsr     r11, r8, #0
000030F8  35 5F 40 00 00 00 00 00... lsr     r11, r8, #0
00003100  35 5F 40 00 00 00 00 00... lsr     r11, r8, #0
00003108  35 5F 40 00 00 00 00 00... lsr     r11, r8, #0
00003110  35 5F 40 00 00 00 00 00... lsr     r11, r8, #0
00003118  35 5F 40 00 00 00 00 00... lsr     r11, r8, #0
00003120  35 5F 40 00 00 00 00 00... lsr     r11, r8, #0
00003128  35 5F 40 00 00 00 00 00... lsr     r11, r8, #0
00003130  35 5F 40 00 00 00 00 00... lsr     r11, r8, #0
00003138  35 5F 40 00 00 00 00 00... lsr     r11, r8, #0
00003140  35 5F 40 00 00 00 00 00... lsr     r11, r8, #0
00003148  35 5F 40 00 00 00 00 00... lsr     r11, r8, #0
00003150  35 5F 40 00 00 00 00 00... lsr     r11, r8, #0
00003158  35 5F 40 00 00 00 00 00... lsr     r11, r8, #0
00003160  35 5F 40 00 00 00 00 00... lsr     r11, r8, #0
00003168  35 5F 40 00 00 00 00 00... lsr     r11, r8, #0
00003170  35 5F 40 00 00 00 00 00... lsr     r11, r8, #0
00003178  35 5F 40 00 00 00 00 00... lsr     r11, r8, #0
00003180  35 5F 40 00 00 00 00 00... lsr     r11, r8, #0
00003188  35 5F 40 00 00 00 00 00... lsr     r11, r8, #0
00003190  35 5F 40 00 00 00 00 00... lsr     r11, r8, #0
00003198  35 5F 40 00 00 00 00 00... lsr     r11, r8, #0
000031A0  35 5F 40 00 00 00 00 00... lsr     r11, r8, #0
000031A8  35 5F 40 00 00 00 00 00... lsr     r11, r8, #0
000031B0  35 5F 40 00 00 00 00 00... lsr     r11, r8, #0
000031B8  35 5F 40 00 00 00 00 00... lsr     r11, r8, #0
000031C0  35 5F 40 00 00 00 00 00... lsr     r11, r8, #0
000031C8  35 5F 40 00 00 00 00 00... lsr     r11, r8, #0
000031D0  35 5F 40 00 00 00 00 00... lsr     r11, r8, #0
000031D8  35 5F 40 00 00 00 00 00... lsr     r11, r8, #0
000031E0  35 5F 40 00 00 00 00 00... lsr     r11, r8, #0
000031E8  35 5F 40 00 00 00 00 00... lsr     r11, r8, #0
000031F0  35 5F 40 00 00 00 00 00... lsr     r11, r8, #0
000031F8  35 5F 40 00 00 00 00 00... lsr     r11, r8, #0
00003200  35 5F 40 00 00 00 00 00... lsr     r11, r8, #0
00003208  35 5F 40 00 00 00 00 00... lsr     r11, r8, #0
00003210  35 5F 40 00 00 00 00 00... lsr     r11, r8, #0
00003218  35 5F 40 00 00 00 00 00... lsr     r11, r8, #0
00003220  35 5F 40 00 00 00 00 00... lsr     r11, r8, #0
00003228  35 5F 40 00 00 00 00 00... lsr     r11, r8, #0
00003230  35 5F 40 00 00 00 00 00... lsr     r11, r8, #0
00003238  35 5F 40 00 00 00 00 00... lsr     r11, r8, #0
00003240  35 5F 40 00 00 00 00 00... lsr     r11, r8, #0
00003248  35 5F 40 00 00 00 00 00... lsr     r11, r8, #0
00003250  35 5F 40 00 00 00 00 00... lsr     r11, r8, #0
00003258  35 5F 40 00 00 00 00 00... lsr     r11, r8, #0
00003260  35 5F 40 00 00 00 00 00... lsr     r11, r8, #0
00003268  35 5F 40 00 00 00 00 00... lsr     r11, r8, #0
00003270  35 5F 40 00 00 00 00 00... lsr     r11, r8, #0
00003278  35 5F 40 00 00 00 00 00... lsr     r11, r8, #0
00003280  35 5F 40 00 00 00 00 00... lsr     r11, r8, #0
00003288  35 5F 40 00 00 00 00 00... lsr     r11, r8, #0
00003290  35 5F 40 00 00 00 00 00... lsr     r11, r8, #0
00003298  35 5F 40 00 00 00 00 00... lsr     r11, r8, #0
000032A0  35 5F 40 00 00 00 00 00... lsr     r11, r8, #0
000032A8  35 5F 40 00 00 00 00 00... lsr     r11, r8, #0
000032B0  35 5F 40 00 00 00 00 00... lsr     r11, r8, #0
000032B8  35 5F 40 00 00 00 00 00... lsr     r11, r8, #0
000032C0  35 5F 40 00 00 00 00 00... lsr     r11, r8, #0
000032C8  35 5F 40 00 00 00 00 00... lsr     r11, r8, #0
000032D0  35 5F 40 00 00 00 00 00... lsr     r11, r8, #0
000032D8  35 5F 40 00 00 00 00 00... lsr     r11, r8, #0
000032E0  35 5F 40 00 00 00 00 00... lsr     r11, r8, #0
000032E8  35 5F 40 00 00 00 00 00... lsr     r11, r8, #0
000032F0  35 5F 40 00 00 00 00 00... lsr     r11, r8, #0
000032F8  35 5F 40 00 00 00 00 00... lsr     r11, r8, #0
00003300  35 5F 40 00 00 00 00 00... lsr     r11, r8, #0
00003308  35 5F 40 00 00 00 00 00... lsr     r11, r8, #0
00003310  35 5F 40 00 00 00 00 00... lsr     r11, r8, #0
00003318  35 5F 40 00 00 00 00 00... lsr     r11, r8, #0
00003320  35 5F 40 00 00 00 00 00... lsr     r11, r8, #0
00003328  35 5F 40 00 00 00 00 00... lsr     r11, r8, #0
00003330  35 5F 40 00 00 00 00 00... lsr     r11, r8, #0
00003338  35 5F 40 00 00 00 00 00... lsr     r11, r8, #0
00003340  35 5F 40 00 00 00 00 00... lsr     r11, r8, #0
00003348  35 5F 40 00 00 00 00 00... lsr     r11, r8, #0
00003350  35 5F 40 00 00 00 00 00... lsr     r11, r8, #0
00003358  35 5F 40 00 00 00 00 00... lsr     r11, r8, #0
00003360  35 5F 40 00 00 00 00 00... lsr     r11, r8, #0
00003368  35 5F 40 00 00 00 00 00... lsr     r11, r8, #0
00003370  35 5F 40 00 00 00 00 00... lsr     r11, r8, #0
00003378  35 5F 40 00 00 00 00 00... lsr     r11, r8, #0
00003380  35 5F 40 00 00 00 00 00... lsr     r11, r8, #0
00003388  35 5F 40 00 00 00 00 00... lsr     r11, r8, #0
00003390  35 5F 40 00 00 00 00 00... lsr     r11, r8, #0
00003398  35 5F 40 00 00 00 00 00... lsr     r11, r8, #0
000033A0  35 5F 40 00 00 00 00 00... lsr     r11, r8, #0
000033A8  35 5F 40 00 00 00 00 00... lsr     r11, r8, #0
000033B0  35 5F 40 00 00 00 00 00... lsr     r11, r8, #0
000033B8  35 5F 40 00 00 00 00 00... lsr     r11, r8, #0
000033C0  35 5F 40 00 00 00 00 00... lsr     r11, r8, #0
000033C8  35 5F 40 00 00 00 00 00... lsr     r11, r8, #0
000033D0  35 5F 40 00 00 00 00 00... lsr     r11, r8, #0
000033D8  35 5F 40 00 00 00 00 00... lsr     r11, r8, #0
000033E0  35 5F 40 00 00 00 00 00... lsr     r11, r8, #0
000033E8  35 5F 40 00 00 00 00 00... lsr     r11, r8, #0
000033F0  35 5F 40 00 00 00 00 00... lsr     r11, r8, #0
000033F8  35 5F 40 00 00 00 00 00... lsr     r11, r8, #0
00003400  35 5F 40 00 00 00 00 00... lsr     r11, r8, #0
00003408  35 5F 40 00 00 00 00 00... lsr     r11, r8, #0
00003410  35 5F 40 00 00 00 00 00... lsr     r11, r8, #0
00003418  35 5F 40 00 00 00 00 00... lsr     r11, r8, #0
00003420  35 5F 40 00 00 00 00 00... lsr     r11, r8, #0
00003428  35 5F 40 00 00 00 00 00... lsr     r11, r8, #0
00003430  35 5F 40 00 00 00 00 00... lsr     r11, r8, #0
00003438  35 5F 40 00 00 00 00 00... lsr     r11, r8, #0
00003440  35 5F 40 00 00 00 00 00... lsr     r11, r8, #0
00003448  35 5F 40 00 00 00 00 00... lsr     r11, r8, #0
00003450  35 5F 40 00 00 00 00 00... lsr     r11, r8, #0
00003458  35 5F 40 00 0C 00 00 00... lsr     r11, r8, #12
00003460  35 5F 40 00 00 00 00 00... lsr     r11, r8, #0
00003468  35 5F 40 00 00 00 00 00... lsr     r11, r8, #0
00003470  35 5F 40 00 00 00 00 00... lsr     r11, r8, #0
00003478  35 5F 40 00 00 00 00 00... lsr     r11, r8, #0
00003480  35 5F 40 00 00 00 00 00... lsr     r11, r8, #0
00003488  35 5F 40 00 00 00 00 00... lsr     r11, r8, #0
00003490  35 5F 40 00 00 00 00 00... lsr     r11, r8, #0
00003498  35 5F 40 00 00 00 00 00... lsr     r11, r8, #0
000034A0  35 5F 40 00 00 00 00 00... lsr     r11, r8, #0
000034A8  35 5F 40 00 00 00 00 00... lsr     r11, r8, #0
000034B0  35 5F 40 00 00 00 00 00... lsr     r11, r8, #0
000034B8  35 5F 40 00 00 00 00 00... lsr     r11, r8, #0
000034C0  35 5F 40 00 00 00 00 00... lsr     r11, r8, #0
000034C8  35 5F 40 00 00 00 00 00... lsr     r11, r8, #0
000034D0  35 5F 40 00 00 00 00 00... lsr     r11, r8, #0
000034D8  35 5F 40 00 00 00 00 00... lsr     r11, r8, #0
000034E0  35 5F 40 00 00 00 00 00... lsr     r11, r8, #0
000034E8  35 5F 40 00 00 00 00 00... lsr     r11, r8, #0
000034F0  35 5F 40 00 00 00 00 00... lsr     r11, r8, #0
000034F8  35 5F 40 00 00 00 00 00... lsr     r11, r8, #0
00003500  35 5F 40 00 00 00 00 00... lsr     r11, r8, #0
00003508  35 5F 40 00 00 00 00 00... lsr     r11, r8, #0
00003510  35 5F 40 00 00 00 00 00... lsr     r11, r8, #0
00003518  35 5F 40 00 00 00 00 00... lsr     r11, r8, #0
00003520  35 5F 40 00 00 00 00 00... lsr     r11, r8, #0
00003528  35 5F 40 00 00 00 00 00... lsr     r11, r8, #0
00003530  35 5F 40 00 00 00 00 00... lsr     r11, r8, #0
00003538  35 5F 40 00 00 00 00 00... lsr     r11, r8, #0
00003540  35 5F 40 00 00 00 00 00... lsr     r11, r8, #0
00003548  35 5F 40 00 00 00 00 00... lsr     r11, r8, #0
00003550  35 5F 40 00 00 00 00 00... lsr     r11, r8, #0
00003558  35 5F 40 00 00 00 00 00... lsr     r11, r8, #0
00003560  35 5F 40 00 00 00 00 00... lsr     r11, r8, #0
00003568  35 5F 40 00 00 00 00 00... lsr     r11, r8, #0
00003570  35 5F 40 00 00 00 00 00... lsr     r11, r8, #0
00003578  35 77 40 00 0C 00 00 00... lsr     r14, r8, #12
00003580  35 5F 40 00 00 00 00 00... lsr     r11, r8, #0
00003588  35 5F 40 00 00 00 00 00... lsr     r11, r8, #0
00003590  35 5F 40 00 00 00 00 00... lsr     r11, r8, #0
00003598  35 5F 40 00 00 00 00 00... lsr     r11, r8, #0
000035A0  35 5F 40 00 00 00 00 00... lsr     r11, r8, #0
000035A8  35 5F 40 00 00 00 00 00... lsr     r11, r8, #0
000035B0  35 5F 40 00 00 00 00 00... lsr     r11, r8, #0
000035B8  35 5F 40 00 00 00 00 00... lsr     r11, r8, #0
000035C0  35 5F 40 00 00 00 00 00... lsr     r11, r8, #0
000035C8  35 5F 40 00 00 00 00 00... lsr     r11, r8, #0
000035D0  35 5F 40 00 00 00 00 00... lsr     r11, r8, #0
000035D8  35 5F 40 00 00 00 00 00... lsr     r11, r8, #0
000035E0  35 77 40 00 00 00 00 00... lsr     r14, r8, #0
000035E8  35 5F 40 00 00 00 00 00... lsr     r11, r8, #0
000035F0  35 5F 40 00 00 00 00 00... lsr     r11, r8, #0
000035F8  35 5F 40 00 00 00 00 00... lsr     r11, r8, #0
00003600  35 5F 40 00 00 00 00 00... lsr     r11, r8, #0
00003608  35 5F 40 00 00 00 00 00... lsr     r11, r8, #0
00003610  35 5F 40 00 00 00 00 00... lsr     r11, r8, #0
00003618  35 5F 40 00 00 00 00 00... lsr     r11, r8, #0
00003620  35 5F 40 00 00 00 00 00... lsr     r11, r8, #0
00003628  35 5F 40 00 00 00 00 00... lsr     r11, r8, #0
00003630  35 5F 40 00 00 00 00 00... lsr     r11, r8, #0
00003638  35 5F 40 00 00 00 00 00... lsr     r11, r8, #0
00003640  35 5F 40 00 00 00 00 00... lsr     r11, r8, #0
00003648  35 5F 40 00 00 00 00 00... lsr     r11, r8, #0
00003650  35 5F 40 00 00 00 00 00... lsr     r11, r8, #0
00003658  35 5F 40 00 00 00 00 00... lsr     r11, r8, #0
00003660  35 5F 40 00 00 00 00 00... lsr     r11, r8, #0
00003668  35 5F 40 00 00 00 00 00... lsr     r11, r8, #0
00003670  35 5F 40 00 00 00 00 00... lsr     r11, r8, #0
00003678  35 5F 40 00 00 00 00 00... lsr     r11, r8, #0
00003680  35 5F 40 00 00 00 00 00... lsr     r11, r8, #0
00003688  35 5F 40 00 00 00 00 00... lsr     r11, r8, #0
00003690  35 5F 40 00 00 00 00 00... lsr     r11, r8, #0
00003698  35 5F 40 00 00 00 00 00... lsr     r11, r8, #0
000036A0  35 5F 40 00 00 00 00 00... lsr     r11, r8, #0
000036A8  35 77 40 00 00 00 00 00... lsr     r14, r8, #0
000036B0  35 5F 40 00 00 00 00 00... lsr     r11, r8, #0
000036B8  35 5F 40 00 00 00 00 00... lsr     r11, r8, #0
000036C0  35 5F 40 00 00 00 00 00... lsr     r11, r8, #0
000036C8  35 5F 40 00 00 00 00 00... lsr     r11, r8, #0
000036D0  35 5F 40 00 00 00 00 00... lsr     r11, r8, #0
000036D8  35 5F 40 00 00 00 00 00... lsr     r11, r8, #0
000036E0  35 5F 40 00 00 00 00 00... lsr     r11, r8, #0
000036E8  35 5F 40 00 00 00 00 00... lsr     r11, r8, #0
000036F0  35 77 40 00 00 00 00 00... lsr     r14, r8, #0
000036F8  35 5F 40 00 00 00 00 00... lsr     r11, r8, #0
00003700  35 77 40 00 00 00 00 00... lsr     r14, r8, #0
00003708  35 5F 40 00 00 00 00 00... lsr     r11, r8, #0
00003710  35 5F 40 00 00 00 00 00... lsr     r11, r8, #0
00003718  35 5F 40 00 00 00 00 00... lsr     r11, r8, #0
00003720  35 77 40 00 00 00 00 00... lsr     r14, r8, #0
00003728  35 5F 40 00 00 00 00 00... lsr     r11, r8, #0
00003730  35 77 40 00 00 00 00 00... lsr     r14, r8, #0
00003738  35 5F 40 00 00 00 00 00... lsr     r11, r8, #0
00003740  35 5F 40 00 00 00 00 00... lsr     r11, r8, #0
00003748  35 5F 40 00 00 00 00 00... lsr     r11, r8, #0
00003750  35 77 40 00 00 00 00 00... lsr     r14, r8, #0
00003758  35 5F 40 00 00 00 00 00... lsr     r11, r8, #0
00003760  35 77 40 00 00 00 00 00... lsr     r14, r8, #0
00003768  35 5F 40 00 00 00 00 00... lsr     r11, r8, #0
00003770  35 5F 40 00 00 00 00 00... lsr     r11, r8, #0
00003778  35 77 40 00 00 00 00 00... lsr     r14, r8, #0
00003780  35 5F 40 00 00 00 00 00... lsr     r11, r8, #0
00003788  35 77 40 00 00 00 00 00... lsr     r14, r8, #0
00003790  35 5F 40 00 00 00 00 00... lsr     r11, r8, #0
00003798  35 77 40 00 00 00 00 00... lsr     r14, r8, #0
000037A0  35 5F 40 00 00 00 00 00... lsr     r11, r8, #0
000037A8  35 77 40 00 00 00 00 00... lsr     r14, r8, #0
000037B0  35 5F 40 00 00 00 00 00... lsr     r11, r8, #0
000037B8  35 5F 40 00 00 00 00 00... lsr     r11, r8, #0
000037C0  35 5F 40 00 00 00 00 00... lsr     r11, r8, #0
000037C8  35 5F 40 00 00 00 00 00... lsr     r11, r8, #0
000037D0  35 5F 40 00 00 00 00 00... lsr     r11, r8, #0
000037D8  35 5F 40 00 00 00 00 00... lsr     r11, r8, #0
000037E0  35 5F 40 00 00 00 00 00... lsr     r11, r8, #0
000037E8  35 5F 40 00 00 00 00 00... lsr     r11, r8, #0
000037F0  35 5F 40 00 00 00 00 00... lsr     r11, r8, #0
000037F8  35 5F 40 00 00 00 00 00... lsr     r11, r8, #0
00003800  35 5F 40 00 00 00 00 00... lsr     r11, r8, #0
00003808  35 5F 40 00 00 00 00 00... lsr     r11, r8, #0
00003810  35 5F 40 00 00 00 00 00... lsr     r11, r8, #0
00003818  35 5F 40 00 00 00 00 00... lsr     r11, r8, #0
00003820  35 5F 40 00 00 00 00 00... lsr     r11, r8, #0
00003828  35 5F 40 00 00 00 00 00... lsr     r11, r8, #0
00003830  35 5F 40 00 00 00 00 00... lsr     r11, r8, #0
00003838  35 5F 40 00 00 00 00 00... lsr     r11, r8, #0
00003840  35 5F 40 00 00 00 00 00... lsr     r11, r8, #0
00003848  35 5F 40 00 00 00 00 00... lsr     r11, r8, #0
00003850  35 5F 40 00 00 00 00 00... lsr     r11, r8, #0
00003858  35 5F 40 00 00 00 00 00... lsr     r11, r8, #0
00003860  35 5F 40 00 00 00 00 00... lsr     r11, r8, #0
00003868  35 5F 40 00 00 00 00 00... lsr     r11, r8, #0
00003870  35 5F 40 00 00 00 00 00... lsr     r11, r8, #0
00003878  35 5F 40 00 00 00 00 00... lsr     r11, r8, #0
00003880  35 5F 40 00 00 00 00 00... lsr     r11, r8, #0
00003888  35 5F 40 00 00 00 00 00... lsr     r11, r8, #0
00003890  35 5F 40 00 00 00 00 00... lsr     r11, r8, #0
00003898  35 5F 40 00 00 00 00 00... lsr     r11, r8, #0
000038A0  35 5F 40 00 00 00 00 00... lsr     r11, r8, #0
000038A8  35 5F 40 00 00 00 00 00... lsr     r11, r8, #0
000038B0  35 5F 40 00 00 00 00 00... lsr     r11, r8, #0
000038B8  35 5F 40 00 00 00 00 00... lsr     r11, r8, #0
000038C0  35 5F 40 00 00 00 00 00... lsr     r11, r8, #0
000038C8  35 5F 40 00 00 00 00 00... lsr     r11, r8, #0
000038D0  35 5F 40 00 00 00 00 00... lsr     r11, r8, #0
000038D8  35 77 40 00 00 00 00 00... lsr     r14, r8, #0
000038E0  35 5F 40 00 00 00 00 00... lsr     r11, r8, #0
000038E8  35 77 40 00 00 00 00 00... lsr     r14, r8, #0
000038F0  35 5F 40 00 00 00 00 00... lsr     r11, r8, #0
000038F8  35 77 40 00 00 00 00 00... lsr     r14, r8, #0
00003900  35 5F 40 00 00 00 00 00... lsr     r11, r8, #0
00003908  35 5F 40 00 00 00 00 00... lsr     r11, r8, #0
00003910  35 5F 40 00 00 00 00 00... lsr     r11, r8, #0
00003918  35 77 40 00 00 00 00 00... lsr     r14, r8, #0
00003920  35 5F 40 00 00 00 00 00... lsr     r11, r8, #0
00003928  35 5F 40 00 00 00 00 00... lsr     r11, r8, #0
00003930  35 5F 40 00 00 00 00 00... lsr     r11, r8, #0
00003938  35 77 40 00 00 00 00 00... lsr     r14, r8, #0
00003940  35 5F 40 00 00 00 00 00... lsr     r11, r8, #0
00003948  35 77 40 00 00 00 00 00... lsr     r14, r8, #0
00003950  35 5F 40 00 00 00 00 00... lsr     r11, r8, #0
00003958  35 77 40 00 00 00 00 00... lsr     r14, r8, #0
00003960  35 5F 40 00 00 00 00 00... lsr     r11, r8, #0
00003968  35 77 40 00 00 00 00 00... lsr     r14, r8, #0
00003970  35 5F 40 00 00 00 00 00... lsr     r11, r8, #0
00003978  35 77 40 00 00 00 00 00... lsr     r14, r8, #0
00003980  35 5F 40 00 00 00 00 00... lsr     r11, r8, #0
00003988  35 5F 40 00 00 00 00 00... lsr     r11, r8, #0
00003990  35 5F 40 00 00 00 00 00... lsr     r11, r8, #0
00003998  35 5F 40 00 00 00 00 00... lsr     r11, r8, #0
000039A0  35 5F 40 00 00 00 00 00... lsr     r11, r8, #0
000039A8  35 5F 40 00 00 00 00 00... lsr     r11, r8, #0
000039B0  35 5F 40 00 00 00 00 00... lsr     r11, r8, #0
000039B8  35 5F 40 00 00 00 00 00... lsr     r11, r8, #0
000039C0  35 5F 40 00 00 00 00 00... lsr     r11, r8, #0
000039C8  35 5F 40 00 00 00 00 00... lsr     r11, r8, #0
000039D0  35 5F 40 00 00 00 00 00... lsr     r11, r8, #0
000039D8  35 5F 40 00 00 00 00 00... lsr     r11, r8, #0
000039E0  35 5F 40 00 00 00 00 00... lsr     r11, r8, #0
000039E8  35 5F 40 00 00 00 00 00... lsr     r11, r8, #0
000039F0  35 5F 40 00 00 00 00 00... lsr     r11, r8, #0
000039F8  35 77 40 00 00 00 00 00... lsr     r14, r8, #0
00003A00  35 5F 40 00 00 00 00 00... lsr     r11, r8, #0
00003A08  35 77 40 00 00 00 00 00... lsr     r14, r8, #0
00003A10  35 5F 40 00 00 00 00 00... lsr     r11, r8, #0
00003A18  35 77 40 00 00 00 00 00... lsr     r14, r8, #0
00003A20  35 5F 40 00 00 00 00 00... lsr     r11, r8, #0
00003A28  35 5F 40 00 00 00 00 00... lsr     r11, r8, #0
00003A30  35 5F 40 00 00 00 00 00... lsr     r11, r8, #0
00003A38  35 5F 40 00 00 00 00 00... lsr     r11, r8, #0
00003A40  35 5F 40 00 00 00 00 00... lsr     r11, r8, #0
00003A48  35 5F 40 00 00 00 00 00... lsr     r11, r8, #0
00003A50  35 5F 40 00 00 00 00 00... lsr     r11, r8, #0
00003A58  35 5F 40 00 00 00 00 00... lsr     r11, r8, #0
00003A60  35 5F 40 00 00 00 00 00... lsr     r11, r8, #0
00003A68  35 5F 40 00 00 00 00 00... lsr     r11, r8, #0
00003A70  35 5F 40 00 00 00 00 00... lsr     r11, r8, #0
00003A78  35 5F 40 00 00 00 00 00... lsr     r11, r8, #0
00003A80  35 5F 40 00 00 00 00 00... lsr     r11, r8, #0
00003A88  35 5F 40 00 00 00 00 00... lsr     r11, r8, #0
00003A90  35 5F 40 00 00 00 00 00... lsr     r11, r8, #0
00003A98  35 5F 40 00 00 00 00 00... lsr     r11, r8, #0
00003AA0  35 5F 40 00 00 00 00 00... lsr     r11, r8, #0
00003AA8  35 5F 40 00 00 00 00 00... lsr     r11, r8, #0
00003AB0  35 5F 40 00 00 00 00 00... lsr     r11, r8, #0
00003AB8  35 5F 40 00 00 00 00 00... lsr     r11, r8, #0
00003AC0  35 5F 40 00 00 00 00 00... lsr     r11, r8, #0
00003AC8  35 5F 40 00 00 00 00 00... lsr     r11, r8, #0
00003AD0  35 5F 40 00 00 00 00 00... lsr     r11, r8, #0
00003AD8  35 5F 40 00 00 00 00 00... lsr     r11, r8, #0
00003AE0  35 5F 40 00 00 00 00 00... lsr     r11, r8, #0
00003AE8  35 5F 40 00 00 00 00 00... lsr     r11, r8, #0
00003AF0  35 5F 40 00 00 00 00 00... lsr     r11, r8, #0
00003AF8  35 5F 40 00 00 00 00 00... lsr     r11, r8, #0
00003B00  35 5F 40 00 00 00 00 00... lsr     r11, r8, #0
00003B08  35 5F 40 00 00 00 00 00... lsr     r11, r8, #0
00003B10  35 5F 40 00 00 00 00 00... lsr     r11, r8, #0
00003B18  35 5F 40 00 00 00 00 00... lsr     r11, r8, #0
00003B20  35 5F 40 00 00 00 00 00... lsr     r11, r8, #0
00003B28  35 5F 40 00 00 00 00 00... lsr     r11, r8, #0
00003B30  35 5F 40 00 00 00 00 00... lsr     r11, r8, #0
00003B38  35 5F 40 00 00 00 00 00... lsr     r11, r8, #0
00003B40  35 5F 40 00 00 00 00 00... lsr     r11, r8, #0
00003B48  35 5F 40 00 00 00 00 00... lsr     r11, r8, #0
00003B50  35 5F 40 00 0C 00 00 00... lsr     r11, r8, #12
00003B58  20 5E 40 40 00 00 00 00... add     r11, r8, r8
00003B60  35 5F 40 00 0C 00 00 00... lsr     r11, r8, #12
00003B68  20 5E 40 40 00 00 00 00... add     r11, r8, r8
00003B70  35 5F 40 00 0C 00 00 00... lsr     r11, r8, #12
00003B78  35 5F 40 00 00 00 00 00... lsr     r11, r8, #0
00003B80  35 5F 40 00 00 00 00 00... lsr     r11, r8, #0
00003B88  35 5F 40 00 00 00 00 00... lsr     r11, r8, #0
00003B90  35 5F 40 00 00 00 00 00... lsr     r11, r8, #0
00003B98  35 5F 40 00 00 00 00 00... lsr     r11, r8, #0
00003BA0  35 5F 40 00 00 00 00 00... lsr     r11, r8, #0
00003BA8  35 5F 40 00 00 00 00 00... lsr     r11, r8, #0
00003BB0  35 5F 40 00 00 00 00 00... lsr     r11, r8, #0
00003BB8  35 5F 40 00 00 00 00 00... lsr     r11, r8, #0
00003BC0  35 5F 40 00 00 00 00 00... lsr     r11, r8, #0
00003BC8  35 5F 40 00 00 00 00 00... lsr     r11, r8, #0
00003BD0  35 5F 40 00 00 00 00 00... lsr     r11, r8, #0
00003BD8  35 5F 40 00 00 00 00 00... lsr     r11, r8, #0
00003BE0  35 5F 40 00 0C 00 00 00... lsr     r11, r8, #12
00003BE8  35 5F 40 00 00 00 00 00... lsr     r11, r8, #0
00003BF0  35 5F 40 00 00 00 00 00... lsr     r11, r8, #0
00003BF8  35 5F 40 00 00 00 00 00... lsr     r11, r8, #0
00003C00  35 5F 40 00 00 00 00 00... lsr     r11, r8, #0
00003C08  35 5F 40 00 00 00 00 00... lsr     r11, r8, #0
00003C10  35 5F 40 00 00 00 00 00... lsr     r11, r8, #0
00003C18  35 5F 40 00 00 00 00 00... lsr     r11, r8, #0
00003C20  35 5F 40 00 00 00 00 00... lsr     r11, r8, #0
00003C28  35 5F 40 00 00 00 00 00... lsr     r11, r8, #0
00003C30  35 5F 40 00 00 00 00 00... lsr     r11, r8, #0
00003C38  35 5F 40 00 0C 00 00 00... lsr     r11, r8, #12
00003C40  20 5E 40 40 00 00 00 00... add     r11, r8, r8
00003C48  35 5F 40 00 0C 00 00 00... lsr     r11, r8, #12
00003C50  35 5F 40 00 00 00 00 00... lsr     r11, r8, #0
00003C58  35 5F 40 00 00 00 00 00... lsr     r11, r8, #0
00003C60  35 77 40 00 00 00 00 00... lsr     r14, r8, #0
00003C68  35 5F 40 00 00 00 00 00... lsr     r11, r8, #0
00003C70  35 77 40 00 00 00 00 00... lsr     r14, r8, #0
00003C78  35 5F 40 00 00 00 00 00... lsr     r11, r8, #0
00003C80  35 5F 40 00 00 00 00 00... lsr     r11, r8, #0
00003C88  35 77 40 00 00 00 00 00... lsr     r14, r8, #0
00003C90  35 5F 40 00 00 00 00 00... lsr     r11, r8, #0
00003C98  35 77 40 00 00 00 00 00... lsr     r14, r8, #0
00003CA0  35 5F 40 00 00 00 00 00... lsr     r11, r8, #0
00003CA8  35 77 40 00 00 00 00 00... lsr     r14, r8, #0
00003CB0  35 5F 40 00 00 00 00 00... lsr     r11, r8, #0
00003CB8  35 77 40 00 00 00 00 00... lsr     r14, r8, #0
00003CC0  35 5F 40 00 00 00 00 00... lsr     r11, r8, #0
00003CC8  35 5F 40 00 00 00 00 00... lsr     r11, r8, #0
00003CD0  35 5F 40 00 00 00 00 00... lsr     r11, r8, #0
00003CD8  35 5F 40 00 00 00 00 00... lsr     r11, r8, #0
00003CE0  35 5F 40 00 00 00 00 00... lsr     r11, r8, #0
00003CE8  35 5F 40 00 00 00 00 00... lsr     r11, r8, #0
00003CF0  35 5F 40 00 00 00 00 00... lsr     r11, r8, #0
00003CF8  35 77 40 00 00 00 00 00... lsr     r14, r8, #0
00003D00  35 5F 40 00 00 00 00 00... lsr     r11, r8, #0
00003D08  35 77 40 00 00 00 00 00... lsr     r14, r8, #0
00003D10  35 5F 40 00 00 00 00 00... lsr     r11, r8, #0
00003D18  35 5F 40 00 00 00 00 00... lsr     r11, r8, #0
00003D20  35 77 40 00 00 00 00 00... lsr     r14, r8, #0
00003D28  35 5F 40 00 00 00 00 00... lsr     r11, r8, #0
00003D30  35 77 40 00 00 00 00 00... lsr     r14, r8, #0
00003D38  35 5F 40 00 00 00 00 00... lsr     r11, r8, #0
00003D40  35 77 40 00 00 00 00 00... lsr     r14, r8, #0
00003D48  35 5F 40 00 00 00 00 00... lsr     r11, r8, #0
00003D50  35 77 40 00 00 00 00 00... lsr     r14, r8, #0
00003D58  35 5F 40 00 00 00 00 00... lsr     r11, r8, #0
00003D60  35 5F 40 00 00 00 00 00... lsr     r11, r8, #0
00003D68  35 5F 40 00 00 00 00 00... lsr     r11, r8, #0
00003D70  35 77 40 00 00 00 00 00... lsr     r14, r8, #0
00003D78  35 5F 40 00 00 00 00 00... lsr     r11, r8, #0
00003D80  35 5F 40 00 0C 00 00 00... lsr     r11, r8, #12
00003D88  20 5E 40 40 00 00 00 00... add     r11, r8, r8
00003D90  35 77 40 00 0C 00 00 00... lsr     r14, r8, #12
00003D98  35 5F 40 00 00 00 00 00... lsr     r11, r8, #0
00003DA0  35 77 40 00 00 00 00 00... lsr     r14, r8, #0
00003DA8  35 5F 40 00 00 00 00 00... lsr     r11, r8, #0
00003DB0  35 5F 40 00 00 00 00 00... lsr     r11, r8, #0
00003DB8  35 77 40 00 00 00 00 00... lsr     r14, r8, #0
00003DC0  35 5F 40 00 00 00 00 00... lsr     r11, r8, #0
00003DC8  35 77 40 00 00 00 00 00... lsr     r14, r8, #0
00003DD0  35 5F 40 00 00 00 00 00... lsr     r11, r8, #0
00003DD8  35 77 40 00 00 00 00 00... lsr     r14, r8, #0
00003DE0  35 5F 40 00 00 00 00 00... lsr     r11, r8, #0
00003DE8  35 77 40 00 00 00 00 00... lsr     r14, r8, #0
00003DF0  35 5F 40 00 00 00 00 00... lsr     r11, r8, #0
00003DF8  35 77 40 00 00 00 00 00... lsr     r14, r8, #0
00003E00  35 5F 40 00 00 00 00 00... lsr     r11, r8, #0
00003E08  35 77 40 00 00 00 00 00... lsr     r14, r8, #0
00003E10  35 5F 40 00 00 00 00 00... lsr     r11, r8, #0
00003E18  35 77 40 00 00 00 00 00... lsr     r14, r8, #0
00003E20  35 5F 40 00 00 00 00 00... lsr     r11, r8, #0
00003E28  35 77 40 00 00 00 00 00... lsr     r14, r8, #0
00003E30  35 5F 40 00 00 00 00 00... lsr     r11, r8, #0
00003E38  35 77 40 00 00 00 00 00... lsr     r14, r8, #0
00003E40  35 5F 40 00 00 00 00 00... lsr     r11, r8, #0
00003E48  35 5F 40 00 00 00 00 00... lsr     r11, r8, #0
00003E50  35 5F 40 00 00 00 00 00... lsr     r11, r8, #0
00003E58  35 5F 40 00 00 00 00 00... lsr     r11, r8, #0
00003E60  35 5F 40 00 00 00 00 00... lsr     r11, r8, #0
00003E68  35 5F 40 00 00 00 00 00... lsr     r11, r8, #0
00003E70  35 77 40 00 00 00 00 00... lsr     r14, r8, #0
00003E78  35 5F 40 00 00 00 00 00... lsr     r11, r8, #0
00003E80  35 77 40 00 00 00 00 00... lsr     r14, r8, #0
00003E88  35 5F 40 00 00 00 00 00... lsr     r11, r8, #0
00003E90  35 77 40 00 00 00 00 00... lsr     r14, r8, #0
00003E98  35 5F 40 00 00 00 00 00... lsr     r11, r8, #0
00003EA0  35 5F 40 00 00 00 00 00... lsr     r11, r8, #0
00003EA8  35 77 40 00 00 00 00 00... lsr     r14, r8, #0
00003EB0  35 5F 40 00 00 00 00 00... lsr     r11, r8, #0
00003EB8  35 77 40 00 00 00 00 00... lsr     r14, r8, #0
00003EC0  35 5F 40 00 00 00 00 00... lsr     r11, r8, #0
00003EC8  35 77 40 00 00 00 00 00... lsr     r14, r8, #0
00003ED0  35 5F 40 00 00 00 00 00... lsr     r11, r8, #0
00003ED8  35 5F 40 00 00 00 00 00... lsr     r11, r8, #0
00003EE0  35 77 40 00 00 00 00 00... lsr     r14, r8, #0
00003EE8  35 5F 40 00 00 00 00 00... lsr     r11, r8, #0
00003EF0  35 77 40 00 00 00 00 00... lsr     r14, r8, #0
00003EF8  35 5F 40 00 00 00 00 00... lsr     r11, r8, #0
00003F00  35 5F 40 00 00 00 00 00... lsr     r11, r8, #0
00003F08  35 5F 40 00 00 00 00 00... lsr     r11, r8, #0
00003F10  35 77 40 00 00 00 00 00... lsr     r14, r8, #0
00003F18  35 5F 40 00 00 00 00 00... lsr     r11, r8, #0
00003F20  35 77 40 00 00 00 00 00... lsr     r14, r8, #0
00003F28  35 5F 40 00 00 00 00 00... lsr     r11, r8, #0
00003F30  35 5F 40 00 0C 00 00 00... lsr     r11, r8, #12
00003F38  35 77 40 00 00 00 00 00... lsr     r14, r8, #0
00003F40  35 5F 40 00 00 00 00 00... lsr     r11, r8, #0
00003F48  35 77 40 00 00 00 00 00... lsr     r14, r8, #0
00003F50  35 5F 40 00 00 00 00 00... lsr     r11, r8, #0
00003F58  35 5F 40 00 00 00 00 00... lsr     r11, r8, #0
00003F60  35 5F 40 00 00 00 00 00... lsr     r11, r8, #0
00003F68  35 5F 40 00 00 00 00 00... lsr     r11, r8, #0
00003F70  35 5F 40 00 00 00 00 00... lsr     r11, r8, #0
00003F78  35 77 40 00 00 00 00 00... lsr     r14, r8, #0
00003F80  35 5F 40 00 00 00 00 00... lsr     r11, r8, #0
00003F88  35 77 40 00 00 00 00 00... lsr     r14, r8, #0
00003F90  35 5F 40 00 00 00 00 00... lsr     r11, r8, #0
00003F98  35 77 40 00 00 00 00 00... lsr     r14, r8, #0
00003FA0  35 5F 40 00 00 00 00 00... lsr     r11, r8, #0
00003FA8  35 5F 40 00 00 00 00 00... lsr     r11, r8, #0
00003FB0  35 77 40 00 00 00 00 00... lsr     r14, r8, #0
00003FB8  35 5F 40 00 00 00 00 00... lsr     r11, r8, #0
00003FC0  35 5F 40 00 0C 00 00 00... lsr     r11, r8, #12
00003FC8  35 77 40 00 0C 00 00 00... lsr     r14, r8, #12
00003FD0  35 5F 40 00 00 00 00 00... lsr     r11, r8, #0
00003FD8  35 77 40 00 00 00 00 00... lsr     r14, r8, #0
00003FE0  35 5F 40 00 00 00 00 00... lsr     r11, r8, #0
00003FE8  35 77 40 00 00 00 00 00... lsr     r14, r8, #0
00003FF0  35 5F 40 00 00 00 00 00... lsr     r11, r8, #0
00003FF8  35 5F 40 00 00 00 00 00... lsr     r11, r8, #0
00004000  35 77 40 00 00 00 00 00... lsr     r14, r8, #0
00004008  35 5F 40 00 00 00 00 00... lsr     r11, r8, #0
00004010  35 77 40 00 00 00 00 00... lsr     r14, r8, #0
00004018  35 5F 40 00 00 00 00 00... lsr     r11, r8, #0
00004020  35 5F 40 00 0C 00 00 00... lsr     r11, r8, #12
00004028  35 77 40 00 0C 00 00 00... lsr     r14, r8, #12
00004030  35 5F 40 00 00 00 00 00... lsr     r11, r8, #0
00004038  35 77 40 00 00 00 00 00... lsr     r14, r8, #0
00004040  35 5F 40 00 00 00 00 00... lsr     r11, r8, #0
00004048  35 77 40 00 00 00 00 00... lsr     r14, r8, #0
00004050  35 5F 40 00 00 00 00 00... lsr     r11, r8, #0
00004058  35 5F 40 00 00 00 00 00... lsr     r11, r8, #0
00004060  35 77 40 00 00 00 00 00... lsr     r14, r8, #0
00004068  35 5F 40 00 00 00 00 00... lsr     r11, r8, #0
00004070  35 77 40 00 00 00 00 00... lsr     r14, r8, #0
00004078  35 5F 40 00 00 00 00 00... lsr     r11, r8, #0
00004080  35 77 40 00 00 00 00 00... lsr     r14, r8, #0
00004088  35 5F 40 00 00 00 00 00... lsr     r11, r8, #0
00004090  35 5F 40 00 00 00 00 00... lsr     r11, r8, #0
00004098  35 77 40 00 00 00 00 00... lsr     r14, r8, #0
000040A0  35 5F 40 00 00 00 00 00... lsr     r11, r8, #0
000040A8  35 5F 40 00 00 00 00 00... lsr     r11, r8, #0
000040B0  35 77 40 00 00 00 00 00... lsr     r14, r8, #0
000040B8  35 5F 40 00 00 00 00 00... lsr     r11, r8, #0
000040C0  35 77 40 00 00 00 00 00... lsr     r14, r8, #0
000040C8  35 5F 40 00 00 00 00 00... lsr     r11, r8, #0
000040D0  35 5F 40 00 00 00 00 00... lsr     r11, r8, #0
000040D8  35 77 40 00 00 00 00 00... lsr     r14, r8, #0
000040E0  35 5F 40 00 00 00 00 00... lsr     r11, r8, #0
000040E8  35 77 40 00 00 00 00 00... lsr     r14, r8, #0
000040F0  35 5F 40 00 00 00 00 00... lsr     r11, r8, #0
000040F8  35 5F 40 00 00 00 00 00... lsr     r11, r8, #0
00004100  35 5F 40 00 00 00 00 00... lsr     r11, r8, #0
00004108  35 77 40 00 00 00 00 00... lsr     r14, r8, #0
00004110  35 5F 40 00 00 00 00 00... lsr     r11, r8, #0
00004118  35 77 40 00 00 00 00 00... lsr     r14, r8, #0
00004120  35 5F 40 00 00 00 00 00... lsr     r11, r8, #0
00004128  35 77 40 00 00 00 00 00... lsr     r14, r8, #0
00004130  35 5F 40 00 00 00 00 00... lsr     r11, r8, #0
00004138  35 5F 40 00 00 00 00 00... lsr     r11, r8, #0
00004140  35 5F 40 00 00 00 00 00... lsr     r11, r8, #0
00004148  35 77 40 00 00 00 00 00... lsr     r14, r8, #0
00004150  35 5F 40 00 00 00 00 00... lsr     r11, r8, #0
00004158  35 77 40 00 00 00 00 00... lsr     r14, r8, #0
00004160  35 5F 40 00 00 00 00 00... lsr     r11, r8, #0
00004168  35 77 40 00 00 00 00 00... lsr     r14, r8, #0
00004170  35 5F 40 00 00 00 00 00... lsr     r11, r8, #0
00004178  35 5F 40 00 00 00 00 00... lsr     r11, r8, #0
00004180  35 5F 40 00 00 00 00 00... lsr     r11, r8, #0
00004188  35 5F 40 00 00 00 00 00... lsr     r11, r8, #0
00004190  35 77 40 00 00 00 00 00... lsr     r14, r8, #0
00004198  35 5F 40 00 00 00 00 00... lsr     r11, r8, #0
000041A0  35 77 40 00 00 00 00 00... lsr     r14, r8, #0
000041A8  35 5F 40 00 00 00 00 00... lsr     r11, r8, #0
000041B0  35 5F 40 00 0C 00 00 00... lsr     r11, r8, #12
000041B8  35 77 40 00 0C 00 00 00... lsr     r14, r8, #12
000041C0  35 5F 40 00 00 00 00 00... lsr     r11, r8, #0
000041C8  35 77 40 00 00 00 00 00... lsr     r14, r8, #0
000041D0  35 5F 40 00 00 00 00 00... lsr     r11, r8, #0
000041D8  35 77 40 00 00 00 00 00... lsr     r14, r8, #0
000041E0  35 5F 40 00 00 00 00 00... lsr     r11, r8, #0
000041E8  35 5F 40 00 00 00 00 00... lsr     r11, r8, #0
000041F0  35 77 40 00 00 00 00 00... lsr     r14, r8, #0
000041F8  35 5F 40 00 00 00 00 00... lsr     r11, r8, #0
00004200  35 5F 40 00 0C 00 00 00... lsr     r11, r8, #12
00004208  35 5F 40 00 00 00 00 00... lsr     r11, r8, #0
00004210  35 5F 40 00 00 00 00 00... lsr     r11, r8, #0
00004218  35 5F 40 00 00 00 00 00... lsr     r11, r8, #0
00004220  35 5F 40 00 0C 00 00 00... lsr     r11, r8, #12
00004228  35 5F 40 00 00 00 00 00... lsr     r11, r8, #0
00004230  35 5F 40 00 00 00 00 00... lsr     r11, r8, #0
00004238  35 5F 40 00 00 00 00 00... lsr     r11, r8, #0
00004240  35 5F 40 00 00 00 00 00... lsr     r11, r8, #0
00004248  35 5F 40 00 0C 00 00 00... lsr     r11, r8, #12
00004250  35 5F 40 00 00 00 00 00... lsr     r11, r8, #0
00004258  35 5F 40 00 00 00 00 00... lsr     r11, r8, #0
00004260  35 5F 40 00 00 00 00 00... lsr     r11, r8, #0
00004268  35 5F 40 00 00 00 00 00... lsr     r11, r8, #0
00004270  35 5F 40 00 0C 00 00 00... lsr     r11, r8, #12
00004278  35 77 40 00 0C 00 00 00... lsr     r14, r8, #12
00004280  35 5F 40 00 00 00 00 00... lsr     r11, r8, #0
00004288  35 77 40 00 00 00 00 00... lsr     r14, r8, #0
00004290  35 5F 40 00 00 00 00 00... lsr     r11, r8, #0
00004298  35 5F 40 00 00 00 00 00... lsr     r11, r8, #0
000042A0  35 5F 40 00 0C 00 00 00... lsr     r11, r8, #12
000042A8  35 77 40 00 0C 00 00 00... lsr     r14, r8, #12
000042B0  35 5F 40 00 00 00 00 00... lsr     r11, r8, #0
000042B8  35 5F 40 00 00 00 00 00... lsr     r11, r8, #0
000042C0  35 5F 40 00 00 00 00 00... lsr     r11, r8, #0
000042C8  35 5F 40 00 00 00 00 00... lsr     r11, r8, #0
000042D0  35 5F 40 00 00 00 00 00... lsr     r11, r8, #0
000042D8  35 5F 40 00 00 00 00 00... lsr     r11, r8, #0
000042E0  35 5F 40 00 00 00 00 00... lsr     r11, r8, #0
000042E8  35 5F 40 00 00 00 00 00... lsr     r11, r8, #0
000042F0  35 5F 40 00 00 00 00 00... lsr     r11, r8, #0
000042F8  35 5F 40 00 00 00 00 00... lsr     r11, r8, #0
00004300  35 5F 40 00 0C 00 00 00... lsr     r11, r8, #12
00004308  35 77 40 00 0C 00 00 00... lsr     r14, r8, #12
00004310  35 5F 40 00 00 00 00 00... lsr     r11, r8, #0
00004318  35 77 40 00 00 00 00 00... lsr     r14, r8, #0
00004320  35 5F 40 00 00 00 00 00... lsr     r11, r8, #0
00004328  35 77 40 00 00 00 00 00... lsr     r14, r8, #0
00004330  35 5F 40 00 00 00 00 00... lsr     r11, r8, #0
00004338  35 77 40 00 00 00 00 00... lsr     r14, r8, #0
00004340  35 5F 40 00 00 00 00 00... lsr     r11, r8, #0
00004348  35 5F 40 00 00 00 00 00... lsr     r11, r8, #0
00004350  35 5F 40 00 00 00 00 00... lsr     r11, r8, #0
00004358  35 77 40 00 0C 00 00 00... lsr     r14, r8, #12
00004360  35 5F 40 00 0C 00 00 00... lsr     r11, r8, #12
00004368  20 5E 40 40 00 00 00 00... add     r11, r8, r8
00004370  35 5F 40 00 0C 00 00 00... lsr     r11, r8, #12
00004378  35 77 40 00 00 00 00 00... lsr     r14, r8, #0
00004380  35 5F 40 00 00 00 00 00... lsr     r11, r8, #0
00004388  35 5F 40 00 00 00 00 00... lsr     r11, r8, #0
00004390  35 5F 40 00 0C 00 00 00... lsr     r11, r8, #12
00004398  20 5E 40 40 00 00 00 00... add     r11, r8, r8
000043A0  35 5F 40 00 0C 00 00 00... lsr     r11, r8, #12
000043A8  35 5F 40 00 00 00 00 00... lsr     r11, r8, #0
000043B0  35 5F 40 00 00 00 00 00... lsr     r11, r8, #0
000043B8  35 5F 40 00 0C 00 00 00... lsr     r11, r8, #12
000043C0  35 77 40 00 0C 00 00 00... lsr     r14, r8, #12
000043C8  35 5F 40 00 00 00 00 00... lsr     r11, r8, #0
000043D0  35 5F 40 00 00 00 00 00... lsr     r11, r8, #0
000043D8  35 5F 40 00 0C 00 00 00... lsr     r11, r8, #12
000043E0  35 77 40 00 0C 00 00 00... lsr     r14, r8, #12
000043E8  35 5F 40 00 00 00 00 00... lsr     r11, r8, #0
000043F0  35 5F 40 00 00 00 00 00... lsr     r11, r8, #0
000043F8  35 5F 40 00 0C 00 00 00... lsr     r11, r8, #12
00004400  35 77 40 00 0C 00 00 00... lsr     r14, r8, #12
00004408  35 5F 40 00 00 00 00 00... lsr     r11, r8, #0
00004410  35 5F 40 00 00 00 00 00... lsr     r11, r8, #0
00004418  35 5F 40 00 0C 00 00 00... lsr     r11, r8, #12
00004420  35 77 40 00 0C 00 00 00... lsr     r14, r8, #12
00004428  35 5F 40 00 00 00 00 00... lsr     r11, r8, #0
00004430  35 5F 40 00 00 00 00 00... lsr     r11, r8, #0
00004438  35 5F 40 00 0C 00 00 00... lsr     r11, r8, #12
00004440  35 77 40 00 0C 00 00 00... lsr     r14, r8, #12
00004448  35 5F 40 00 00 00 00 00... lsr     r11, r8, #0
00004450  35 77 40 00 00 00 00 00... lsr     r14, r8, #0
00004458  35 5F 40 00 00 00 00 00... lsr     r11, r8, #0
00004460  35 5F 40 00 00 00 00 00... lsr     r11, r8, #0
00004468  35 77 40 00 00 00 00 00... lsr     r14, r8, #0
00004470  35 5F 40 00 00 00 00 00... lsr     r11, r8, #0
00004478  35 77 40 00 00 00 00 00... lsr     r14, r8, #0
00004480  35 5F 40 00 00 00 00 00... lsr     r11, r8, #0
00004488  35 5F 40 00 00 00 00 00... lsr     r11, r8, #0
00004490  35 5F 40 00 00 00 00 00... lsr     r11, r8, #0
00004498  35 5F 40 00 00 00 00 00... lsr     r11, r8, #0
000044A0  35 5F 40 00 00 00 00 00... lsr     r11, r8, #0
000044A8  35 77 40 00 00 00 00 00... lsr     r14, r8, #0
000044B0  35 5F 40 00 00 00 00 00... lsr     r11, r8, #0
000044B8  35 77 40 00 00 00 00 00... lsr     r14, r8, #0
000044C0  35 5F 40 00 00 00 00 00... lsr     r11, r8, #0
000044C8  35 77 40 00 00 00 00 00... lsr     r14, r8, #0
000044D0  35 5F 40 00 00 00 00 00... lsr     r11, r8, #0
000044D8  35 5F 40 00 00 00 00 00... lsr     r11, r8, #0
000044E0  35 77 40 00 00 00 00 00... lsr     r14, r8, #0
000044E8  35 5F 40 00 00 00 00 00... lsr     r11, r8, #0
000044F0  35 77 40 00 00 00 00 00... lsr     r14, r8, #0
000044F8  35 5F 40 00 00 00 00 00... lsr     r11, r8, #0
00004500  35 5F 40 00 00 00 00 00... lsr     r11, r8, #0
00004508  35 5F 40 00 00 00 00 00... lsr     r11, r8, #0
00004510  35 77 40 00 00 00 00 00... lsr     r14, r8, #0
00004518  35 5F 40 00 00 00 00 00... lsr     r11, r8, #0
00004520  35 77 40 00 00 00 00 00... lsr     r14, r8, #0
00004528  35 5F 40 00 00 00 00 00... lsr     r11, r8, #0
00004530  35 5F 40 00 00 00 00 00... lsr     r11, r8, #0
00004538  35 77 40 00 00 00 00 00... lsr     r14, r8, #0
00004540  35 5F 40 00 00 00 00 00... lsr     r11, r8, #0
00004548  35 5F 40 00 00 00 00 00... lsr     r11, r8, #0
00004550  35 77 40 00 00 00 00 00... lsr     r14, r8, #0
00004558  35 5F 40 00 00 00 00 00... lsr     r11, r8, #0
00004560  35 5F 40 00 00 00 00 00... lsr     r11, r8, #0
00004568  35 5F 40 00 00 00 00 00... lsr     r11, r8, #0
00004570  35 77 40 00 00 00 00 00... lsr     r14, r8, #0
00004578  35 5F 40 00 00 00 00 00... lsr     r11, r8, #0
00004580  35 77 40 00 00 00 00 00... lsr     r14, r8, #0
00004588  35 5F 40 00 00 00 00 00... lsr     r11, r8, #0
00004590  35 77 40 00 00 00 00 00... lsr     r14, r8, #0
00004598  35 5F 40 00 00 00 00 00... lsr     r11, r8, #0
000045A0  35 5F 40 00 00 00 00 00... lsr     r11, r8, #0
000045A8  35 5F 40 00 00 00 00 00... lsr     r11, r8, #0
000045B0  35 5F 40 00 00 00 00 00... lsr     r11, r8, #0
000045B8  35 5F 40 00 00 00 00 00... lsr     r11, r8, #0
000045C0  35 5F 40 00 00 00 00 00... lsr     r11, r8, #0
000045C8  35 5F 40 00 00 00 00 00... lsr     r11, r8, #0
000045D0  35 5F 40 00 00 00 00 00... lsr     r11, r8, #0
000045D8  35 5F 40 00 00 00 00 00... lsr     r11, r8, #0
000045E0  35 5F 40 00 00 00 00 00... lsr     r11, r8, #0
000045E8  35 77 40 00 00 00 00 00... lsr     r14, r8, #0
000045F0  35 5F 40 00 00 00 00 00... lsr     r11, r8, #0
000045F8  35 77 40 00 00 00 00 00... lsr     r14, r8, #0
00004600  35 5F 40 00 00 00 00 00... lsr     r11, r8, #0
00004608  35 5F 40 00 00 00 00 00... lsr     r11, r8, #0
00004610  35 77 40 00 00 00 00 00... lsr     r14, r8, #0
00004618  35 5F 40 00 00 00 00 00... lsr     r11, r8, #0
00004620  35 77 40 00 00 00 00 00... lsr     r14, r8, #0
00004628  35 5F 40 00 00 00 00 00... lsr     r11, r8, #0
00004630  35 77 40 00 00 00 00 00... lsr     r14, r8, #0
00004638  35 5F 40 00 00 00 00 00... lsr     r11, r8, #0
00004640  35 5F 40 00 00 00 00 00... lsr     r11, r8, #0
00004648  35 5F 40 00 00 00 00 00... lsr     r11, r8, #0
00004650  35 77 40 00 00 00 00 00... lsr     r14, r8, #0
00004658  35 5F 40 00 00 00 00 00... lsr     r11, r8, #0
00004660  35 77 40 00 00 00 00 00... lsr     r14, r8, #0
00004668  35 5F 40 00 00 00 00 00... lsr     r11, r8, #0
00004670  35 77 40 00 00 00 00 00... lsr     r14, r8, #0
00004678  35 5F 40 00 00 00 00 00... lsr     r11, r8, #0
00004680  35 5F 40 00 00 00 00 00... lsr     r11, r8, #0
00004688  35 5F 40 00 00 00 00 00... lsr     r11, r8, #0
00004690  35 5F 40 00 00 00 00 00... lsr     r11, r8, #0
00004698  35 5F 40 00 00 00 00 00... lsr     r11, r8, #0
000046A0  35 5F 40 00 00 00 00 00... lsr     r11, r8, #0
000046A8  35 77 40 00 00 00 00 00... lsr     r14, r8, #0
000046B0  35 5F 40 00 00 00 00 00... lsr     r11, r8, #0
000046B8  35 77 40 00 00 00 00 00... lsr     r14, r8, #0
000046C0  35 5F 40 00 00 00 00 00... lsr     r11, r8, #0
000046C8  35 77 40 00 00 00 00 00... lsr     r14, r8, #0
000046D0  35 5F 40 00 00 00 00 00... lsr     r11, r8, #0
000046D8  35 5F 40 00 00 00 00 00... lsr     r11, r8, #0
000046E0  35 5F 40 00 00 00 00 00... lsr     r11, r8, #0
000046E8  35 5F 40 00 00 00 00 00... lsr     r11, r8, #0
000046F0  35 77 40 00 00 00 00 00... lsr     r14, r8, #0
000046F8  35 5F 40 00 00 00 00 00... lsr     r11, r8, #0
00004700  35 77 40 00 00 00 00 00... lsr     r14, r8, #0
00004708  35 5F 40 00 00 00 00 00... lsr     r11, r8, #0
00004710  35 5F 40 00 00 00 00 00... lsr     r11, r8, #0
00004718  35 5F 40 00 00 00 00 00... lsr     r11, r8, #0
00004720  35 77 40 00 00 00 00 00... lsr     r14, r8, #0
00004728  35 5F 40 00 00 00 00 00... lsr     r11, r8, #0
00004730  35 77 40 00 00 00 00 00... lsr     r14, r8, #0
00004738  35 5F 40 00 00 00 00 00... lsr     r11, r8, #0
00004740  35 5F 40 00 00 00 00 00... lsr     r11, r8, #0
00004748  35 5F 40 00 00 00 00 00... lsr     r11, r8, #0
00004750  35 5F 40 00 00 00 00 00... lsr     r11, r8, #0
00004758  35 5F 40 00 00 00 00 00... lsr     r11, r8, #0
00004760  35 5F 40 00 00 00 00 00... lsr     r11, r8, #0
00004768  35 5F 40 00 00 00 00 00... lsr     r11, r8, #0
00004770  35 5F 40 00 0C 00 00 00... lsr     r11, r8, #12
00004778  35 77 40 00 0C 00 00 00... lsr     r14, r8, #12
00004780  35 5F 40 00 00 00 00 00... lsr     r11, r8, #0
00004788  35 77 40 00 00 00 00 00... lsr     r14, r8, #0
00004790  35 5F 40 00 00 00 00 00... lsr     r11, r8, #0
00004798  35 77 40 00 00 00 00 00... lsr     r14, r8, #0
000047A0  35 5F 40 00 00 00 00 00... lsr     r11, r8, #0
000047A8  35 5F 40 00 00 00 00 00... lsr     r11, r8, #0
000047B0  35 77 40 00 00 00 00 00... lsr     r14, r8, #0
000047B8  35 5F 40 00 00 00 00 00... lsr     r11, r8, #0
000047C0  35 77 40 00 00 00 00 00... lsr     r14, r8, #0
000047C8  35 5F 40 00 00 00 00 00... lsr     r11, r8, #0
000047D0  35 5F 40 00 00 00 00 00... lsr     r11, r8, #0
000047D8  35 77 40 00 00 00 00 00... lsr     r14, r8, #0
000047E0  35 5F 40 00 00 00 00 00... lsr     r11, r8, #0
000047E8  35 77 40 00 00 00 00 00... lsr     r14, r8, #0
000047F0  35 5F 40 00 00 00 00 00... lsr     r11, r8, #0
000047F8  35 5F 40 00 00 00 00 00... lsr     r11, r8, #0
00004800  35 77 40 00 00 00 00 00... lsr     r14, r8, #0
00004808  35 5F 40 00 00 00 00 00... lsr     r11, r8, #0
00004810  35 77 40 00 00 00 00 00... lsr     r14, r8, #0
00004818  35 5F 40 00 00 00 00 00... lsr     r11, r8, #0
00004820  35 5F 40 00 00 00 00 00... lsr     r11, r8, #0
00004828  35 5F 40 00 00 00 00 00... lsr     r11, r8, #0
00004830  35 5F 40 00 00 00 00 00... lsr     r11, r8, #0
00004838  35 5F 40 00 00 00 00 00... lsr     r11, r8, #0
00004840  35 5F 40 00 00 00 00 00... lsr     r11, r8, #0
00004848  35 5F 40 00 00 00 00 00... lsr     r11, r8, #0
00004850  35 5F 40 00 0C 00 00 00... lsr     r11, r8, #12
00004858  35 77 40 00 0C 00 00 00... lsr     r14, r8, #12
00004860  35 5F 40 00 00 00 00 00... lsr     r11, r8, #0
00004868  35 5F 40 00 00 00 00 00... lsr     r11, r8, #0
00004870  35 5F 40 00 00 00 00 00... lsr     r11, r8, #0
00004878  35 77 40 00 00 00 00 00... lsr     r14, r8, #0
00004880  35 5F 40 00 00 00 00 00... lsr     r11, r8, #0
00004888  35 5F 40 00 00 00 00 00... lsr     r11, r8, #0
00004890  35 5F 40 00 0C 00 00 00... lsr     r11, r8, #12
00004898  35 77 40 00 0C 00 00 00... lsr     r14, r8, #12
000048A0  35 5F 40 00 00 00 00 00... lsr     r11, r8, #0
000048A8  35 77 40 00 00 00 00 00... lsr     r14, r8, #0
000048B0  35 5F 40 00 00 00 00 00... lsr     r11, r8, #0
000048B8  35 5F 40 00 00 00 00 00... lsr     r11, r8, #0
000048C0  35 77 40 00 00 00 00 00... lsr     r14, r8, #0
000048C8  35 5F 40 00 00 00 00 00... lsr     r11, r8, #0
000048D0  35 5F 40 00 00 00 00 00... lsr     r11, r8, #0
000048D8  35 5F 40 00 00 00 00 00... lsr     r11, r8, #0
000048E0  35 5F 40 00 0C 00 00 00... lsr     r11, r8, #12
000048E8  35 77 40 00 0C 00 00 00... lsr     r14, r8, #12
000048F0  35 5F 40 00 00 00 00 00... lsr     r11, r8, #0
000048F8  35 77 40 00 00 00 00 00... lsr     r14, r8, #0
00004900  35 5F 40 00 00 00 00 00... lsr     r11, r8, #0
00004908  35 5F 40 00 00 00 00 00... lsr     r11, r8, #0
00004910  35 77 40 00 00 00 00 00... lsr     r14, r8, #0
00004918  35 5F 40 00 00 00 00 00... lsr     r11, r8, #0
00004920  35 5F 40 00 00 00 00 00... lsr     r11, r8, #0
00004928  35 5F 40 00 00 00 00 00... lsr     r11, r8, #0
00004930  35 5F 40 00 0C 00 00 00... lsr     r11, r8, #12
00004938  35 77 40 00 0C 00 00 00... lsr     r14, r8, #12
00004940  35 5F 40 00 00 00 00 00... lsr     r11, r8, #0
00004948  35 77 40 00 00 00 00 00... lsr     r14, r8, #0
00004950  35 5F 40 00 00 00 00 00... lsr     r11, r8, #0
00004958  35 5F 40 00 00 00 00 00... lsr     r11, r8, #0
00004960  35 77 40 00 00 00 00 00... lsr     r14, r8, #0
00004968  35 5F 40 00 00 00 00 00... lsr     r11, r8, #0
00004970  35 5F 40 00 0C 00 00 00... lsr     r11, r8, #12
00004978  35 77 40 00 0C 00 00 00... lsr     r14, r8, #12
00004980  35 5F 40 00 00 00 00 00... lsr     r11, r8, #0
00004988  35 77 40 00 00 00 00 00... lsr     r14, r8, #0
00004990  35 5F 40 00 00 00 00 00... lsr     r11, r8, #0
00004998  35 5F 40 00 00 00 00 00... lsr     r11, r8, #0
000049A0  35 5F 40 00 00 00 00 00... lsr     r11, r8, #0
000049A8  35 5F 40 00 00 00 00 00... lsr     r11, r8, #0
000049B0  35 5F 40 00 00 00 00 00... lsr     r11, r8, #0
000049B8  35 5F 40 00 00 00 00 00... lsr     r11, r8, #0
000049C0  35 5F 40 00 00 00 00 00... lsr     r11, r8, #0
000049C8  35 5F 40 00 00 00 00 00... lsr     r11, r8, #0
000049D0  35 5F 40 00 00 00 00 00... lsr     r11, r8, #0
000049D8  35 77 40 00 00 00 00 00... lsr     r14, r8, #0
000049E0  35 5F 40 00 00 00 00 00... lsr     r11, r8, #0
000049E8  35 77 40 00 00 00 00 00... lsr     r14, r8, #0
000049F0  35 5F 40 00 00 00 00 00... lsr     r11, r8, #0
000049F8  35 5F 40 00 0C 00 00 00... lsr     r11, r8, #12
00004A00  35 5F 40 00 00 00 00 00... lsr     r11, r8, #0
00004A08  35 5F 40 00 00 00 00 00... lsr     r11, r8, #0
00004A10  35 5F 40 00 00 00 00 00... lsr     r11, r8, #0
00004A18  35 77 40 00 0C 00 00 00... lsr     r14, r8, #12
00004A20  20 76 40 40 00 00 00 00... add     r14, r8, r8
00004A28  35 77 40 00 0C 00 00 00... lsr     r14, r8, #12
00004A30  20 76 70 40 00 00 00 00... add     r14, r14, r8
00004A38  34 77 70 00 03 00 00 00... lsl     r14, r14, #3
00004A40  20 76 70 08 00 00 00 00... add     r14, r14, r1
00004A48  11 56 70 00 00 00 00 00... store.q r10, (r14)
00004A50  20 47 40 00 01 00 00 00... add     r8, r8, #1
00004A58  40 06 00 00 08 E6 FF FF... bra     .bupdd_data_loop
                         .bupdd_data_done:
00004A60  35 4F 60 00 0C 00 00 00... lsr     r9, r12, #12
00004A68  34 57 48 00 0D 00 00 00... lsl     r10, r9, #13
00004A70  31 57 50 00 13 00 00 00... or      r10, r10, #(PTE_P | PTE_R | PTE_U)
00004A78  34 5F 48 00 03 00 00 00... lsl     r11, r9, #3
00004A80  20 5E 58 08 00 00 00 00... add     r11, r11, r1
00004A88  11 56 58 00 00 00 00 00... store.q r10, (r11)
00004A90  51 00 00 00 00 00 00 00... rts
                         build_user_pt_dynamic_targets:
00004A98  10 66 F8 00 00 00 00 00... load.q  r12, (sp)
00004AA0  10 6F F8 00 08 00 00 00... load.q  r13, 8(sp)
00004AA8  52 06 A0 00 00 00 00 00... push    r20
00004AB0  52 06 A8 00 00 00 00 00... push    r21
00004AB8  52 06 B0 00 00 00 00 00... push    r22
00004AC0  52 06 B8 00 00 00 00 00... push    r23
00004AC8  52 06 C0 00 00 00 00 00... push    r24
00004AD0  52 06 C8 00 00 00 00 00... push    r25
00004AD8  52 06 D0 00 00 00 00 00... push    r26
00004AE0  52 06 D8 00 00 00 00 00... push    r27
00004AE8  01 A6 08 00 00 00 00 00... move.q  r20, r1
00004AF0  01 AE 10 00 00 00 00 00... move.q  r21, r2
00004AF8  01 B6 18 00 00 00 00 00... move.q  r22, r3
00004B00  01 BE 20 00 00 00 00 00... move.q  r23, r4
00004B08  01 C6 28 00 00 00 00 00... move.q  r24, r5
00004B10  01 CE 30 00 00 00 00 00... move.q  r25, r6
00004B18  01 D6 38 00 00 00 00 00... move.q  r26, r7
00004B20  01 DE 40 00 00 00 00 00... move.q  r27, r8
00004B28  01 15 00 00 00 D0 07 00... move.l  r2, #KERN_PAGE_TABLE
00004B30  01 25 00 00 00 00 00 00... move.l  r4, #0
                         .bupt_copy_kern:
00004B38  01 35 00 00 80 01 00 00... move.l  r6, #KERN_PAGES
00004B40  44 06 20 30 40 00 00 00... bge     r4, r6, .bupt_copy_pool
00004B48  34 2F 20 00 03 00 00 00... lsl     r5, r4, #3
00004B50  20 46 28 10 00 00 00 00... add     r8, r5, r2
00004B58  10 1E 40 00 00 00 00 00... load.q  r3, (r8)
00004B60  20 4E 28 A0 00 00 00 00... add     r9, r5, r20
00004B68  11 1E 48 00 00 00 00 00... store.q r3, (r9)
00004B70  20 27 20 00 01 00 00 00... add     r4, r4, #1
00004B78  40 06 00 00 C0 FF FF FF... bra     .bupt_copy_kern
                         .bupt_copy_pool:
00004B80  01 25 00 00 00 12 00 00... move.l  r4, #ALLOC_POOL_BASE
00004B88  01 35 00 00 00 0E 00 00... move.l  r6, #ALLOC_POOL_PAGES
00004B90  20 36 30 20 00 00 00 00... add     r6, r6, r4
                         .bupt_copy_pool_loop:
00004B98  44 06 20 30 40 00 00 00... bge     r4, r6, .bupt_copy_user
00004BA0  34 2F 20 00 03 00 00 00... lsl     r5, r4, #3
00004BA8  20 46 28 10 00 00 00 00... add     r8, r5, r2
00004BB0  10 1E 40 00 00 00 00 00... load.q  r3, (r8)
00004BB8  20 4E 28 A0 00 00 00 00... add     r9, r5, r20
00004BC0  11 1E 48 00 00 00 00 00... store.q r3, (r9)
00004BC8  20 27 20 00 01 00 00 00... add     r4, r4, #1
00004BD0  40 06 00 00 C8 FF FF FF... bra     .bupt_copy_pool_loop
                         .bupt_copy_user:
00004BD8  01 25 00 00 00 06 00 00... move.l  r4, #USER_CODE_VPN_BASE
00004BE0  01 35 00 00 00 08 00 00... move.l  r6, #USER_PT_PAGE_BASE
                         .bupt_copy_user_loop:
00004BE8  44 06 20 30 40 00 00 00... bge     r4, r6, .bupt_copy_userpt
00004BF0  34 2F 20 00 03 00 00 00... lsl     r5, r4, #3
00004BF8  20 46 28 10 00 00 00 00... add     r8, r5, r2
00004C00  10 1E 40 00 00 00 00 00... load.q  r3, (r8)
00004C08  20 4E 28 A0 00 00 00 00... add     r9, r5, r20
00004C10  11 1E 48 00 00 00 00 00... store.q r3, (r9)
00004C18  20 27 20 00 01 00 00 00... add     r4, r4, #1
00004C20  40 06 00 00 C8 FF FF FF... bra     .bupt_copy_user_loop
                         .bupt_copy_userpt:
00004C28  01 25 00 00 00 08 00 00... move.l  r4, #USER_PT_PAGE_BASE
00004C30  01 35 00 00 00 0A 00 00... move.l  r6, #USER_PT_PAGE_END
                         .bupt_copy_userpt_loop:
00004C38  44 06 20 30 40 00 00 00... bge     r4, r6, .bupt_map_code
00004C40  34 2F 20 00 03 00 00 00... lsl     r5, r4, #3
00004C48  20 46 28 10 00 00 00 00... add     r8, r5, r2
00004C50  10 1E 40 00 00 00 00 00... load.q  r3, (r8)
00004C58  20 4E 28 A0 00 00 00 00... add     r9, r5, r20
00004C60  11 1E 48 00 00 00 00 00... store.q r3, (r9)
00004C68  20 27 20 00 01 00 00 00... add     r4, r4, #1
00004C70  40 06 00 00 C8 FF FF FF... bra     .bupt_copy_userpt_loop
                         .bupt_map_code:
00004C78  01 45 00 00 00 00 00 00... move.l  r8, #0
                         .bupt_code_loop:
00004C80  44 06 40 B8 60 00 00 00... bge     r8, r23, .bupt_map_stack
00004C88  35 4F A8 00 0C 00 00 00... lsr     r9, r21, #12
00004C90  20 4E 48 40 00 00 00 00... add     r9, r9, r8
00004C98  34 57 48 00 0D 00 00 00... lsl     r10, r9, #13
00004CA0  31 57 50 00 1B 00 00 00... or      r10, r10, #(PTE_P | PTE_R | PTE_X | PTE_U)
00004CA8  35 5F B0 00 0C 00 00 00... lsr     r11, r22, #12
00004CB0  20 5E 58 40 00 00 00 00... add     r11, r11, r8
00004CB8  34 5F 58 00 03 00 00 00... lsl     r11, r11, #3
00004CC0  20 5E 58 A0 00 00 00 00... add     r11, r11, r20
00004CC8  11 56 58 00 00 00 00 00... store.q r10, (r11)
00004CD0  20 47 40 00 01 00 00 00... add     r8, r8, #1
00004CD8  40 06 00 00 A8 FF FF FF... bra     .bupt_code_loop
                         .bupt_map_stack:
00004CE0  01 45 00 00 00 00 00 00... move.l  r8, #0
                         .bupt_stack_loop:
00004CE8  44 06 40 C8 50 00 00 00... bge     r8, r25, .bupt_map_data
00004CF0  35 4F C0 00 0C 00 00 00... lsr     r9, r24, #12
00004CF8  20 4E 48 40 00 00 00 00... add     r9, r9, r8
00004D00  34 57 48 00 0D 00 00 00... lsl     r10, r9, #13
00004D08  31 57 50 00 17 00 00 00... or      r10, r10, #(PTE_P | PTE_R | PTE_W | PTE_U)
00004D10  34 5F 48 00 03 00 00 00... lsl     r11, r9, #3
00004D18  20 5E 58 A0 00 00 00 00... add     r11, r11, r20
00004D20  11 56 58 00 00 00 00 00... store.q r10, (r11)
00004D28  20 47 40 00 01 00 00 00... add     r8, r8, #1
00004D30  40 06 00 00 B8 FF FF FF... bra     .bupt_stack_loop
                         .bupt_map_data:
00004D38  35 4F C0 00 0C 00 00 00... lsr     r9, r24, #12
00004D40  21 4F 48 00 01 00 00 00... sub     r9, r9, #STACK_GUARD_PAGES
00004D48  34 5F 48 00 03 00 00 00... lsl     r11, r9, #3
00004D50  20 5E 58 A0 00 00 00 00... add     r11, r11, r20
00004D58  11 06 58 00 00 00 00 00... store.q r0, (r11)
00004D60  01 45 00 00 00 00 00 00... move.l  r8, #0
                         .bupt_data_loop:
00004D68  44 06 40 68 60 00 00 00... bge     r8, r13, .bupt_map_startup
00004D70  35 4F D0 00 0C 00 00 00... lsr     r9, r26, #12
00004D78  20 4E 48 40 00 00 00 00... add     r9, r9, r8
00004D80  34 57 48 00 0D 00 00 00... lsl     r10, r9, #13
00004D88  31 57 50 00 17 00 00 00... or      r10, r10, #(PTE_P | PTE_R | PTE_W | PTE_U)
00004D90  35 5F D8 00 0C 00 00 00... lsr     r11, r27, #12
00004D98  20 5E 58 40 00 00 00 00... add     r11, r11, r8
00004DA0  34 5F 58 00 03 00 00 00... lsl     r11, r11, #3
00004DA8  20 5E 58 A0 00 00 00 00... add     r11, r11, r20
00004DB0  11 56 58 00 00 00 00 00... store.q r10, (r11)
00004DB8  20 47 40 00 01 00 00 00... add     r8, r8, #1
00004DC0  40 06 00 00 A8 FF FF FF... bra     .bupt_data_loop
                         .bupt_map_startup:
00004DC8  35 4F 60 00 0C 00 00 00... lsr     r9, r12, #12
00004DD0  34 57 48 00 0D 00 00 00... lsl     r10, r9, #13
00004DD8  31 57 50 00 13 00 00 00... or      r10, r10, #(PTE_P | PTE_R | PTE_U)
00004DE0  34 5F 48 00 03 00 00 00... lsl     r11, r9, #3
00004DE8  20 5E 58 A0 00 00 00 00... add     r11, r11, r20
00004DF0  11 56 58 00 00 00 00 00... store.q r10, (r11)
00004DF8  53 DE 00 00 00 00 00 00... pop     r27
00004E00  53 D6 00 00 00 00 00 00... pop     r26
00004E08  53 CE 00 00 00 00 00 00... pop     r25
00004E10  53 C6 00 00 00 00 00 00... pop     r24
00004E18  53 BE 00 00 00 00 00 00... pop     r23
00004E20  53 B6 00 00 00 00 00 00... pop     r22
00004E28  53 AE 00 00 00 00 00 00... pop     r21
00004E30  53 A6 00 00 00 00 00 00... pop     r20
00004E38  51 00 00 00 00 00 00 00... rts
                         kern_boot_manifest_prepare:
00004E40  01 A5 00 00 00 D0 08 00... move.l  r20, #KERN_DATA_BASE
00004E48  20 A7 A0 00 50 0B 01 00... add     r20, r20, #KD_BOOT_MANIFEST_BASE
00004E50  01 0D 00 00 0A 00 00 00... move.l  r1, #BOOT_MANIFEST_ID_CONSOLE
00004E58  11 0C A0 00 00 00 00 00... store.l r1, KD_BOOT_MANIFEST_ID(r20)
00004E60  01 0D 00 00 01 00 00 00... move.l  r1, #BOOT_MANIFEST_FLAG_TRUSTED_INTERNAL
00004E68  11 0D A0 00 04 00 00 00... store.l r1, KD_BOOT_MANIFEST_FLAGS(r20)
00004E70  11 07 A0 00 08 00 00 00... store.q r0, KD_BOOT_MANIFEST_PTR(r20)
00004E78  11 07 A0 00 10 00 00 00... store.q r0, KD_BOOT_MANIFEST_SIZE(r20)
00004E80  04 0F 00 00 F0 46 01 00... lea r1, boot_manifest_name_console(r0)
00004E88  11 0F A0 00 18 00 00 00... store.q r1, KD_BOOT_MANIFEST_NAME(r20)
00004E90  01 0D 00 00 43 48 49 50... move.l  r1, #HWRES_TAG_CHIP
00004E98  11 0D A0 00 20 00 00 00... store.l r1, KD_BOOT_MANIFEST_GTAG(r20)
00004EA0  01 0D 00 00 F0 00 00 00... move.l  r1, #0xF0
00004EA8  11 0B A0 00 24 00 00 00... store.w r1, KD_BOOT_MANIFEST_PPN_LO(r20)
00004EB0  01 0D 00 00 F0 00 00 00... move.l  r1, #0xF0
00004EB8  11 0B A0 00 26 00 00 00... store.w r1, KD_BOOT_MANIFEST_PPN_HI(r20)
00004EC0  20 A7 A0 00 28 00 00 00... add     r20, r20, #KD_BOOT_MANIFEST_STRIDE
00004EC8  01 0D 00 00 0B 00 00 00... move.l  r1, #BOOT_MANIFEST_ID_DOSLIB
00004ED0  11 0C A0 00 00 00 00 00... store.l r1, KD_BOOT_MANIFEST_ID(r20)
00004ED8  01 0D 00 00 01 00 00 00... move.l  r1, #BOOT_MANIFEST_FLAG_TRUSTED_INTERNAL
00004EE0  11 0D A0 00 04 00 00 00... store.l r1, KD_BOOT_MANIFEST_FLAGS(r20)
00004EE8  11 07 A0 00 08 00 00 00... store.q r0, KD_BOOT_MANIFEST_PTR(r20)
00004EF0  11 07 A0 00 10 00 00 00... store.q r0, KD_BOOT_MANIFEST_SIZE(r20)
00004EF8  04 0F 00 00 08 47 01 00... lea r1, boot_manifest_name_doslib(r0)
00004F00  11 0F A0 00 18 00 00 00... store.q r1, KD_BOOT_MANIFEST_NAME(r20)
00004F08  11 05 A0 00 20 00 00 00... store.l r0, KD_BOOT_MANIFEST_GTAG(r20)
00004F10  11 03 A0 00 24 00 00 00... store.w r0, KD_BOOT_MANIFEST_PPN_LO(r20)
00004F18  11 03 A0 00 26 00 00 00... store.w r0, KD_BOOT_MANIFEST_PPN_HI(r20)
00004F20  20 A7 A0 00 28 00 00 00... add     r20, r20, #KD_BOOT_MANIFEST_STRIDE
00004F28  01 0D 00 00 0C 00 00 00... move.l  r1, #BOOT_MANIFEST_ID_SHELL
00004F30  11 0C A0 00 00 00 00 00... store.l r1, KD_BOOT_MANIFEST_ID(r20)
00004F38  01 0D 00 00 00 00 00 00... move.l  r1, #0
00004F40  11 0D A0 00 04 00 00 00... store.l r1, KD_BOOT_MANIFEST_FLAGS(r20)
00004F48  11 07 A0 00 08 00 00 00... store.q r0, KD_BOOT_MANIFEST_PTR(r20)
00004F50  11 07 A0 00 10 00 00 00... store.q r0, KD_BOOT_MANIFEST_SIZE(r20)
00004F58  04 0F 00 00 18 47 01 00... lea r1, boot_manifest_name_shell(r0)
00004F60  11 0F A0 00 18 00 00 00... store.q r1, KD_BOOT_MANIFEST_NAME(r20)
00004F68  11 05 A0 00 20 00 00 00... store.l r0, KD_BOOT_MANIFEST_GTAG(r20)
00004F70  11 03 A0 00 24 00 00 00... store.w r0, KD_BOOT_MANIFEST_PPN_LO(r20)
00004F78  11 03 A0 00 26 00 00 00... store.w r0, KD_BOOT_MANIFEST_PPN_HI(r20)
00004F80  20 A7 A0 00 28 00 00 00... add     r20, r20, #KD_BOOT_MANIFEST_STRIDE
00004F88  01 0D 00 00 0D 00 00 00... move.l  r1, #BOOT_MANIFEST_ID_HWRES
00004F90  11 0C A0 00 00 00 00 00... store.l r1, KD_BOOT_MANIFEST_ID(r20)
00004F98  01 0D 00 00 01 00 00 00... move.l  r1, #BOOT_MANIFEST_FLAG_TRUSTED_INTERNAL
00004FA0  11 0D A0 00 04 00 00 00... store.l r1, KD_BOOT_MANIFEST_FLAGS(r20)
00004FA8  11 07 A0 00 08 00 00 00... store.q r0, KD_BOOT_MANIFEST_PTR(r20)
00004FB0  11 07 A0 00 10 00 00 00... store.q r0, KD_BOOT_MANIFEST_SIZE(r20)
00004FB8  04 0F 00 00 20 47 01 00... lea r1, boot_manifest_name_hwres(r0)
00004FC0  11 0F A0 00 18 00 00 00... store.q r1, KD_BOOT_MANIFEST_NAME(r20)
00004FC8  11 05 A0 00 20 00 00 00... store.l r0, KD_BOOT_MANIFEST_GTAG(r20)
00004FD0  11 03 A0 00 24 00 00 00... store.w r0, KD_BOOT_MANIFEST_PPN_LO(r20)
00004FD8  11 03 A0 00 26 00 00 00... store.w r0, KD_BOOT_MANIFEST_PPN_HI(r20)
00004FE0  20 A7 A0 00 28 00 00 00... add     r20, r20, #KD_BOOT_MANIFEST_STRIDE
00004FE8  01 0D 00 00 0E 00 00 00... move.l  r1, #BOOT_MANIFEST_ID_INPUT
00004FF0  11 0C A0 00 00 00 00 00... store.l r1, KD_BOOT_MANIFEST_ID(r20)
00004FF8  01 0D 00 00 01 00 00 00... move.l  r1, #BOOT_MANIFEST_FLAG_TRUSTED_INTERNAL
00005000  11 0D A0 00 04 00 00 00... store.l r1, KD_BOOT_MANIFEST_FLAGS(r20)
00005008  11 07 A0 00 08 00 00 00... store.q r0, KD_BOOT_MANIFEST_PTR(r20)
00005010  11 07 A0 00 10 00 00 00... store.q r0, KD_BOOT_MANIFEST_SIZE(r20)
00005018  04 0F 00 00 40 47 01 00... lea r1, boot_manifest_name_input(r0)
00005020  11 0F A0 00 18 00 00 00... store.q r1, KD_BOOT_MANIFEST_NAME(r20)
00005028  11 05 A0 00 20 00 00 00... store.l r0, KD_BOOT_MANIFEST_GTAG(r20)
00005030  11 03 A0 00 24 00 00 00... store.w r0, KD_BOOT_MANIFEST_PPN_LO(r20)
00005038  11 03 A0 00 26 00 00 00... store.w r0, KD_BOOT_MANIFEST_PPN_HI(r20)
00005040  20 A7 A0 00 28 00 00 00... add     r20, r20, #KD_BOOT_MANIFEST_STRIDE
00005048  01 0D 00 00 0F 00 00 00... move.l  r1, #BOOT_MANIFEST_ID_GRAPHICS
00005050  11 0C A0 00 00 00 00 00... store.l r1, KD_BOOT_MANIFEST_ID(r20)
00005058  01 0D 00 00 01 00 00 00... move.l  r1, #BOOT_MANIFEST_FLAG_TRUSTED_INTERNAL
00005060  11 0D A0 00 04 00 00 00... store.l r1, KD_BOOT_MANIFEST_FLAGS(r20)
00005068  11 07 A0 00 08 00 00 00... store.q r0, KD_BOOT_MANIFEST_PTR(r20)
00005070  11 07 A0 00 10 00 00 00... store.q r0, KD_BOOT_MANIFEST_SIZE(r20)
00005078  04 0F 00 00 58 47 01 00... lea r1, boot_manifest_name_graphics(r0)
00005080  11 0F A0 00 18 00 00 00... store.q r1, KD_BOOT_MANIFEST_NAME(r20)
00005088  11 05 A0 00 20 00 00 00... store.l r0, KD_BOOT_MANIFEST_GTAG(r20)
00005090  11 03 A0 00 24 00 00 00... store.w r0, KD_BOOT_MANIFEST_PPN_LO(r20)
00005098  11 03 A0 00 26 00 00 00... store.w r0, KD_BOOT_MANIFEST_PPN_HI(r20)
000050A0  20 A7 A0 00 28 00 00 00... add     r20, r20, #KD_BOOT_MANIFEST_STRIDE
000050A8  01 0D 00 00 10 00 00 00... move.l  r1, #BOOT_MANIFEST_ID_INTUITION
000050B0  11 0C A0 00 00 00 00 00... store.l r1, KD_BOOT_MANIFEST_ID(r20)
000050B8  01 0D 00 00 01 00 00 00... move.l  r1, #BOOT_MANIFEST_FLAG_TRUSTED_INTERNAL
000050C0  11 0D A0 00 04 00 00 00... store.l r1, KD_BOOT_MANIFEST_FLAGS(r20)
000050C8  11 07 A0 00 08 00 00 00... store.q r0, KD_BOOT_MANIFEST_PTR(r20)
000050D0  11 07 A0 00 10 00 00 00... store.q r0, KD_BOOT_MANIFEST_SIZE(r20)
000050D8  04 0F 00 00 70 47 01 00... lea r1, boot_manifest_name_intuition(r0)
000050E0  11 0F A0 00 18 00 00 00... store.q r1, KD_BOOT_MANIFEST_NAME(r20)
000050E8  11 05 A0 00 20 00 00 00... store.l r0, KD_BOOT_MANIFEST_GTAG(r20)
000050F0  11 03 A0 00 24 00 00 00... store.w r0, KD_BOOT_MANIFEST_PPN_LO(r20)
000050F8  11 03 A0 00 26 00 00 00... store.w r0, KD_BOOT_MANIFEST_PPN_HI(r20)
00005100  01 17 00 00 00 00 00 00... move.q  r2, #ERR_OK
00005108  51 00 00 00 00 00 00 00... rts
                         kern_boot_load_host_console:
00005110  01 9E 08 00 00 00 00 00... move.q  r19, r1
00005118  04 A7 00 00 28 4A 01 00... lea r20, boot_host_relpath_console(r0)
00005120  01 AD 00 00 00 D0 08 00... move.l  r21, #KERN_DATA_BASE
00005128  20 AF A8 00 50 0B 01 00... add     r21, r21, #KD_BOOT_MANIFEST_BASE
00005130  40 06 00 00 D0 00 00 00... bra     kern_boot_load_host_manifest_elf
                         kern_boot_load_host_doslib:
00005138  01 9E 08 00 00 00 00 00... move.q  r19, r1
00005140  04 A7 00 00 10 4A 01 00... lea r20, boot_host_relpath_doslib(r0)
00005148  01 AD 00 00 00 D0 08 00... move.l  r21, #KERN_DATA_BASE
00005150  20 AF A8 00 50 0B 01 00... add     r21, r21, #KD_BOOT_MANIFEST_BASE
00005158  20 AF A8 00 28 00 00 00... add     r21, r21, #KD_BOOT_MANIFEST_STRIDE
00005160  40 06 00 00 A0 00 00 00... bra     kern_boot_load_host_manifest_elf
                         kern_boot_load_host_shell:
00005168  01 9E 08 00 00 00 00 00... move.q  r19, r1
00005170  04 A7 00 00 44 4A 01 00... lea r20, boot_host_relpath_shell(r0)
00005178  01 AD 00 00 00 D0 08 00... move.l  r21, #KERN_DATA_BASE
00005180  20 AF A8 00 50 0B 01 00... add     r21, r21, #KD_BOOT_MANIFEST_BASE
00005188  20 AF A8 00 28 00 00 00... add     r21, r21, #KD_BOOT_MANIFEST_STRIDE
00005190  20 AF A8 00 28 00 00 00... add     r21, r21, #KD_BOOT_MANIFEST_STRIDE
00005198  40 06 00 00 68 00 00 00... bra     kern_boot_load_host_manifest_elf
                         kern_boot_load_host_hwres:
000051A0  01 9E 08 00 00 00 00 00... move.q  r19, r1
000051A8  04 A7 00 00 58 4A 01 00... lea r20, boot_host_relpath_hwres(r0)
000051B0  01 AD 00 00 00 D0 08 00... move.l  r21, #KERN_DATA_BASE
000051B8  20 AF A8 00 50 0B 01 00... add     r21, r21, #KD_BOOT_MANIFEST_BASE
000051C0  20 AF A8 00 78 00 00 00... add     r21, r21, #(KD_BOOT_MANIFEST_STRIDE * 3)
000051C8  40 06 00 00 38 00 00 00... bra     kern_boot_load_host_manifest_elf
                         kern_boot_load_host_input:
000051D0  01 9E 08 00 00 00 00 00... move.q  r19, r1
000051D8  04 A7 00 00 7C 4A 01 00... lea r20, boot_host_relpath_input(r0)
000051E0  01 AD 00 00 00 D0 08 00... move.l  r21, #KERN_DATA_BASE
000051E8  20 AF A8 00 50 0B 01 00... add     r21, r21, #KD_BOOT_MANIFEST_BASE
000051F0  20 AF A8 00 A0 00 00 00... add     r21, r21, #(KD_BOOT_MANIFEST_STRIDE * 4)
000051F8  40 06 00 00 08 00 00 00... bra     kern_boot_load_host_manifest_elf
                         kern_boot_load_host_manifest_elf:
00005200  21 FF F8 00 50 00 00 00... sub     sp, sp, #80
00005208  11 9E F8 00 00 00 00 00... store.q r19, 0(sp)
00005210  11 AF F8 00 20 00 00 00... store.q r21, 32(sp)
00005218  04 C7 00 00 E0 23 0F 00... lea r24, BOOT_HOSTFS_BASE(r0)
00005220  11 A5 C0 00 04 00 00 00... store.l r20, BOOT_HOSTFS_ARG1-BOOT_HOSTFS_BASE(r24)
00005228  11 05 C0 00 08 00 00 00... store.l r0, BOOT_HOSTFS_ARG2-BOOT_HOSTFS_BASE(r24)
00005230  11 05 C0 00 0C 00 00 00... store.l r0, BOOT_HOSTFS_ARG3-BOOT_HOSTFS_BASE(r24)
00005238  11 05 C0 00 10 00 00 00... store.l r0, BOOT_HOSTFS_ARG4-BOOT_HOSTFS_BASE(r24)
00005240  01 5D 00 00 04 00 00 00... move.l  r11, #BOOT_HOSTFS_STAT
00005248  11 5C C0 00 00 00 00 00... store.l r11, BOOT_HOSTFS_CMD-BOOT_HOSTFS_BASE(r24)
00005250  10 15 C0 00 1C 00 00 00... load.l  r2, BOOT_HOSTFS_ERR-BOOT_HOSTFS_BASE(r24)
00005258  42 06 10 00 50 03 00 00... bne r2, r0, .kbhd_fail
00005260  10 AD C0 00 14 00 00 00... load.l  r21, BOOT_HOSTFS_RES1-BOOT_HOSTFS_BASE(r24)
00005268  10 B5 C0 00 18 00 00 00... load.l  r22, BOOT_HOSTFS_RES2-BOOT_HOSTFS_BASE(r24)
00005270  01 5D 00 00 01 00 00 00... move.l  r11, #BOOT_HOSTFS_KIND_FILE
00005278  42 06 B0 58 50 03 00 00... bne     r22, r11, .kbhd_badarg
00005280  41 06 A8 00 48 03 00 00... beq r21, r0, .kbhd_badarg
00005288  11 AF F8 00 08 00 00 00... store.q r21, 8(sp)
00005290  20 BF A8 00 FF 0F 00 00... add     r23, r21, #4095
00005298  35 BF B8 00 0C 00 00 00... lsr     r23, r23, #12
000052A0  41 06 B8 00 28 03 00 00... beq r23, r0, .kbhd_badarg
000052A8  11 BF F8 00 10 00 00 00... store.q r23, 16(sp)
000052B0  01 0E B8 00 00 00 00 00... move.q  r1, r23
000052B8  50 06 00 00 30 33 00 00... jsr     alloc_pages
000052C0  42 06 10 00 E8 02 00 00... bne r2, r0, .kbhd_fail
000052C8  11 0F F8 00 18 00 00 00... store.q r1, 24(sp)
000052D0  11 A5 C0 00 04 00 00 00... store.l r20, BOOT_HOSTFS_ARG1-BOOT_HOSTFS_BASE(r24)
000052D8  11 05 C0 00 08 00 00 00... store.l r0, BOOT_HOSTFS_ARG2-BOOT_HOSTFS_BASE(r24)
000052E0  11 05 C0 00 0C 00 00 00... store.l r0, BOOT_HOSTFS_ARG3-BOOT_HOSTFS_BASE(r24)
000052E8  11 05 C0 00 10 00 00 00... store.l r0, BOOT_HOSTFS_ARG4-BOOT_HOSTFS_BASE(r24)
000052F0  01 5D 00 00 01 00 00 00... move.l  r11, #BOOT_HOSTFS_OPEN
000052F8  11 5C C0 00 00 00 00 00... store.l r11, BOOT_HOSTFS_CMD-BOOT_HOSTFS_BASE(r24)
00005300  10 15 C0 00 1C 00 00 00... load.l  r2, BOOT_HOSTFS_ERR-BOOT_HOSTFS_BASE(r24)
00005308  42 06 10 00 78 02 00 00... bne r2, r0, .kbhd_free_pages_fail
00005310  10 CD C0 00 14 00 00 00... load.l  r25, BOOT_HOSTFS_RES1-BOOT_HOSTFS_BASE(r24)
00005318  41 06 C8 00 60 02 00 00... beq r25, r0, .kbhd_free_pages_badarg
00005320  10 D7 F8 00 18 00 00 00... load.q  r26, 24(sp)
00005328  34 D7 D0 00 0C 00 00 00... lsl     r26, r26, #12
00005330  10 DF F8 00 08 00 00 00... load.q  r27, 8(sp)
                         .kbhd_read_loop:
00005338  41 06 D8 00 70 00 00 00... beq r27, r0, .kbhd_read_done
00005340  11 CD C0 00 04 00 00 00... store.l r25, BOOT_HOSTFS_ARG1-BOOT_HOSTFS_BASE(r24)
00005348  11 D5 C0 00 08 00 00 00... store.l r26, BOOT_HOSTFS_ARG2-BOOT_HOSTFS_BASE(r24)
00005350  11 DD C0 00 0C 00 00 00... store.l r27, BOOT_HOSTFS_ARG3-BOOT_HOSTFS_BASE(r24)
00005358  11 05 C0 00 10 00 00 00... store.l r0, BOOT_HOSTFS_ARG4-BOOT_HOSTFS_BASE(r24)
00005360  01 5D 00 00 02 00 00 00... move.l  r11, #BOOT_HOSTFS_READ
00005368  11 5C C0 00 00 00 00 00... store.l r11, BOOT_HOSTFS_CMD-BOOT_HOSTFS_BASE(r24)
00005370  10 15 C0 00 1C 00 00 00... load.l  r2, BOOT_HOSTFS_ERR-BOOT_HOSTFS_BASE(r24)
00005378  42 06 10 00 B8 01 00 00... bne r2, r0, .kbhd_close_then_free
00005380  10 5D C0 00 14 00 00 00... load.l  r11, BOOT_HOSTFS_RES1-BOOT_HOSTFS_BASE(r24)
00005388  41 06 58 00 A0 01 00 00... beq r11, r0, .kbhd_close_then_badarg
00005390  20 D6 D0 58 00 00 00 00... add     r26, r26, r11
00005398  21 DE D8 58 00 00 00 00... sub     r27, r27, r11
000053A0  40 06 00 00 98 FF FF FF... bra     .kbhd_read_loop
                         .kbhd_read_done:
000053A8  11 CD C0 00 04 00 00 00... store.l r25, BOOT_HOSTFS_ARG1-BOOT_HOSTFS_BASE(r24)
000053B0  11 05 C0 00 08 00 00 00... store.l r0, BOOT_HOSTFS_ARG2-BOOT_HOSTFS_BASE(r24)
000053B8  11 05 C0 00 0C 00 00 00... store.l r0, BOOT_HOSTFS_ARG3-BOOT_HOSTFS_BASE(r24)
000053C0  11 05 C0 00 10 00 00 00... store.l r0, BOOT_HOSTFS_ARG4-BOOT_HOSTFS_BASE(r24)
000053C8  01 5D 00 00 03 00 00 00... move.l  r11, #BOOT_HOSTFS_CLOSE
000053D0  11 5C C0 00 00 00 00 00... store.l r11, BOOT_HOSTFS_CMD-BOOT_HOSTFS_BASE(r24)
000053D8  10 15 C0 00 1C 00 00 00... load.l  r2, BOOT_HOSTFS_ERR-BOOT_HOSTFS_BASE(r24)
000053E0  42 06 10 00 A0 01 00 00... bne r2, r0, .kbhd_free_pages_fail
000053E8  10 5F F8 00 20 00 00 00... load.q  r11, 32(sp)
000053F0  41 06 58 00 50 00 00 00... beq r11, r0, .kbhd_validate_done
000053F8  10 64 58 00 00 00 00 00... load.l  r12, KD_BOOT_MANIFEST_ID(r11)
00005400  01 75 00 00 0B 00 00 00... move.l  r14, #BOOT_MANIFEST_ID_DOSLIB
00005408  42 06 60 70 38 00 00 00... bne     r12, r14, .kbhd_validate_done
00005410  10 0F F8 00 18 00 00 00... load.q  r1, 24(sp)
00005418  34 0F 08 00 0C 00 00 00... lsl     r1, r1, #12
00005420  10 17 F8 00 08 00 00 00... load.q  r2, 8(sp)
00005428  10 1F 58 00 18 00 00 00... load.q  r3, KD_BOOT_MANIFEST_NAME(r11)
00005430  50 06 00 00 A8 01 00 00... jsr     kern_boot_validate_library_manifest
00005438  42 06 10 00 48 01 00 00... bne r2, r0, .kbhd_free_pages_fail
                         .kbhd_validate_done:
00005440  10 0F F8 00 18 00 00 00... load.q  r1, 24(sp)
00005448  34 0F 08 00 0C 00 00 00... lsl     r1, r1, #12
00005450  10 17 F8 00 08 00 00 00... load.q  r2, 8(sp)
00005458  10 1E F8 00 00 00 00 00... load.q  r3, 0(sp)
00005460  50 06 00 00 60 0A 00 00... jsr     boot_load_elf_image
00005468  01 E6 08 00 00 00 00 00... move.q  r28, r1
00005470  01 EE 10 00 00 00 00 00... move.q  r29, r2
00005478  01 F6 18 00 00 00 00 00... move.q  r30, r3
00005480  42 06 E8 00 68 00 00 00... bne r29, r0, .kbhd_free_pages_return
00005488  10 5F F8 00 20 00 00 00... load.q  r11, 32(sp)
00005490  41 06 58 00 30 00 00 00... beq r11, r0, .kbhd_success
00005498  10 67 F8 00 18 00 00 00... load.q  r12, 24(sp)
000054A0  34 67 60 00 0C 00 00 00... lsl     r12, r12, #12
000054A8  11 67 58 00 08 00 00 00... store.q r12, KD_BOOT_MANIFEST_PTR(r11)
000054B0  10 67 F8 00 08 00 00 00... load.q  r12, 8(sp)
000054B8  11 67 58 00 10 00 00 00... store.q r12, KD_BOOT_MANIFEST_SIZE(r11)
                         .kbhd_success:
000054C0  01 0E E0 00 00 00 00 00... move.q  r1, r28
000054C8  01 16 E8 00 00 00 00 00... move.q  r2, r29
000054D0  01 1E F0 00 00 00 00 00... move.q  r3, r30
000054D8  20 FF F8 00 50 00 00 00... add     sp, sp, #80
000054E0  51 00 00 00 00 00 00 00... rts
                         .kbhd_free_pages_return:
000054E8  10 0F F8 00 18 00 00 00... load.q  r1, 24(sp)
000054F0  10 17 F8 00 10 00 00 00... load.q  r2, 16(sp)
000054F8  50 06 00 00 48 32 00 00... jsr     free_pages
00005500  01 0E E0 00 00 00 00 00... move.q  r1, r28
00005508  01 16 E8 00 00 00 00 00... move.q  r2, r29
00005510  01 1E F0 00 00 00 00 00... move.q  r3, r30
00005518  20 FF F8 00 50 00 00 00... add     sp, sp, #80
00005520  51 00 00 00 00 00 00 00... rts
                         .kbhd_close_then_badarg:
00005528  01 17 00 00 03 00 00 00... move.q  r2, #ERR_BADARG
                         .kbhd_close_then_free:
00005530  11 17 F8 00 28 00 00 00... store.q r2, 40(sp)
00005538  11 CD C0 00 04 00 00 00... store.l r25, BOOT_HOSTFS_ARG1-BOOT_HOSTFS_BASE(r24)
00005540  11 05 C0 00 08 00 00 00... store.l r0, BOOT_HOSTFS_ARG2-BOOT_HOSTFS_BASE(r24)
00005548  11 05 C0 00 0C 00 00 00... store.l r0, BOOT_HOSTFS_ARG3-BOOT_HOSTFS_BASE(r24)
00005550  11 05 C0 00 10 00 00 00... store.l r0, BOOT_HOSTFS_ARG4-BOOT_HOSTFS_BASE(r24)
00005558  01 5D 00 00 03 00 00 00... move.l  r11, #BOOT_HOSTFS_CLOSE
00005560  11 5C C0 00 00 00 00 00... store.l r11, BOOT_HOSTFS_CMD-BOOT_HOSTFS_BASE(r24)
00005568  10 17 F8 00 28 00 00 00... load.q  r2, 40(sp)
00005570  40 06 00 00 10 00 00 00... bra     .kbhd_free_pages_fail
                         .kbhd_free_pages_badarg:
00005578  01 17 00 00 03 00 00 00... move.q  r2, #ERR_BADARG
                         .kbhd_free_pages_fail:
00005580  11 17 F8 00 28 00 00 00... store.q r2, 40(sp)
00005588  10 0F F8 00 18 00 00 00... load.q  r1, 24(sp)
00005590  10 17 F8 00 10 00 00 00... load.q  r2, 16(sp)
00005598  50 06 00 00 A8 31 00 00... jsr     free_pages
000055A0  10 17 F8 00 28 00 00 00... load.q  r2, 40(sp)
                         .kbhd_fail:
000055A8  01 0F 00 00 00 00 00 00... move.q  r1, #0
000055B0  01 1F 00 00 00 00 00 00... move.q  r3, #0
000055B8  20 FF F8 00 50 00 00 00... add     sp, sp, #80
000055C0  51 00 00 00 00 00 00 00... rts
                         .kbhd_badarg:
000055C8  01 17 00 00 03 00 00 00... move.q  r2, #ERR_BADARG
000055D0  40 06 00 00 D8 FF FF FF... bra     .kbhd_fail
                         kern_boot_validate_library_manifest:
000055D8  01 A6 08 00 00 00 00 00... move.q  r20, r1
000055E0  01 AE 10 00 00 00 00 00... move.q  r21, r2
000055E8  01 B6 18 00 00 00 00 00... move.q  r22, r3
000055F0  01 17 00 00 03 00 00 00... move.q  r2, #ERR_BADARG
000055F8  01 5D 00 00 40 00 00 00... move.l  r11, #64
00005600  43 06 A8 58 F0 05 00 00... blt     r21, r11, .kbvlm_done
00005608  10 95 A0 00 20 00 00 00... load.l  r18, 32(r20)
00005610  10 5D A0 00 24 00 00 00... load.l  r11, 36(r20)
00005618  42 06 58 00 D8 05 00 00... bne r11, r0, .kbvlm_done
00005620  10 C3 A0 00 36 00 00 00... load.w  r24, 54(r20)
00005628  01 5D 00 00 38 00 00 00... move.l  r11, #56
00005630  42 06 C0 58 C0 05 00 00... bne     r24, r11, .kbvlm_done
00005638  10 CB A0 00 38 00 00 00... load.w  r25, 56(r20)
00005640  41 06 C8 00 B0 05 00 00... beq r25, r0, .kbvlm_done
00005648  01 DE C8 00 00 00 00 00... move.q  r27, r25
00005650  22 DE C0 D8 00 00 00 00... mulu    r27, r24, r27
00005658  20 DE 90 D8 00 00 00 00... add     r27, r18, r27
00005660  43 06 D8 90 90 05 00 00... blt     r27, r18, .kbvlm_done
00005668  45 06 D8 A8 88 05 00 00... bgt     r27, r21, .kbvlm_done
00005670  01 9D 00 00 00 00 00 00... move.l  r19, #0
                         .kbvlm_ph_loop:
00005678  44 06 98 C8 90 00 00 00... bge     r19, r25, .kbvlm_no_ptnote
00005680  01 DE 98 00 00 00 00 00... move.q  r27, r19
00005688  22 DE C0 D8 00 00 00 00... mulu    r27, r24, r27
00005690  20 DE 90 D8 00 00 00 00... add     r27, r18, r27
00005698  20 DE A0 D8 00 00 00 00... add     r27, r20, r27
000056A0  10 5C D8 00 00 00 00 00... load.l  r11, (r27)
000056A8  01 65 00 00 04 00 00 00... move.l  r12, #4
000056B0  42 06 58 60 48 00 00 00... bne     r11, r12, .kbvlm_next_ph
000056B8  10 5F D8 00 08 00 00 00... load.q  r11, 8(r27)
000056C0  10 67 D8 00 20 00 00 00... load.q  r12, 32(r27)
000056C8  20 6E 58 60 00 00 00 00... add     r13, r11, r12
000056D0  43 06 68 58 20 05 00 00... blt     r13, r11, .kbvlm_done
000056D8  45 06 68 A8 18 05 00 00... bgt     r13, r21, .kbvlm_done
000056E0  20 DE A0 58 00 00 00 00... add     r27, r20, r11
000056E8  20 F6 D8 60 00 00 00 00... add     r30, r27, r12
000056F0  40 06 00 00 78 01 00 00... bra     .kbvlm_note_loop
                         .kbvlm_next_ph:
000056F8  20 9F 98 00 01 00 00 00... add     r19, r19, #1
00005700  40 06 00 00 78 FF FF FF... bra     .kbvlm_ph_loop
                         .kbvlm_no_ptnote:
00005708  10 97 A0 00 28 00 00 00... load.q  r18, 40(r20)
00005710  41 06 90 00 E0 04 00 00... beq r18, r0, .kbvlm_done
00005718  10 C3 A0 00 3A 00 00 00... load.w  r24, 58(r20)
00005720  01 5D 00 00 40 00 00 00... move.l  r11, #64
00005728  42 06 C0 58 C8 04 00 00... bne     r24, r11, .kbvlm_done
00005730  10 CB A0 00 3C 00 00 00... load.w  r25, 60(r20)
00005738  41 06 C8 00 B8 04 00 00... beq r25, r0, .kbvlm_done
00005740  10 D3 A0 00 3E 00 00 00... load.w  r26, 62(r20)
00005748  44 06 D0 C8 A8 04 00 00... bge     r26, r25, .kbvlm_done
00005750  01 DE C8 00 00 00 00 00... move.q  r27, r25
00005758  22 DE C0 D8 00 00 00 00... mulu    r27, r24, r27
00005760  20 DE 90 D8 00 00 00 00... add     r27, r18, r27
00005768  45 06 D8 A8 88 04 00 00... bgt     r27, r21, .kbvlm_done
00005770  01 DE D0 00 00 00 00 00... move.q  r27, r26
00005778  22 DE C0 D8 00 00 00 00... mulu    r27, r24, r27
00005780  20 DE 90 D8 00 00 00 00... add     r27, r18, r27
00005788  20 DE A0 D8 00 00 00 00... add     r27, r20, r27
00005790  10 E7 D8 00 18 00 00 00... load.q  r28, 24(r27)
00005798  10 EF D8 00 20 00 00 00... load.q  r29, 32(r27)
000057A0  41 06 E8 00 50 04 00 00... beq r29, r0, .kbvlm_done
000057A8  20 F6 E0 E8 00 00 00 00... add     r30, r28, r29
000057B0  45 06 F0 A8 40 04 00 00... bgt     r30, r21, .kbvlm_done
000057B8  01 9D 00 00 00 00 00 00... move.l  r19, #0
                         .kbvlm_sh_loop:
000057C0  44 06 98 C8 30 04 00 00... bge     r19, r25, .kbvlm_done
000057C8  01 DE 98 00 00 00 00 00... move.q  r27, r19
000057D0  22 DE C0 D8 00 00 00 00... mulu    r27, r24, r27
000057D8  20 DE 90 D8 00 00 00 00... add     r27, r18, r27
000057E0  20 DE A0 D8 00 00 00 00... add     r27, r20, r27
000057E8  10 5D D8 00 04 00 00 00... load.l  r11, 4(r27)
000057F0  01 65 00 00 07 00 00 00... move.l  r12, #7
000057F8  42 06 58 60 E8 03 00 00... bne     r11, r12, .kbvlm_next_sh
00005800  10 5C D8 00 00 00 00 00... load.l  r11, (r27)
00005808  44 06 58 E8 D8 03 00 00... bge     r11, r29, .kbvlm_next_sh
00005810  20 76 A0 E0 00 00 00 00... add     r14, r20, r28
00005818  20 76 70 58 00 00 00 00... add     r14, r14, r11
00005820  04 7F 00 00 08 5D 00 00... lea r15, kbvlm_manifest_section_name(r0)
00005828  50 06 00 00 D0 03 00 00... jsr     kern_boot_validate_string_eq
00005830  42 06 B8 00 B0 03 00 00... bne r23, r0, .kbvlm_next_sh
00005838  10 5F D8 00 18 00 00 00... load.q  r11, 24(r27)
00005840  10 67 D8 00 20 00 00 00... load.q  r12, 32(r27)
00005848  20 6E 58 60 00 00 00 00... add     r13, r11, r12
00005850  45 06 68 A8 A0 03 00 00... bgt     r13, r21, .kbvlm_done
00005858  20 DE A0 58 00 00 00 00... add     r27, r20, r11
00005860  20 F6 D8 60 00 00 00 00... add     r30, r27, r12
                         .kbvlm_note_loop:
00005868  01 6E D8 00 00 00 00 00... move.q  r13, r27
00005870  20 6F 68 00 0C 00 00 00... add     r13, r13, #12
00005878  45 06 68 F0 78 03 00 00... bgt     r13, r30, .kbvlm_done
00005880  10 5C D8 00 00 00 00 00... load.l  r11, (r27)
00005888  10 5D D8 00 04 00 00 00... load.l  r11, 4(r27)
00005890  01 C6 58 00 00 00 00 00... move.q  r24, r11
00005898  10 5C D8 00 00 00 00 00... load.l  r11, (r27)
000058A0  01 CE 58 00 00 00 00 00... move.q  r25, r11
000058A8  20 CF C8 00 03 00 00 00... add     r25, r25, #3
000058B0  30 CF C8 00 FC FF FF FF... and     r25, r25, #0xFFFFFFFC
000058B8  01 D6 C0 00 00 00 00 00... move.q  r26, r24
000058C0  20 D7 D0 00 03 00 00 00... add     r26, r26, #3
000058C8  30 D7 D0 00 FC FF FF FF... and     r26, r26, #0xFFFFFFFC
000058D0  01 6E D8 00 00 00 00 00... move.q  r13, r27
000058D8  20 6F 68 00 0C 00 00 00... add     r13, r13, #12
000058E0  20 6E 68 C8 00 00 00 00... add     r13, r13, r25
000058E8  20 6E 68 D0 00 00 00 00... add     r13, r13, r26
000058F0  45 06 68 F0 00 03 00 00... bgt     r13, r30, .kbvlm_done
000058F8  01 EE 68 00 00 00 00 00... move.q  r29, r13
00005900  01 65 00 00 08 00 00 00... move.l  r12, #8
00005908  42 06 58 60 90 01 00 00... bne     r11, r12, .kbvlm_note_next
00005910  10 5D D8 00 08 00 00 00... load.l  r11, 8(r27)
00005918  01 65 00 00 31 53 4F 49... move.l  r12, #0x494F5331
00005920  42 06 58 60 78 01 00 00... bne     r11, r12, .kbvlm_note_next
00005928  20 77 D8 00 0C 00 00 00... add     r14, r27, #12
00005930  04 7F 00 00 18 5D 00 00... lea r15, kbvlm_manifest_note_name(r0)
00005938  50 06 00 00 C0 02 00 00... jsr     kern_boot_validate_string_eq
00005940  42 06 B8 00 58 01 00 00... bne r23, r0, .kbvlm_note_next
00005948  01 65 00 00 80 00 00 00... move.l  r12, #IOSM_SIZE
00005950  42 06 C0 60 48 01 00 00... bne     r24, r12, .kbvlm_note_next
00005958  20 DF D8 00 0C 00 00 00... add     r27, r27, #12
00005960  20 DE D8 C8 00 00 00 00... add     r27, r27, r25
00005968  10 5C D8 00 00 00 00 00... load.l  r11, (r27)
00005970  01 65 00 00 49 4F 53 4D... move.l  r12, #IOSM_MAGIC
00005978  42 06 58 60 78 02 00 00... bne     r11, r12, .kbvlm_done
00005980  10 5D D8 00 04 00 00 00... load.l  r11, 4(r27)
00005988  01 65 00 00 01 00 00 00... move.l  r12, #1
00005990  42 06 58 60 60 02 00 00... bne     r11, r12, .kbvlm_done
00005998  10 59 D8 00 08 00 00 00... load.b  r11, IOSM_OFF_KIND(r27)
000059A0  01 65 00 00 01 00 00 00... move.l  r12, #IOSM_KIND_LIBRARY
000059A8  42 06 58 60 48 02 00 00... bne     r11, r12, .kbvlm_done
000059B0  10 59 D8 00 09 00 00 00... load.b  r11, IOSM_OFF_RESERVED0(r27)
000059B8  42 06 58 00 38 02 00 00... bne r11, r0, .kbvlm_done
000059C0  20 77 D8 00 10 00 00 00... add     r14, r27, #IOSM_OFF_NAME
000059C8  01 7E B0 00 00 00 00 00... move.q  r15, r22
000059D0  50 06 00 00 80 02 00 00... jsr     kern_boot_validate_name32_eq
000059D8  42 06 B8 00 18 02 00 00... bne r23, r0, .kbvlm_done
000059E0  10 5B D8 00 0A 00 00 00... load.w  r11, IOSM_OFF_VERSION(r27)
000059E8  01 65 00 00 0F 00 00 00... move.l  r12, #15
000059F0  42 06 58 60 00 02 00 00... bne     r11, r12, .kbvlm_done
000059F8  10 5B D8 00 0C 00 00 00... load.w  r11, IOSM_OFF_REVISION(r27)
00005A00  42 06 58 00 F0 01 00 00... bne r11, r0, .kbvlm_done
00005A08  10 5B D8 00 0E 00 00 00... load.w  r11, IOSM_OFF_PATCH(r27)
00005A10  42 06 58 00 E0 01 00 00... bne r11, r0, .kbvlm_done
00005A18  10 5D D8 00 30 00 00 00... load.l  r11, IOSM_OFF_FLAGS(r27)
00005A20  01 65 00 00 06 00 00 00... move.l  r12, #(MODF_COMPAT_PORT | MODF_ASLR_CAPABLE)
00005A28  42 06 58 60 C8 01 00 00... bne     r11, r12, .kbvlm_done
00005A30  10 5D D8 00 34 00 00 00... load.l  r11, IOSM_OFF_MSG_ABI_VERSION(r27)
00005A38  42 06 58 00 B8 01 00 00... bne r11, r0, .kbvlm_done
00005A40  01 5D 00 00 00 00 00 00... move.l  r11, #0
                         .kbvlm_reserved2_loop:
00005A48  01 65 00 00 08 00 00 00... move.l  r12, #8
00005A50  44 06 58 60 38 00 00 00... bge     r11, r12, .kbvlm_valid
00005A58  20 6F D8 00 78 00 00 00... add     r13, r27, #IOSM_OFF_RESERVED2
00005A60  20 6E 68 58 00 00 00 00... add     r13, r13, r11
00005A68  10 68 68 00 00 00 00 00... load.b  r13, (r13)
00005A70  42 06 68 00 80 01 00 00... bne r13, r0, .kbvlm_done
00005A78  20 5F 58 00 01 00 00 00... add     r11, r11, #1
00005A80  40 06 00 00 C8 FF FF FF... bra     .kbvlm_reserved2_loop
                         .kbvlm_valid:
00005A88  01 17 00 00 00 00 00 00... move.q  r2, #ERR_OK
00005A90  51 00 00 00 00 00 00 00... rts
                         .kbvlm_note_next:
00005A98  10 5C D8 00 00 00 00 00... load.l  r11, (r27)
00005AA0  01 65 00 00 08 00 00 00... move.l  r12, #8
00005AA8  42 06 58 60 48 01 00 00... bne     r11, r12, .kbvlm_done
00005AB0  10 5D D8 00 08 00 00 00... load.l  r11, 8(r27)
00005AB8  01 65 00 00 31 52 4F 49... move.l  r12, #0x494F5231
00005AC0  42 06 58 60 30 01 00 00... bne     r11, r12, .kbvlm_done
00005AC8  20 77 D8 00 0C 00 00 00... add     r14, r27, #12
00005AD0  04 7F 00 00 20 5D 00 00... lea r15, kbvlm_reloc_note_name(r0)
00005AD8  50 06 00 00 20 01 00 00... jsr     kern_boot_validate_string_eq
00005AE0  42 06 B8 00 10 01 00 00... bne r23, r0, .kbvlm_done
00005AE8  01 5D 00 00 20 00 00 00... move.l  r11, #32
00005AF0  43 06 C0 58 00 01 00 00... blt     r24, r11, .kbvlm_done
00005AF8  01 E6 D8 00 00 00 00 00... move.q  r28, r27
00005B00  20 E7 E0 00 0C 00 00 00... add     r28, r28, #12
00005B08  20 E6 E0 C8 00 00 00 00... add     r28, r28, r25
00005B10  10 5C E0 00 00 00 00 00... load.l  r11, (r28)
00005B18  01 65 00 00 49 4F 53 52... move.l  r12, #0x52534F49
00005B20  42 06 58 60 D0 00 00 00... bne     r11, r12, .kbvlm_done
00005B28  10 5B E0 00 04 00 00 00... load.w  r11, 4(r28)
00005B30  01 65 00 00 01 00 00 00... move.l  r12, #1
00005B38  42 06 58 60 B8 00 00 00... bne     r11, r12, .kbvlm_done
00005B40  10 5B E0 00 06 00 00 00... load.w  r11, 6(r28)
00005B48  01 65 00 00 20 00 00 00... move.l  r12, #32
00005B50  42 06 58 60 A0 00 00 00... bne     r11, r12, .kbvlm_done
00005B58  10 5B E0 00 08 00 00 00... load.w  r11, 8(r28)
00005B60  01 65 00 00 18 00 00 00... move.l  r12, #24
00005B68  42 06 58 60 88 00 00 00... bne     r11, r12, .kbvlm_done
00005B70  10 5B E0 00 0A 00 00 00... load.w  r11, 10(r28)
00005B78  42 06 58 00 78 00 00 00... bne r11, r0, .kbvlm_done
00005B80  10 5F E0 00 10 00 00 00... load.q  r11, 16(r28)
00005B88  42 06 58 00 68 00 00 00... bne r11, r0, .kbvlm_done
00005B90  10 5F E0 00 18 00 00 00... load.q  r11, 24(r28)
00005B98  42 06 58 00 58 00 00 00... bne r11, r0, .kbvlm_done
00005BA0  10 D5 E0 00 0C 00 00 00... load.l  r26, 12(r28)
00005BA8  01 5E D0 00 00 00 00 00... move.q  r11, r26
00005BB0  22 5E 60 58 00 00 00 00... mulu    r11, r12, r11
00005BB8  20 5F 58 00 20 00 00 00... add     r11, r11, #32
00005BC0  42 06 58 C0 30 00 00 00... bne     r11, r24, .kbvlm_done
00005BC8  01 DE E8 00 00 00 00 00... move.q  r27, r29
00005BD0  43 06 D8 F0 98 FC FF FF... blt     r27, r30, .kbvlm_note_loop
00005BD8  40 06 00 00 18 00 00 00... bra     .kbvlm_done
                         .kbvlm_next_sh:
00005BE0  20 9F 98 00 01 00 00 00... add     r19, r19, #1
00005BE8  40 06 00 00 D8 FB FF FF... bra     .kbvlm_sh_loop
                         .kbvlm_done:
00005BF0  51 00 00 00 00 00 00 00... rts
                         kern_boot_validate_string_eq:
                         .kbvse_loop:
00005BF8  10 80 70 00 00 00 00 00... load.b  r16, (r14)
00005C00  10 88 78 00 00 00 00 00... load.b  r17, (r15)
00005C08  42 06 80 88 38 00 00 00... bne     r16, r17, .kbvse_mismatch
00005C10  41 06 80 00 20 00 00 00... beq r16, r0, .kbvse_match
00005C18  20 77 70 00 01 00 00 00... add     r14, r14, #1
00005C20  20 7F 78 00 01 00 00 00... add     r15, r15, #1
00005C28  40 06 00 00 D0 FF FF FF... bra     .kbvse_loop
                         .kbvse_match:
00005C30  01 BF 00 00 00 00 00 00... move.q  r23, #0
00005C38  51 00 00 00 00 00 00 00... rts
                         .kbvse_mismatch:
00005C40  01 BF 00 00 01 00 00 00... move.q  r23, #1
00005C48  51 00 00 00 00 00 00 00... rts
                         kern_boot_validate_name32_eq:
00005C50  01 85 00 00 00 00 00 00... move.l  r16, #0
                         .kbvn32_loop:
00005C58  01 8D 00 00 20 00 00 00... move.l  r17, #32
00005C60  44 06 80 88 88 00 00 00... bge     r16, r17, .kbvn32_match
00005C68  20 96 70 80 00 00 00 00... add     r18, r14, r16
00005C70  10 90 90 00 00 00 00 00... load.b  r18, (r18)
00005C78  20 9E 78 80 00 00 00 00... add     r19, r15, r16
00005C80  10 98 98 00 00 00 00 00... load.b  r19, (r19)
00005C88  42 06 90 98 70 00 00 00... bne     r18, r19, .kbvn32_mismatch
00005C90  41 06 98 00 18 00 00 00... beq r19, r0, .kbvn32_tail
00005C98  20 87 80 00 01 00 00 00... add     r16, r16, #1
00005CA0  40 06 00 00 B8 FF FF FF... bra     .kbvn32_loop
                         .kbvn32_tail:
00005CA8  20 87 80 00 01 00 00 00... add     r16, r16, #1
                         .kbvn32_zero_loop:
00005CB0  01 8D 00 00 20 00 00 00... move.l  r17, #32
00005CB8  44 06 80 88 30 00 00 00... bge     r16, r17, .kbvn32_match
00005CC0  20 96 70 80 00 00 00 00... add     r18, r14, r16
00005CC8  10 90 90 00 00 00 00 00... load.b  r18, (r18)
00005CD0  42 06 90 00 28 00 00 00... bne r18, r0, .kbvn32_mismatch
00005CD8  20 87 80 00 01 00 00 00... add     r16, r16, #1
00005CE0  40 06 00 00 D0 FF FF FF... bra     .kbvn32_zero_loop
                         .kbvn32_match:
00005CE8  01 BF 00 00 00 00 00 00... move.q  r23, #0
00005CF0  51 00 00 00 00 00 00 00... rts
                         .kbvn32_mismatch:
00005CF8  01 BF 00 00 01 00 00 00... move.q  r23, #1
00005D00  51 00 00 00 00 00 00 00... rts
                         kbvlm_manifest_section_name:
00005D08  2E 69 6F 73 2E 6D 61 6E... dc.b    ".ios.manifest", 0
                         align   4  ; 2 bytes padding
                         kbvlm_manifest_note_name:
00005D18  49 4F 53 2D 4D 4F 44 00... dc.b    "IOS-MOD", 0
                         kbvlm_reloc_note_name:
00005D20  49 4F 53 2D 52 45 4C 00... dc.b    "IOS-REL", 0
                         kern_seed_dos_boot_shell_relpath_tasksb:
00005D28  52 06 A0 00 00 00 00 00... push    r20
00005D30  52 06 A8 00 00 00 00 00... push    r21
00005D38  52 06 B0 00 00 00 00 00... push    r22
00005D40  01 A6 08 00 00 00 00 00... move.q  r20, r1
00005D48  50 06 00 00 08 C3 FF FF... jsr     kern_task_layout_addr
00005D50  10 A7 08 00 28 00 00 00... load.q  r20, KD_TASK_LAYOUT_STARTUP(r1)
00005D58  20 AF A0 00 40 00 00 00... add     r21, r20, #TASKSB_BOOT_DOS_SHELL_RELPATH
00005D60  04 B7 00 00 44 4A 01 00... lea r22, boot_host_relpath_shell(r0)
00005D68  50 06 00 00 28 01 00 00... jsr     kern_copy_nul_string
00005D70  53 B6 00 00 00 00 00 00... pop     r22
00005D78  53 AE 00 00 00 00 00 00... pop     r21
00005D80  53 A6 00 00 00 00 00 00... pop     r20
00005D88  01 17 00 00 00 00 00 00... move.q  r2, #ERR_OK
00005D90  51 00 00 00 00 00 00 00... rts
                         kern_dos_bootstrap_completed:
00005D98  52 06 A0 00 00 00 00 00... push    r20
00005DA0  52 06 A8 00 00 00 00 00... push    r21
00005DA8  52 06 B0 00 00 00 00 00... push    r22
00005DB0  01 A6 08 00 00 00 00 00... move.q  r20, r1
00005DB8  01 AD 00 00 00 00 00 00... move.l  r21, #0
                         .kdbc_scan:
00005DC0  01 B5 00 00 10 00 00 00... move.l  r22, #KD_MODULE_MAX
00005DC8  44 06 A8 B0 A0 00 00 00... bge     r21, r22, .kdbc_no
00005DD0  01 0E A8 00 00 00 00 00... move.q  r1, r21
00005DD8  52 06 A8 00 00 00 00 00... push    r21
00005DE0  50 06 00 00 18 B4 00 00... jsr     m16_module_row_addr_for_index
00005DE8  53 AE 00 00 00 00 00 00... pop     r21
00005DF0  01 B6 08 00 00 00 00 00... move.q  r22, r1
00005DF8  41 06 B0 00 60 00 00 00... beq r22, r0, .kdbc_next
00005E00  10 75 B0 00 20 00 00 00... load.l  r14, KD_MODULE_STATE(r22)
00005E08  01 5D 00 00 02 00 00 00... move.l  r11, #M16_MODSTATE_ONLINE
00005E10  42 06 70 58 48 00 00 00... bne     r14, r11, .kdbc_next
00005E18  10 75 B0 00 30 00 00 00... load.l  r14, KD_MODULE_OWNING_TASK(r22)
00005E20  42 06 70 A0 38 00 00 00... bne     r14, r20, .kdbc_next
00005E28  20 77 B0 00 00 00 00 00... add     r14, r22, #KD_MODULE_NAME
00005E30  04 7F 00 00 08 47 01 00... lea r15, boot_manifest_name_doslib(r0)
00005E38  50 06 00 00 18 FE FF FF... jsr     kern_boot_validate_name32_eq
00005E40  42 06 B8 00 18 00 00 00... bne r23, r0, .kdbc_next
00005E48  01 0F 00 00 01 00 00 00... move.q  r1, #1
00005E50  40 06 00 00 20 00 00 00... bra     .kdbc_done
                         .kdbc_next:
00005E58  20 AF A8 00 01 00 00 00... add     r21, r21, #1
00005E60  40 06 00 00 60 FF FF FF... bra     .kdbc_scan
                         .kdbc_no:
00005E68  01 0F 00 00 00 00 00 00... move.q  r1, #0
                         .kdbc_done:
00005E70  53 B6 00 00 00 00 00 00... pop     r22
00005E78  53 AE 00 00 00 00 00 00... pop     r21
00005E80  53 A6 00 00 00 00 00 00... pop     r20
00005E88  51 00 00 00 00 00 00 00... rts
                         kern_copy_nul_string:
                         .kcns_loop:
00005E90  10 B8 B0 00 00 00 00 00... load.b  r23, (r22)
00005E98  11 B8 A8 00 00 00 00 00... store.b r23, (r21)
00005EA0  20 B7 B0 00 01 00 00 00... add     r22, r22, #1
00005EA8  20 AF A8 00 01 00 00 00... add     r21, r21, #1
00005EB0  42 06 B8 00 E0 FF FF FF... bne r23, r0, .kcns_loop
00005EB8  51 00 00 00 00 00 00 00... rts
                         boot_load_elf_image:
00005EC0  21 FF F8 00 00 01 00 00... sub     sp, sp, #256
00005EC8  11 0E F8 00 00 00 00 00... store.q r1, 0(sp)
00005ED0  11 17 F8 00 08 00 00 00... store.q r2, 8(sp)
00005ED8  11 1F F8 00 10 00 00 00... store.q r3, 16(sp)
00005EE0  01 25 00 00 40 00 00 00... move.l  r4, #64
00005EE8  43 06 10 20 20 08 00 00... blt     r2, r4, .blei_badarg
00005EF0  10 24 08 00 00 00 00 00... load.l  r4, (r1)
00005EF8  01 2D 00 00 7F 45 4C 46... move.l  r5, #0x464C457F
00005F00  42 06 20 28 08 08 00 00... bne     r4, r5, .blei_badarg
00005F08  10 21 08 00 04 00 00 00... load.b  r4, 4(r1)
00005F10  01 2D 00 00 02 00 00 00... move.l  r5, #2
00005F18  42 06 20 28 F0 07 00 00... bne     r4, r5, .blei_badarg
00005F20  10 21 08 00 05 00 00 00... load.b  r4, 5(r1)
00005F28  01 2D 00 00 01 00 00 00... move.l  r5, #1
00005F30  42 06 20 28 D8 07 00 00... bne     r4, r5, .blei_badarg
00005F38  10 21 08 00 06 00 00 00... load.b  r4, 6(r1)
00005F40  01 2D 00 00 01 00 00 00... move.l  r5, #1
00005F48  42 06 20 28 C0 07 00 00... bne     r4, r5, .blei_badarg
00005F50  10 21 08 00 07 00 00 00... load.b  r4, 7(r1)
00005F58  42 06 20 00 B0 07 00 00... bne r4, r0, .blei_badarg
00005F60  10 25 08 00 10 00 00 00... load.l  r4, 16(r1)
00005F68  30 27 20 00 FF FF 00 00... and     r4, r4, #0xFFFF
00005F70  01 2D 00 00 03 00 00 00... move.l  r5, #3
00005F78  42 06 20 28 90 07 00 00... bne     r4, r5, .blei_badarg
00005F80  10 25 08 00 12 00 00 00... load.l  r4, 18(r1)
00005F88  30 27 20 00 FF FF 00 00... and     r4, r4, #0xFFFF
00005F90  01 2D 00 00 45 49 00 00... move.l  r5, #0x4945
00005F98  42 06 20 28 70 07 00 00... bne     r4, r5, .blei_badarg
00005FA0  10 25 08 00 14 00 00 00... load.l  r4, 20(r1)
00005FA8  01 2D 00 00 01 00 00 00... move.l  r5, #1
00005FB0  42 06 20 28 58 07 00 00... bne     r4, r5, .blei_badarg
00005FB8  10 25 08 00 1C 00 00 00... load.l  r4, 28(r1)
00005FC0  42 06 20 00 48 07 00 00... bne r4, r0, .blei_badarg
00005FC8  10 B5 08 00 18 00 00 00... load.l  r22, 24(r1)
00005FD0  10 A5 08 00 20 00 00 00... load.l  r20, 32(r1)
00005FD8  10 25 08 00 24 00 00 00... load.l  r4, 36(r1)
00005FE0  42 06 20 00 28 07 00 00... bne r4, r0, .blei_badarg
00005FE8  10 25 08 00 34 00 00 00... load.l  r4, 52(r1)
00005FF0  30 27 20 00 FF FF 00 00... and     r4, r4, #0xFFFF
00005FF8  01 2D 00 00 40 00 00 00... move.l  r5, #64
00006000  42 06 20 28 08 07 00 00... bne     r4, r5, .blei_badarg
00006008  10 25 08 00 36 00 00 00... load.l  r4, 54(r1)
00006010  30 27 20 00 FF FF 00 00... and     r4, r4, #0xFFFF
00006018  01 2D 00 00 38 00 00 00... move.l  r5, #56
00006020  42 06 20 28 E8 06 00 00... bne     r4, r5, .blei_badarg
00006028  10 AD 08 00 38 00 00 00... load.l  r21, 56(r1)
00006030  30 AF A8 00 FF FF 00 00... and     r21, r21, #0xFFFF
00006038  01 2D 00 00 02 00 00 00... move.l  r5, #2
00006040  43 06 A8 28 C8 06 00 00... blt     r21, r5, .blei_badarg
00006048  01 2D 00 00 38 00 00 00... move.l  r5, #56
00006050  22 36 A8 28 00 00 00 00... mulu    r6, r21, r5
00006058  20 36 A0 30 00 00 00 00... add     r6, r20, r6
00006060  43 06 30 A0 A8 06 00 00... blt     r6, r20, .blei_badarg
00006068  10 3F F8 00 08 00 00 00... load.q  r7, 8(sp)
00006070  43 06 38 30 98 06 00 00... blt     r7, r6, .blei_badarg
00006078  10 0E F8 00 00 00 00 00... load.q  r1, 0(sp)
00006080  11 07 F8 00 18 00 00 00... store.q r0, 24(sp)
00006088  11 07 F8 00 20 00 00 00... store.q r0, 32(sp)
00006090  11 07 F8 00 28 00 00 00... store.q r0, 40(sp)
00006098  11 07 F8 00 38 00 00 00... store.q r0, 56(sp)
000060A0  01 BE 08 00 00 00 00 00... move.q  r23, r1
000060A8  20 BE B8 A0 00 00 00 00... add     r23, r23, r20
000060B0  01 C7 00 00 00 00 00 00... move.q  r24, #0
                         .blei_ph_loop:
000060B8  44 06 C0 A8 78 02 00 00... bge     r24, r21, .blei_ph_done
000060C0  10 24 B8 00 00 00 00 00... load.l  r4, (r23)
000060C8  01 2D 00 00 01 00 00 00... move.l  r5, #1
000060D0  41 06 20 28 78 00 00 00... beq     r4, r5, .blei_load_ph
000060D8  01 2D 00 00 04 00 00 00... move.l  r5, #4
000060E0  41 06 20 28 10 00 00 00... beq     r4, r5, .blei_note_ph
000060E8  40 06 00 00 20 06 00 00... bra     .blei_badarg
                         .blei_note_ph:
000060F0  10 2D B8 00 0C 00 00 00... load.l  r5, 12(r23)
000060F8  42 06 28 00 10 06 00 00... bne r5, r0, .blei_badarg
00006100  10 2D B8 00 24 00 00 00... load.l  r5, 36(r23)
00006108  42 06 28 00 00 06 00 00... bne r5, r0, .blei_badarg
00006110  10 5D B8 00 08 00 00 00... load.l  r11, 8(r23)
00006118  10 3D B8 00 20 00 00 00... load.l  r7, 32(r23)
00006120  20 4E 58 38 00 00 00 00... add     r9, r11, r7
00006128  43 06 48 58 E0 05 00 00... blt     r9, r11, .blei_badarg
00006130  10 57 F8 00 08 00 00 00... load.q  r10, 8(sp)
00006138  43 06 50 48 D0 05 00 00... blt     r10, r9, .blei_badarg
00006140  40 06 00 00 D8 01 00 00... bra     .blei_next
                         .blei_load_ph:
00006148  10 25 B8 00 04 00 00 00... load.l  r4, 4(r23)
00006150  01 2E 20 00 00 00 00 00... move.q  r5, r4
00006158  30 2F 28 00 F8 FF FF FF... and     r5, r5, #0xFFFFFFF8
00006160  42 06 28 00 A8 05 00 00... bne r5, r0, .blei_badarg
00006168  41 06 20 00 A0 05 00 00... beq r4, r0, .blei_badarg
00006170  01 2E 20 00 00 00 00 00... move.q  r5, r4
00006178  01 5D 00 00 02 00 00 00... move.l  r11, #2
00006180  41 06 28 58 88 05 00 00... beq     r5, r11, .blei_badarg
00006188  01 2E 20 00 00 00 00 00... move.q  r5, r4
00006190  30 2F 28 00 03 00 00 00... and     r5, r5, #3
00006198  01 35 00 00 03 00 00 00... move.l  r6, #3
000061A0  41 06 28 30 68 05 00 00... beq     r5, r6, .blei_badarg
000061A8  10 2D B8 00 0C 00 00 00... load.l  r5, 12(r23)
000061B0  42 06 28 00 58 05 00 00... bne r5, r0, .blei_badarg
000061B8  10 2D B8 00 14 00 00 00... load.l  r5, 20(r23)
000061C0  42 06 28 00 48 05 00 00... bne r5, r0, .blei_badarg
000061C8  10 2D B8 00 24 00 00 00... load.l  r5, 36(r23)
000061D0  42 06 28 00 38 05 00 00... bne r5, r0, .blei_badarg
000061D8  10 2D B8 00 2C 00 00 00... load.l  r5, 44(r23)
000061E0  42 06 28 00 28 05 00 00... bne r5, r0, .blei_badarg
000061E8  10 2D B8 00 34 00 00 00... load.l  r5, 52(r23)
000061F0  42 06 28 00 18 05 00 00... bne r5, r0, .blei_badarg
000061F8  10 5D B8 00 08 00 00 00... load.l  r11, 8(r23)
00006200  10 35 B8 00 10 00 00 00... load.l  r6, 16(r23)
00006208  10 3D B8 00 20 00 00 00... load.l  r7, 32(r23)
00006210  10 45 B8 00 28 00 00 00... load.l  r8, 40(r23)
00006218  10 4D B8 00 30 00 00 00... load.l  r9, 48(r23)
00006220  01 55 00 00 00 10 00 00... move.l  r10, #4096
00006228  42 06 48 50 E0 04 00 00... bne     r9, r10, .blei_badarg
00006230  41 06 40 00 D8 04 00 00... beq r8, r0, .blei_badarg
00006238  30 4F 58 00 FF 0F 00 00... and     r9, r11, #0xFFF
00006240  30 57 30 00 FF 0F 00 00... and     r10, r6, #0xFFF
00006248  42 06 48 50 C0 04 00 00... bne     r9, r10, .blei_badarg
00006250  30 4F 30 00 FF 0F 00 00... and     r9, r6, #0xFFF
00006258  42 06 48 00 B0 04 00 00... bne r9, r0, .blei_badarg
00006260  43 06 40 38 A8 04 00 00... blt     r8, r7, .blei_badarg
00006268  20 4E 58 38 00 00 00 00... add     r9, r11, r7
00006270  43 06 48 58 98 04 00 00... blt     r9, r11, .blei_badarg
00006278  10 57 F8 00 08 00 00 00... load.q  r10, 8(sp)
00006280  43 06 50 48 88 04 00 00... blt     r10, r9, .blei_badarg
00006288  20 4E 30 40 00 00 00 00... add     r9, r6, r8
00006290  43 06 48 30 78 04 00 00... blt     r9, r6, .blei_badarg
00006298  10 57 F8 00 38 00 00 00... load.q  r10, 56(sp)
000062A0  44 06 50 48 10 00 00 00... bge     r10, r9, .blei_span_ready
000062A8  11 4F F8 00 38 00 00 00... store.q r9, 56(sp)
                         .blei_span_ready:
000062B0  30 57 20 00 01 00 00 00... and     r10, r4, #1
000062B8  41 06 50 00 48 00 00 00... beq r10, r0, .blei_data_seg
000062C0  10 57 F8 00 18 00 00 00... load.q  r10, 24(sp)
000062C8  42 06 50 00 40 04 00 00... bne r10, r0, .blei_badarg
000062D0  11 BF F8 00 18 00 00 00... store.q r23, 24(sp)
000062D8  43 06 B0 30 40 00 00 00... blt     r22, r6, .blei_next
000062E0  44 06 B0 48 38 00 00 00... bge     r22, r9, .blei_next
000062E8  01 55 00 00 01 00 00 00... move.l  r10, #1
000062F0  11 57 F8 00 28 00 00 00... store.q r10, 40(sp)
000062F8  40 06 00 00 20 00 00 00... bra     .blei_next
                         .blei_data_seg:
00006300  10 57 F8 00 20 00 00 00... load.q  r10, 32(sp)
00006308  42 06 50 00 00 04 00 00... bne r10, r0, .blei_badarg
00006310  11 BF F8 00 20 00 00 00... store.q r23, 32(sp)
                         .blei_next:
00006318  20 BF B8 00 38 00 00 00... add     r23, r23, #56
00006320  20 C7 C0 00 01 00 00 00... add     r24, r24, #1
00006328  40 06 00 00 90 FD FF FF... bra     .blei_ph_loop
                         .blei_ph_done:
00006330  10 BF F8 00 18 00 00 00... load.q  r23, 24(sp)
00006338  41 06 B8 00 D0 03 00 00... beq r23, r0, .blei_badarg
00006340  10 C7 F8 00 20 00 00 00... load.q  r24, 32(sp)
00006348  41 06 C0 00 C0 03 00 00... beq r24, r0, .blei_badarg
00006350  10 27 F8 00 28 00 00 00... load.q  r4, 40(sp)
00006358  41 06 20 00 B0 03 00 00... beq r4, r0, .blei_badarg
00006360  10 0F F8 00 38 00 00 00... load.q  r1, 56(sp)
00006368  20 0F 08 00 FF 0F 00 00... add     r1, r1, #4095
00006370  35 0F 08 00 0C 00 00 00... lsr     r1, r1, #12
00006378  50 06 00 00 80 BE FF FF... jsr     kern_aslr_choose_image_base
00006380  42 06 10 00 60 03 00 00... bne r2, r0, .blei_nomem
00006388  11 0F F8 00 30 00 00 00... store.q r1, 48(sp)
00006390  10 CD B8 00 20 00 00 00... load.l  r25, 32(r23)
00006398  10 D5 B8 00 28 00 00 00... load.l  r26, 40(r23)
000063A0  10 9D B8 00 04 00 00 00... load.l  r19, 4(r23)
000063A8  20 D7 D0 00 FF 0F 00 00... add     r26, r26, #4095
000063B0  35 D7 D0 00 0C 00 00 00... lsr     r26, r26, #12
000063B8  10 DD C0 00 20 00 00 00... load.l  r27, 32(r24)
000063C0  10 E5 C0 00 28 00 00 00... load.l  r28, 40(r24)
000063C8  11 E7 F8 00 40 00 00 00... store.q r28, 64(sp)
000063D0  10 95 C0 00 04 00 00 00... load.l  r18, 4(r24)
000063D8  20 E7 E0 00 FF 0F 00 00... add     r28, r28, #4095
000063E0  35 E7 E0 00 0C 00 00 00... lsr     r28, r28, #12
000063E8  01 0E E0 00 00 00 00 00... move.q  r1, r28
000063F0  50 06 00 00 F8 21 00 00... jsr     alloc_pages
000063F8  42 06 10 00 E8 02 00 00... bne r2, r0, .blei_nomem
00006400  11 0F F8 00 48 00 00 00... store.q r1, 72(sp)
00006408  11 E7 F8 00 58 00 00 00... store.q r28, 88(sp)
00006410  34 0F 08 00 0C 00 00 00... lsl     r1, r1, #12
00006418  11 0F F8 00 50 00 00 00... store.q r1, 80(sp)
00006420  01 6E 08 00 00 00 00 00... move.q  r13, r1
00006428  01 76 E0 00 00 00 00 00... move.q  r14, r28
00006430  34 77 70 00 0C 00 00 00... lsl     r14, r14, #12
00006438  20 76 70 68 00 00 00 00... add     r14, r14, r13
                         .blei_zero_temp_data:
00006440  44 06 68 70 20 00 00 00... bge     r13, r14, .blei_copy_temp_data
00006448  11 06 68 00 00 00 00 00... store.q r0, (r13)
00006450  20 6F 68 00 08 00 00 00... add     r13, r13, #8
00006458  40 06 00 00 E8 FF FF FF... bra     .blei_zero_temp_data
                         .blei_copy_temp_data:
00006460  10 25 C0 00 08 00 00 00... load.l  r4, 8(r24)
00006468  10 2E F8 00 00 00 00 00... load.q  r5, 0(sp)
00006470  20 2E 28 20 00 00 00 00... add     r5, r5, r4
00006478  10 37 F8 00 50 00 00 00... load.q  r6, 80(sp)
00006480  01 3E D8 00 00 00 00 00... move.q  r7, r27
                         .blei_copy_temp_data_loop:
00006488  41 06 38 00 38 00 00 00... beq r7, r0, .blei_temp_data_ready
00006490  10 40 28 00 00 00 00 00... load.b  r8, (r5)
00006498  11 40 30 00 00 00 00 00... store.b r8, (r6)
000064A0  20 2F 28 00 01 00 00 00... add     r5, r5, #1
000064A8  20 37 30 00 01 00 00 00... add     r6, r6, #1
000064B0  21 3F 38 00 01 00 00 00... sub     r7, r7, #1
000064B8  40 06 00 00 D0 FF FF FF... bra     .blei_copy_temp_data_loop
                         .blei_temp_data_ready:
000064C0  20 EF F8 00 60 00 00 00... add     r29, sp, #96
000064C8  01 25 00 00 4C 44 45 53... move.l  r4, #M14_LDESC_MAGIC
000064D0  11 24 E8 00 00 00 00 00... store.l r4, M14_LDESC_OFF_MAGIC(r29)
000064D8  01 25 00 00 01 00 00 00... move.l  r4, #M14_LDESC_VERSION
000064E0  11 25 E8 00 04 00 00 00... store.l r4, M14_LDESC_OFF_VERSION(r29)
000064E8  01 25 00 00 30 00 00 00... move.l  r4, #M14_LDESC_SIZE
000064F0  11 25 E8 00 08 00 00 00... store.l r4, M14_LDESC_OFF_SIZE(r29)
000064F8  01 25 00 00 02 00 00 00... move.l  r4, #2
00006500  11 25 E8 00 0C 00 00 00... store.l r4, M14_LDESC_OFF_SEGCNT(r29)
00006508  01 26 B0 00 00 00 00 00... move.q  r4, r22
00006510  10 2F F8 00 30 00 00 00... load.q  r5, 48(sp)
00006518  20 26 20 28 00 00 00 00... add     r4, r4, r5
00006520  11 27 E8 00 10 00 00 00... store.q r4, M14_LDESC_OFF_ENTRY(r29)
00006528  01 25 00 00 01 00 00 00... move.l  r4, #1
00006530  11 25 E8 00 18 00 00 00... store.l r4, M14_LDESC_OFF_STACKPG(r29)
00006538  20 27 F8 00 90 00 00 00... add     r4, sp, #144
00006540  11 27 E8 00 20 00 00 00... store.q r4, M14_LDESC_OFF_SEGTBL(r29)
00006548  20 F7 F8 00 90 00 00 00... add     r30, sp, #144
00006550  10 25 B8 00 08 00 00 00... load.l  r4, 8(r23)
00006558  10 2E F8 00 00 00 00 00... load.q  r5, 0(sp)
00006560  20 2E 28 20 00 00 00 00... add     r5, r5, r4
00006568  11 2E F0 00 00 00 00 00... store.q r5, M14_LDSEG_OFF_SRCPTR(r30)
00006570  11 CF F0 00 08 00 00 00... store.q r25, M14_LDSEG_OFF_SRCSZ(r30)
00006578  10 2F B8 00 10 00 00 00... load.q  r5, 16(r23)
00006580  10 37 F8 00 30 00 00 00... load.q  r6, 48(sp)
00006588  20 2E 28 30 00 00 00 00... add     r5, r5, r6
00006590  11 2F F0 00 10 00 00 00... store.q r5, M14_LDSEG_OFF_TARGET(r30)
00006598  11 D5 F0 00 18 00 00 00... store.l r26, M14_LDSEG_OFF_PAGES(r30)
000065A0  01 2E 98 00 00 00 00 00... move.q  r5, r19
000065A8  11 2D F0 00 1C 00 00 00... store.l r5, M14_LDSEG_OFF_FLAGS(r30)
000065B0  20 F7 F8 00 B0 00 00 00... add     r30, sp, #176
000065B8  10 2F F8 00 50 00 00 00... load.q  r5, 80(sp)
000065C0  11 2E F0 00 00 00 00 00... store.q r5, M14_LDSEG_OFF_SRCPTR(r30)
000065C8  10 2F F8 00 40 00 00 00... load.q  r5, 64(sp)
000065D0  11 2F F0 00 08 00 00 00... store.q r5, M14_LDSEG_OFF_SRCSZ(r30)
000065D8  10 2F C0 00 10 00 00 00... load.q  r5, 16(r24)
000065E0  10 37 F8 00 30 00 00 00... load.q  r6, 48(sp)
000065E8  20 2E 28 30 00 00 00 00... add     r5, r5, r6
000065F0  11 2F F0 00 10 00 00 00... store.q r5, M14_LDSEG_OFF_TARGET(r30)
000065F8  11 E5 F0 00 18 00 00 00... store.l r28, M14_LDSEG_OFF_PAGES(r30)
00006600  01 2E 90 00 00 00 00 00... move.q  r5, r18
00006608  11 2D F0 00 1C 00 00 00... store.l r5, M14_LDSEG_OFF_FLAGS(r30)
00006610  10 0E F8 00 00 00 00 00... load.q  r1, 0(sp)
00006618  10 17 F8 00 08 00 00 00... load.q  r2, 8(sp)
00006620  20 1F F8 00 60 00 00 00... add     r3, sp, #96
00006628  10 27 F8 00 30 00 00 00... load.q  r4, 48(sp)
00006630  50 06 00 00 00 01 00 00... jsr     boot_elf_apply_relocations
00006638  42 06 10 00 88 00 00 00... bne r2, r0, .blei_badarg_free_temp
00006640  20 0F F8 00 60 00 00 00... add     r1, sp, #96
00006648  01 15 00 00 30 00 00 00... move.l  r2, #M14_LDESC_SIZE
00006650  01 1D 00 00 00 D0 07 00... move.l  r3, #KERN_PAGE_TABLE
00006658  10 27 F8 00 10 00 00 00... load.q  r4, 16(sp)
00006660  50 06 00 00 00 10 00 00... jsr     exec_desc_launch_task
00006668  01 5E 08 00 00 00 00 00... move.q  r11, r1
00006670  01 66 10 00 00 00 00 00... move.q  r12, r2
00006678  01 6E 18 00 00 00 00 00... move.q  r13, r3
00006680  10 0F F8 00 48 00 00 00... load.q  r1, 72(sp)
00006688  10 17 F8 00 58 00 00 00... load.q  r2, 88(sp)
00006690  50 06 00 00 B0 20 00 00... jsr     free_pages
00006698  01 0E 58 00 00 00 00 00... move.q  r1, r11
000066A0  01 16 68 00 00 00 00 00... move.q  r2, r13
000066A8  01 1E 60 00 00 00 00 00... move.q  r3, r12
000066B0  20 FF F8 00 00 01 00 00... add     sp, sp, #256
000066B8  51 00 00 00 00 00 00 00... rts
                         .blei_badarg_free_temp:
000066C0  10 0F F8 00 48 00 00 00... load.q  r1, 72(sp)
000066C8  10 17 F8 00 58 00 00 00... load.q  r2, 88(sp)
000066D0  50 06 00 00 70 20 00 00... jsr     free_pages
000066D8  40 06 00 00 30 00 00 00... bra     .blei_badarg
                         .blei_nomem:
000066E0  01 0E 00 00 00 00 00 00... move.q  r1, r0
000066E8  01 17 00 00 01 00 00 00... move.q  r2, #ERR_NOMEM
000066F0  01 1E 00 00 00 00 00 00... move.q  r3, r0
000066F8  20 FF F8 00 00 01 00 00... add     sp, sp, #256
00006700  51 00 00 00 00 00 00 00... rts
                         .blei_badarg:
00006708  01 0E 00 00 00 00 00 00... move.q  r1, r0
00006710  01 17 00 00 03 00 00 00... move.q  r2, #ERR_BADARG
00006718  01 1E 00 00 00 00 00 00... move.q  r3, r0
00006720  20 FF F8 00 00 01 00 00... add     sp, sp, #256
00006728  51 00 00 00 00 00 00 00... rts
                         boot_elf_apply_relocations:
00006730  21 FF F8 00 90 00 00 00... sub     sp, sp, #144
00006738  11 0E F8 00 00 00 00 00... store.q r1, 0(sp)
00006740  11 17 F8 00 08 00 00 00... store.q r2, 8(sp)
00006748  11 1F F8 00 10 00 00 00... store.q r3, 16(sp)
00006750  11 27 F8 00 18 00 00 00... store.q r4, 24(sp)
00006758  10 97 08 00 28 00 00 00... load.q  r18, 40(r1)
00006760  41 06 90 00 80 04 00 00... beq r18, r0, .bear_ptnote_relocs
00006768  11 07 F8 00 80 00 00 00... store.q r0, 128(sp)
00006770  11 97 F8 00 20 00 00 00... store.q r18, 32(sp)
00006778  10 9B 08 00 3A 00 00 00... load.w  r19, 58(r1)
00006780  01 5D 00 00 40 00 00 00... move.l  r11, #64
00006788  42 06 98 58 28 08 00 00... bne     r19, r11, .bear_badarg
00006790  11 9F F8 00 28 00 00 00... store.q r19, 40(sp)
00006798  10 A3 08 00 3C 00 00 00... load.w  r20, 60(r1)
000067A0  41 06 A0 00 10 08 00 00... beq r20, r0, .bear_badarg
000067A8  11 A7 F8 00 30 00 00 00... store.q r20, 48(sp)
000067B0  01 AE A0 00 00 00 00 00... move.q  r21, r20
000067B8  22 AE 98 A8 00 00 00 00... mulu    r21, r19, r21
000067C0  20 AE 90 A8 00 00 00 00... add     r21, r18, r21
000067C8  43 06 A8 90 E8 07 00 00... blt     r21, r18, .bear_badarg
000067D0  10 B7 F8 00 08 00 00 00... load.q  r22, 8(sp)
000067D8  45 06 A8 B0 D8 07 00 00... bgt     r21, r22, .bear_badarg
000067E0  11 07 F8 00 38 00 00 00... store.q r0, 56(sp)
                         .bear_sh_loop:
000067E8  10 A7 F8 00 30 00 00 00... load.q  r20, 48(sp)
000067F0  10 AF F8 00 38 00 00 00... load.q  r21, 56(sp)
000067F8  44 06 A8 A0 A0 07 00 00... bge     r21, r20, .bear_ok
00006800  10 97 F8 00 20 00 00 00... load.q  r18, 32(sp)
00006808  10 9F F8 00 28 00 00 00... load.q  r19, 40(sp)
00006810  01 B6 A8 00 00 00 00 00... move.q  r22, r21
00006818  22 B6 98 B0 00 00 00 00... mulu    r22, r19, r22
00006820  20 B6 90 B0 00 00 00 00... add     r22, r18, r22
00006828  10 0E F8 00 00 00 00 00... load.q  r1, 0(sp)
00006830  20 B6 08 B0 00 00 00 00... add     r22, r1, r22
00006838  10 5D B0 00 04 00 00 00... load.l  r11, 4(r22)
00006840  01 65 00 00 04 00 00 00... move.l  r12, #4
00006848  42 06 58 60 78 03 00 00... bne     r11, r12, .bear_next_sh
00006850  10 BF B0 00 18 00 00 00... load.q  r23, 24(r22)
00006858  10 C7 B0 00 20 00 00 00... load.q  r24, 32(r22)
00006860  10 CF B0 00 38 00 00 00... load.q  r25, 56(r22)
00006868  01 5D 00 00 18 00 00 00... move.l  r11, #24
00006870  42 06 C8 58 40 07 00 00... bne     r25, r11, .bear_badarg
00006878  41 06 C0 00 48 03 00 00... beq r24, r0, .bear_next_sh
00006880  01 D6 C0 00 00 00 00 00... move.q  r26, r24
00006888  24 D6 D0 58 00 00 00 00... divu    r26, r26, r11
00006890  01 DE D0 00 00 00 00 00... move.q  r27, r26
00006898  22 DE 58 D8 00 00 00 00... mulu    r27, r11, r27
000068A0  42 06 D8 C0 10 07 00 00... bne     r27, r24, .bear_badarg
000068A8  20 E6 B8 C0 00 00 00 00... add     r28, r23, r24
000068B0  43 06 E0 B8 00 07 00 00... blt     r28, r23, .bear_badarg
000068B8  10 5F F8 00 08 00 00 00... load.q  r11, 8(sp)
000068C0  45 06 E0 58 F0 06 00 00... bgt     r28, r11, .bear_badarg
000068C8  10 0E F8 00 00 00 00 00... load.q  r1, 0(sp)
000068D0  20 BE 08 B8 00 00 00 00... add     r23, r1, r23
000068D8  20 E6 08 E0 00 00 00 00... add     r28, r1, r28
000068E0  11 BF F8 00 40 00 00 00... store.q r23, 64(sp)
000068E8  11 E7 F8 00 48 00 00 00... store.q r28, 72(sp)
000068F0  11 D7 F8 00 50 00 00 00... store.q r26, 80(sp)
000068F8  11 07 F8 00 58 00 00 00... store.q r0, 88(sp)
                         .bear_rela_loop:
00006900  10 D7 F8 00 50 00 00 00... load.q  r26, 80(sp)
00006908  10 DF F8 00 58 00 00 00... load.q  r27, 88(sp)
00006910  44 06 D8 D0 98 02 00 00... bge     r27, r26, .bear_rela_done
00006918  10 BF F8 00 40 00 00 00... load.q  r23, 64(sp)
00006920  10 5D B8 00 04 00 00 00... load.l  r11, 4(r23)
00006928  42 06 58 00 88 06 00 00... bne r11, r0, .bear_badarg
00006930  10 5D B8 00 0C 00 00 00... load.l  r11, 12(r23)
00006938  42 06 58 00 78 06 00 00... bne r11, r0, .bear_badarg
00006940  10 5D B8 00 08 00 00 00... load.l  r11, 8(r23)
00006948  01 65 00 00 01 00 00 00... move.l  r12, #1
00006950  42 06 58 60 60 06 00 00... bne     r11, r12, .bear_badarg
00006958  10 5D B8 00 14 00 00 00... load.l  r11, 20(r23)
00006960  42 06 58 00 50 06 00 00... bne r11, r0, .bear_badarg
00006968  10 5C B8 00 00 00 00 00... load.l  r11, 0(r23)
00006970  30 67 58 00 07 00 00 00... and     r12, r11, #7
00006978  42 06 60 00 38 06 00 00... bne r12, r0, .bear_badarg
00006980  10 67 F8 00 18 00 00 00... load.q  r12, 24(sp)
00006988  20 6E 58 60 00 00 00 00... add     r13, r11, r12
00006990  43 06 68 60 20 06 00 00... blt     r13, r12, .bear_badarg
00006998  11 6F F8 00 60 00 00 00... store.q r13, 96(sp)
000069A0  10 5D B8 00 10 00 00 00... load.l  r11, 16(r23)
000069A8  10 67 F8 00 18 00 00 00... load.q  r12, 24(sp)
000069B0  20 6E 58 60 00 00 00 00... add     r13, r11, r12
000069B8  43 06 68 60 F8 05 00 00... blt     r13, r12, .bear_badarg
000069C0  11 6F F8 00 68 00 00 00... store.q r13, 104(sp)
000069C8  11 07 F8 00 70 00 00 00... store.q r0, 112(sp)
000069D0  11 07 F8 00 78 00 00 00... store.q r0, 120(sp)
000069D8  10 1F F8 00 10 00 00 00... load.q  r3, 16(sp)
000069E0  10 75 18 00 0C 00 00 00... load.l  r14, M14_LDESC_OFF_SEGCNT(r3)
000069E8  10 7F 18 00 20 00 00 00... load.q  r15, M14_LDESC_OFF_SEGTBL(r3)
000069F0  01 85 00 00 00 00 00 00... move.l  r16, #0
                         .bear_seg_loop:
000069F8  44 06 80 70 40 01 00 00... bge     r16, r14, .bear_seg_done
00006A00  01 8D 00 00 20 00 00 00... move.l  r17, #M14_LDESC_SEG_SIZE
00006A08  22 96 80 88 00 00 00 00... mulu    r18, r16, r17
00006A10  20 96 90 78 00 00 00 00... add     r18, r18, r15
00006A18  10 9F 90 00 10 00 00 00... load.q  r19, M14_LDSEG_OFF_TARGET(r18)
00006A20  10 A5 90 00 18 00 00 00... load.l  r20, M14_LDSEG_OFF_PAGES(r18)
00006A28  34 A7 A0 00 0C 00 00 00... lsl     r20, r20, #12
00006A30  20 AE 98 A0 00 00 00 00... add     r21, r19, r20
00006A38  43 06 A8 98 78 05 00 00... blt     r21, r19, .bear_badarg
00006A40  10 B7 F8 00 78 00 00 00... load.q  r22, 120(sp)
00006A48  42 06 B0 00 30 00 00 00... bne r22, r0, .bear_chk_dst
00006A50  10 BF F8 00 68 00 00 00... load.q  r23, 104(sp)
00006A58  43 06 B8 98 20 00 00 00... blt     r23, r19, .bear_chk_dst
00006A60  44 06 B8 A8 18 00 00 00... bge     r23, r21, .bear_chk_dst
00006A68  01 B5 00 00 01 00 00 00... move.l  r22, #1
00006A70  11 B7 F8 00 78 00 00 00... store.q r22, 120(sp)
                         .bear_chk_dst:
00006A78  10 B7 F8 00 70 00 00 00... load.q  r22, 112(sp)
00006A80  42 06 B0 00 A8 00 00 00... bne r22, r0, .bear_next_seg
00006A88  10 BF F8 00 60 00 00 00... load.q  r23, 96(sp)
00006A90  43 06 B8 98 98 00 00 00... blt     r23, r19, .bear_next_seg
00006A98  01 C6 B8 00 00 00 00 00... move.q  r24, r23
00006AA0  20 C7 C0 00 08 00 00 00... add     r24, r24, #8
00006AA8  45 06 C0 A8 80 00 00 00... bgt     r24, r21, .bear_next_seg
00006AB0  10 CD 90 00 1C 00 00 00... load.l  r25, M14_LDSEG_OFF_FLAGS(r18)
00006AB8  30 D7 C8 00 02 00 00 00... and     r26, r25, #2
00006AC0  41 06 D0 00 F0 04 00 00... beq r26, r0, .bear_badarg
00006AC8  30 D7 C8 00 01 00 00 00... and     r26, r25, #1
00006AD0  42 06 D0 00 E0 04 00 00... bne r26, r0, .bear_badarg
00006AD8  10 DE 90 00 00 00 00 00... load.q  r27, M14_LDSEG_OFF_SRCPTR(r18)
00006AE0  10 E7 90 00 08 00 00 00... load.q  r28, M14_LDSEG_OFF_SRCSZ(r18)
00006AE8  21 BE B8 98 00 00 00 00... sub     r23, r23, r19
00006AF0  01 EE B8 00 00 00 00 00... move.q  r29, r23
00006AF8  20 EF E8 00 08 00 00 00... add     r29, r29, #8
00006B00  45 06 E8 E0 B0 04 00 00... bgt     r29, r28, .bear_badarg
00006B08  20 DE D8 B8 00 00 00 00... add     r27, r27, r23
00006B10  11 DF F8 00 48 00 00 00... store.q r27, 72(sp)
00006B18  01 B5 00 00 01 00 00 00... move.l  r22, #1
00006B20  11 B7 F8 00 70 00 00 00... store.q r22, 112(sp)
                         .bear_next_seg:
00006B28  20 87 80 00 01 00 00 00... add     r16, r16, #1
00006B30  40 06 00 00 C8 FE FF FF... bra     .bear_seg_loop
                         .bear_seg_done:
00006B38  10 B7 F8 00 70 00 00 00... load.q  r22, 112(sp)
00006B40  41 06 B0 00 70 04 00 00... beq r22, r0, .bear_badarg
00006B48  10 B7 F8 00 78 00 00 00... load.q  r22, 120(sp)
00006B50  41 06 B0 00 60 04 00 00... beq r22, r0, .bear_badarg
00006B58  10 BF F8 00 48 00 00 00... load.q  r23, 72(sp)
00006B60  10 C7 F8 00 68 00 00 00... load.q  r24, 104(sp)
00006B68  11 C6 B8 00 00 00 00 00... store.q r24, (r23)
00006B70  10 BF F8 00 40 00 00 00... load.q  r23, 64(sp)
00006B78  20 BF B8 00 18 00 00 00... add     r23, r23, #24
00006B80  11 BF F8 00 40 00 00 00... store.q r23, 64(sp)
00006B88  10 DF F8 00 58 00 00 00... load.q  r27, 88(sp)
00006B90  20 DF D8 00 01 00 00 00... add     r27, r27, #1
00006B98  11 DF F8 00 58 00 00 00... store.q r27, 88(sp)
00006BA0  40 06 00 00 60 FD FF FF... bra     .bear_rela_loop
                         .bear_rela_done:
00006BA8  10 5F F8 00 80 00 00 00... load.q  r11, 128(sp)
00006BB0  42 06 58 00 E8 03 00 00... bne r11, r0, .bear_ok
00006BB8  40 06 00 00 08 00 00 00... bra     .bear_next_sh
                         .bear_next_sh:
00006BC0  10 AF F8 00 38 00 00 00... load.q  r21, 56(sp)
00006BC8  20 AF A8 00 01 00 00 00... add     r21, r21, #1
00006BD0  11 AF F8 00 38 00 00 00... store.q r21, 56(sp)
00006BD8  40 06 00 00 10 FC FF FF... bra     .bear_sh_loop
                         .bear_ptnote_relocs:
00006BE0  01 5D 00 00 01 00 00 00... move.l  r11, #1
00006BE8  11 5F F8 00 80 00 00 00... store.q r11, 128(sp)
00006BF0  10 97 08 00 20 00 00 00... load.q  r18, 32(r1)
00006BF8  11 97 F8 00 20 00 00 00... store.q r18, 32(sp)
00006C00  10 9B 08 00 36 00 00 00... load.w  r19, 54(r1)
00006C08  01 5D 00 00 38 00 00 00... move.l  r11, #56
00006C10  42 06 98 58 A0 03 00 00... bne     r19, r11, .bear_badarg
00006C18  11 9F F8 00 28 00 00 00... store.q r19, 40(sp)
00006C20  10 A3 08 00 38 00 00 00... load.w  r20, 56(r1)
00006C28  41 06 A0 00 88 03 00 00... beq r20, r0, .bear_badarg
00006C30  11 A7 F8 00 30 00 00 00... store.q r20, 48(sp)
00006C38  01 AE A0 00 00 00 00 00... move.q  r21, r20
00006C40  22 AE 98 A8 00 00 00 00... mulu    r21, r19, r21
00006C48  20 AE 90 A8 00 00 00 00... add     r21, r18, r21
00006C50  43 06 A8 90 60 03 00 00... blt     r21, r18, .bear_badarg
00006C58  10 B7 F8 00 08 00 00 00... load.q  r22, 8(sp)
00006C60  45 06 A8 B0 50 03 00 00... bgt     r21, r22, .bear_badarg
00006C68  11 07 F8 00 38 00 00 00... store.q r0, 56(sp)
00006C70  11 07 F8 00 40 00 00 00... store.q r0, 64(sp)
                         .bear_ph_loop:
00006C78  10 A7 F8 00 30 00 00 00... load.q  r20, 48(sp)
00006C80  10 AF F8 00 38 00 00 00... load.q  r21, 56(sp)
00006C88  44 06 A8 A0 10 01 00 00... bge     r21, r20, .bear_no_ptnote_rela
00006C90  10 97 F8 00 20 00 00 00... load.q  r18, 32(sp)
00006C98  10 9F F8 00 28 00 00 00... load.q  r19, 40(sp)
00006CA0  01 B6 A8 00 00 00 00 00... move.q  r22, r21
00006CA8  22 B6 98 B0 00 00 00 00... mulu    r22, r19, r22
00006CB0  20 B6 90 B0 00 00 00 00... add     r22, r18, r22
00006CB8  10 0E F8 00 00 00 00 00... load.q  r1, 0(sp)
00006CC0  20 B6 08 B0 00 00 00 00... add     r22, r1, r22
00006CC8  10 5C B0 00 00 00 00 00... load.l  r11, (r22)
00006CD0  01 65 00 00 04 00 00 00... move.l  r12, #4
00006CD8  42 06 58 60 A0 00 00 00... bne     r11, r12, .bear_next_ph
00006CE0  10 BF F8 00 40 00 00 00... load.q  r23, 64(sp)
00006CE8  20 BF B8 00 01 00 00 00... add     r23, r23, #1
00006CF0  11 BF F8 00 40 00 00 00... store.q r23, 64(sp)
00006CF8  01 5D 00 00 01 00 00 00... move.l  r11, #1
00006D00  45 06 B8 58 B0 02 00 00... bgt     r23, r11, .bear_badarg
00006D08  10 BF B0 00 08 00 00 00... load.q  r23, 8(r22)
00006D10  10 C7 B0 00 20 00 00 00... load.q  r24, 32(r22)
00006D18  01 5D 00 00 94 00 00 00... move.l  r11, #148
00006D20  45 06 C0 58 10 00 00 00... bgt     r24, r11, .bear_ptnote_maybe_rela
00006D28  40 06 00 00 70 02 00 00... bra     .bear_ok
                         .bear_ptnote_maybe_rela:
00006D30  20 CE B8 C0 00 00 00 00... add     r25, r23, r24
00006D38  43 06 C8 B8 78 02 00 00... blt     r25, r23, .bear_badarg
00006D40  10 5F F8 00 08 00 00 00... load.q  r11, 8(sp)
00006D48  45 06 C8 58 68 02 00 00... bgt     r25, r11, .bear_badarg
00006D50  10 0E F8 00 00 00 00 00... load.q  r1, 0(sp)
00006D58  20 BE 08 B8 00 00 00 00... add     r23, r1, r23
00006D60  20 CE 08 C8 00 00 00 00... add     r25, r1, r25
00006D68  11 BF F8 00 48 00 00 00... store.q r23, 72(sp)
00006D70  11 CF F8 00 50 00 00 00... store.q r25, 80(sp)
                         .bear_next_ph:
00006D78  10 AF F8 00 38 00 00 00... load.q  r21, 56(sp)
00006D80  20 AF A8 00 01 00 00 00... add     r21, r21, #1
00006D88  11 AF F8 00 38 00 00 00... store.q r21, 56(sp)
00006D90  40 06 00 00 E8 FE FF FF... bra     .bear_ph_loop
                         .bear_no_ptnote_rela:
00006D98  10 BF F8 00 40 00 00 00... load.q  r23, 64(sp)
00006DA0  41 06 B8 00 F8 01 00 00... beq r23, r0, .bear_ok
00006DA8  10 DF F8 00 48 00 00 00... load.q  r27, 72(sp)
00006DB0  10 F7 F8 00 50 00 00 00... load.q  r30, 80(sp)
                         .bear_note_loop:
00006DB8  44 06 D8 F0 E0 01 00 00... bge     r27, r30, .bear_ok
00006DC0  01 6E D8 00 00 00 00 00... move.q  r13, r27
00006DC8  20 6F 68 00 0C 00 00 00... add     r13, r13, #12
00006DD0  45 06 68 F0 C8 01 00 00... bgt     r13, r30, .bear_ok
00006DD8  10 CC D8 00 00 00 00 00... load.l  r25, (r27)
00006DE0  10 C5 D8 00 04 00 00 00... load.l  r24, 4(r27)
00006DE8  01 6E C8 00 00 00 00 00... move.q  r13, r25
00006DF0  20 6F 68 00 03 00 00 00... add     r13, r13, #3
00006DF8  30 6F 68 00 FC FF FF FF... and     r13, r13, #0xFFFFFFFC
00006E00  01 D6 C0 00 00 00 00 00... move.q  r26, r24
00006E08  20 D7 D0 00 03 00 00 00... add     r26, r26, #3
00006E10  30 D7 D0 00 FC FF FF FF... and     r26, r26, #0xFFFFFFFC
00006E18  01 E6 D8 00 00 00 00 00... move.q  r28, r27
00006E20  20 E7 E0 00 0C 00 00 00... add     r28, r28, #12
00006E28  20 E6 E0 68 00 00 00 00... add     r28, r28, r13
00006E30  01 EE E0 00 00 00 00 00... move.q  r29, r28
00006E38  20 EE E8 D0 00 00 00 00... add     r29, r29, r26
00006E40  45 06 E8 F0 58 01 00 00... bgt     r29, r30, .bear_ok
00006E48  01 65 00 00 08 00 00 00... move.l  r12, #8
00006E50  42 06 C8 60 38 01 00 00... bne     r25, r12, .bear_note_next
00006E58  10 5D D8 00 08 00 00 00... load.l  r11, 8(r27)
00006E60  01 65 00 00 31 52 4F 49... move.l  r12, #0x494F5231
00006E68  42 06 58 60 20 01 00 00... bne     r11, r12, .bear_note_next
00006E70  20 77 D8 00 0C 00 00 00... add     r14, r27, #12
00006E78  04 7F 00 00 20 5D 00 00... lea r15, kbvlm_reloc_note_name(r0)
00006E80  50 06 00 00 78 ED FF FF... jsr     kern_boot_validate_string_eq
00006E88  42 06 B8 00 00 01 00 00... bne r23, r0, .bear_note_next
00006E90  01 5D 00 00 20 00 00 00... move.l  r11, #32
00006E98  43 06 C0 58 18 01 00 00... blt     r24, r11, .bear_badarg
00006EA0  10 5C E0 00 00 00 00 00... load.l  r11, (r28)
00006EA8  01 65 00 00 49 4F 53 52... move.l  r12, #0x52534F49
00006EB0  42 06 58 60 00 01 00 00... bne     r11, r12, .bear_badarg
00006EB8  10 5B E0 00 04 00 00 00... load.w  r11, 4(r28)
00006EC0  01 65 00 00 01 00 00 00... move.l  r12, #1
00006EC8  42 06 58 60 E8 00 00 00... bne     r11, r12, .bear_badarg
00006ED0  10 5B E0 00 06 00 00 00... load.w  r11, 6(r28)
00006ED8  01 65 00 00 20 00 00 00... move.l  r12, #32
00006EE0  42 06 58 60 D0 00 00 00... bne     r11, r12, .bear_badarg
00006EE8  10 5B E0 00 08 00 00 00... load.w  r11, 8(r28)
00006EF0  01 65 00 00 18 00 00 00... move.l  r12, #24
00006EF8  42 06 58 60 B8 00 00 00... bne     r11, r12, .bear_badarg
00006F00  10 5B E0 00 0A 00 00 00... load.w  r11, 10(r28)
00006F08  42 06 58 00 A8 00 00 00... bne r11, r0, .bear_badarg
00006F10  10 5F E0 00 10 00 00 00... load.q  r11, 16(r28)
00006F18  42 06 58 00 98 00 00 00... bne r11, r0, .bear_badarg
00006F20  10 5F E0 00 18 00 00 00... load.q  r11, 24(r28)
00006F28  42 06 58 00 88 00 00 00... bne r11, r0, .bear_badarg
00006F30  10 D5 E0 00 0C 00 00 00... load.l  r26, 12(r28)
00006F38  01 5E D0 00 00 00 00 00... move.q  r11, r26
00006F40  22 5E 60 58 00 00 00 00... mulu    r11, r12, r11
00006F48  20 5F 58 00 20 00 00 00... add     r11, r11, #32
00006F50  42 06 58 C0 60 00 00 00... bne     r11, r24, .bear_badarg
00006F58  41 06 D0 00 40 00 00 00... beq r26, r0, .bear_ok
00006F60  20 E7 E0 00 20 00 00 00... add     r28, r28, #32
00006F68  11 E7 F8 00 40 00 00 00... store.q r28, 64(sp)
00006F70  11 D7 F8 00 50 00 00 00... store.q r26, 80(sp)
00006F78  11 07 F8 00 58 00 00 00... store.q r0, 88(sp)
00006F80  40 06 00 00 80 F9 FF FF... bra     .bear_rela_loop
                         .bear_note_next:
00006F88  01 DE E8 00 00 00 00 00... move.q  r27, r29
00006F90  40 06 00 00 28 FE FF FF... bra     .bear_note_loop
                         .bear_ok:
00006F98  01 17 00 00 00 00 00 00... move.q  r2, #ERR_OK
00006FA0  20 FF F8 00 90 00 00 00... add     sp, sp, #144
00006FA8  51 00 00 00 00 00 00 00... rts
                         .bear_badarg:
00006FB0  01 17 00 00 03 00 00 00... move.q  r2, #ERR_BADARG
00006FB8  20 FF F8 00 90 00 00 00... add     sp, sp, #144
00006FC0  51 00 00 00 00 00 00 00... rts
                         load_program:
00006FC8  01 9E 30 00 00 00 00 00... move.q  r19, r6
00006FD0  52 06 38 00 00 00 00 00... push    r7
00006FD8  52 06 40 00 00 00 00 00... push    r8
00006FE0  01 5D 00 00 20 00 00 00... move.l  r11, #IMG_HEADER_SIZE
00006FE8  43 06 40 58 80 05 00 00... blt     r8, r11, .lp_badarg
00006FF0  10 74 38 00 00 00 00 00... load.l  r14, (r7)
00006FF8  01 7D 00 00 49 45 36 34... move.l  r15, #IMG_MAGIC_LO
00007000  42 06 70 78 68 05 00 00... bne     r14, r15, .lp_badarg
00007008  10 75 38 00 04 00 00 00... load.l  r14, 4(r7)
00007010  01 7D 00 00 50 52 4F 47... move.l  r15, #IMG_MAGIC_HI
00007018  42 06 70 78 50 05 00 00... bne     r14, r15, .lp_badarg
00007020  10 A5 38 00 08 00 00 00... load.l  r20, IMG_OFF_CODE_SIZE(r7)
00007028  41 06 A0 00 40 05 00 00... beq r20, r0, .lp_badarg
00007030  30 77 A0 00 07 00 00 00... and     r14, r20, #7
00007038  42 06 70 00 30 05 00 00... bne r14, r0, .lp_badarg
00007040  10 AD 38 00 0C 00 00 00... load.l  r21, IMG_OFF_DATA_SIZE(r7)
00007048  01 75 00 00 20 00 00 00... move.l  r14, #IMG_HEADER_SIZE
00007050  20 76 70 A0 00 00 00 00... add     r14, r14, r20
00007058  20 76 70 A8 00 00 00 00... add     r14, r14, r21
00007060  45 06 70 40 08 05 00 00... bgt     r14, r8, .lp_badarg
00007068  01 D6 A0 00 00 00 00 00... move.q  r26, r20
00007070  20 D7 D0 00 FF 0F 00 00... add     r26, r26, #0xFFF
00007078  35 D7 D0 00 0C 00 00 00... lsr     r26, r26, #12
00007080  01 DD 00 00 01 00 00 00... move.l  r27, #1
00007088  41 06 A8 00 20 00 00 00... beq r21, r0, .lp_skip_data_pages
00007090  01 DE A8 00 00 00 00 00... move.q  r27, r21
00007098  20 DF D8 00 FF 0F 00 00... add     r27, r27, #0xFFF
000070A0  35 DF D8 00 0C 00 00 00... lsr     r27, r27, #12
                         .lp_skip_data_pages:
000070A8  01 B5 00 00 00 00 00 00... move.l  r22, #0
000070B0  01 65 00 00 00 D0 08 00... move.l  r12, #KERN_DATA_BASE
                         .lp_scan:
000070B8  01 5D 00 00 FF 00 00 00... move.l  r11, #MAX_TASKS
000070C0  44 06 B0 58 D8 04 00 00... bge     r22, r11, .lp_nomem_nopub
000070C8  34 7F B0 00 05 00 00 00... lsl     r15, r22, #5
000070D0  20 7F 78 00 40 00 00 00... add     r15, r15, #KD_TASK_BASE
000070D8  20 7E 78 60 00 00 00 00... add     r15, r15, r12
000070E0  10 81 78 00 1C 00 00 00... load.b  r16, KD_TASK_STATE(r15)
000070E8  01 5D 00 00 03 00 00 00... move.l  r11, #TASK_FREE
000070F0  41 06 80 58 18 00 00 00... beq     r16, r11, .lp_slot_found
000070F8  20 B7 B0 00 01 00 00 00... add     r22, r22, #1
00007100  40 06 00 00 B8 FF FF FF... bra     .lp_scan
                         .lp_slot_found:
00007108  01 65 00 00 00 D0 08 00... move.l  r12, #KERN_DATA_BASE
00007110  10 97 60 00 18 05 01 00... load.q  r18, KD_TASKID_NEXT(r12)
00007118  01 76 90 00 00 00 00 00... move.q  r14, r18
00007120  20 77 70 00 01 00 00 00... add     r14, r14, #1
00007128  11 77 60 00 18 05 01 00... store.q r14, KD_TASKID_NEXT(r12)
00007130  34 87 B0 00 02 00 00 00... lsl     r16, r22, #2
00007138  20 87 80 00 18 01 01 00... add     r16, r16, #KD_TASK_PUBID_BASE
00007140  20 86 80 60 00 00 00 00... add     r16, r16, r12
00007148  11 94 80 00 00 00 00 00... store.l r18, (r16)
00007150  01 0E D0 00 00 00 00 00... move.q  r1, r26
00007158  50 06 00 00 B0 B1 FF FF... jsr     alloc_task_image_pages
00007160  42 06 10 00 38 04 00 00... bne r2, r0, .lp_nomem_nopub
00007168  01 BE 08 00 00 00 00 00... move.q  r23, r1
00007170  01 CD 00 00 02 00 00 00... move.l  r25, #(1 + STACK_GUARD_PAGES)
00007178  01 0E C8 00 00 00 00 00... move.q  r1, r25
00007180  50 06 00 00 88 B1 FF FF... jsr     alloc_task_image_pages
00007188  42 06 10 00 90 04 00 00... bne r2, r0, .lp_fail_free_code
00007190  20 CF 08 00 00 10 00 00... add     r25, r1, #MMU_PAGE_SIZE
00007198  01 0E D8 00 00 00 00 00... move.q  r1, r27
000071A0  50 06 00 00 68 B1 FF FF... jsr     alloc_task_image_pages
000071A8  42 06 10 00 50 04 00 00... bne r2, r0, .lp_fail_free_stack
000071B0  01 C6 08 00 00 00 00 00... move.q  r24, r1
000071B8  01 0D 00 00 01 00 00 00... move.l  r1, #1
000071C0  50 06 00 00 48 B1 FF FF... jsr     alloc_task_image_pages
000071C8  42 06 10 00 18 04 00 00... bne r2, r0, .lp_fail_free_data
000071D0  01 E6 08 00 00 00 00 00... move.q  r28, r1
000071D8  50 06 00 00 A8 B5 FF FF... jsr     alloc_task_pt_block
000071E0  42 06 10 00 E8 03 00 00... bne r2, r0, .lp_fail_free_startup
000071E8  01 F6 08 00 00 00 00 00... move.q  r30, r1
000071F0  01 25 00 00 00 00 00 00... move.l  r4, #0
000071F8  34 37 D0 00 0C 00 00 00... lsl     r6, r26, #12
                         .lp_zero_code:
00007200  44 06 20 30 28 00 00 00... bge     r4, r6, .lp_zero_code_done
00007208  20 2E B8 20 00 00 00 00... add     r5, r23, r4
00007210  11 06 28 00 00 00 00 00... store.q r0, (r5)
00007218  20 27 20 00 08 00 00 00... add     r4, r4, #8
00007220  40 06 00 00 E0 FF FF FF... bra     .lp_zero_code
                         .lp_zero_code_done:
00007228  53 46 00 00 00 00 00 00... pop     r8
00007230  53 3E 00 00 00 00 00 00... pop     r7
00007238  52 06 38 00 00 00 00 00... push    r7
00007240  52 06 40 00 00 00 00 00... push    r8
00007248  20 77 38 00 20 00 00 00... add     r14, r7, #IMG_HEADER_SIZE
00007250  01 25 00 00 00 00 00 00... move.l  r4, #0
                         .lp_copy_code:
00007258  44 06 20 A0 38 00 00 00... bge     r4, r20, .lp_copy_code_done
00007260  20 2E 70 20 00 00 00 00... add     r5, r14, r4
00007268  10 36 28 00 00 00 00 00... load.q  r6, (r5)
00007270  20 2E B8 20 00 00 00 00... add     r5, r23, r4
00007278  11 36 28 00 00 00 00 00... store.q r6, (r5)
00007280  20 27 20 00 08 00 00 00... add     r4, r4, #8
00007288  40 06 00 00 D0 FF FF FF... bra     .lp_copy_code
                         .lp_copy_code_done:
00007290  41 06 A8 00 90 00 00 00... beq r21, r0, .lp_skip_data
00007298  01 25 00 00 00 00 00 00... move.l  r4, #0
000072A0  34 37 D8 00 0C 00 00 00... lsl     r6, r27, #12
                         .lp_zero_data:
000072A8  44 06 20 30 28 00 00 00... bge     r4, r6, .lp_zero_data_done
000072B0  20 2E C0 20 00 00 00 00... add     r5, r24, r4
000072B8  11 06 28 00 00 00 00 00... store.q r0, (r5)
000072C0  20 27 20 00 08 00 00 00... add     r4, r4, #8
000072C8  40 06 00 00 E0 FF FF FF... bra     .lp_zero_data
                         .lp_zero_data_done:
000072D0  20 77 38 00 20 00 00 00... add     r14, r7, #IMG_HEADER_SIZE
000072D8  20 76 70 A0 00 00 00 00... add     r14, r14, r20
000072E0  01 25 00 00 00 00 00 00... move.l  r4, #0
                         .lp_copy_data:
000072E8  44 06 20 A8 38 00 00 00... bge     r4, r21, .lp_copy_data_done
000072F0  20 2E 70 20 00 00 00 00... add     r5, r14, r4
000072F8  10 30 28 00 00 00 00 00... load.b  r6, (r5)
00007300  20 2E C0 20 00 00 00 00... add     r5, r24, r4
00007308  11 30 28 00 00 00 00 00... store.b r6, (r5)
00007310  20 27 20 00 01 00 00 00... add     r4, r4, #1
00007318  40 06 00 00 D0 FF FF FF... bra     .lp_copy_data
                         .lp_copy_data_done:
                         .lp_skip_data:
00007320  01 0E F0 00 00 00 00 00... move.q  r1, r30
00007328  01 16 B8 00 00 00 00 00... move.q  r2, r23
00007330  01 1E D0 00 00 00 00 00... move.q  r3, r26
00007338  01 26 C8 00 00 00 00 00... move.q  r4, r25
00007340  01 2D 00 00 01 00 00 00... move.l  r5, #1
00007348  01 36 C0 00 00 00 00 00... move.q  r6, r24
00007350  01 3E D8 00 00 00 00 00... move.q  r7, r27
00007358  01 46 E0 00 00 00 00 00... move.q  r8, r28
00007360  50 06 00 00 E0 B6 FF FF... jsr     build_user_pt_dynamic
00007368  01 0E E0 00 00 00 00 00... move.q  r1, r28
00007370  01 85 00 00 00 D0 08 00... move.l  r16, #KERN_DATA_BASE
00007378  10 17 80 00 18 05 01 00... load.q  r2, KD_TASKID_NEXT(r16)
00007380  21 17 10 00 01 00 00 00... sub     r2, r2, #1
00007388  01 1E 98 00 00 00 00 00... move.q  r3, r19
00007390  01 26 B8 00 00 00 00 00... move.q  r4, r23
00007398  01 2E D0 00 00 00 00 00... move.q  r5, r26
000073A0  01 36 C8 00 00 00 00 00... move.q  r6, r25
000073A8  01 3D 00 00 01 00 00 00... move.l  r7, #1
000073B0  01 46 C0 00 00 00 00 00... move.q  r8, r24
000073B8  01 4E D8 00 00 00 00 00... move.q  r9, r27
000073C0  50 06 00 00 C8 AB FF FF... jsr     write_startup_block
000073C8  01 76 C8 00 00 00 00 00... move.q  r14, r25
000073D0  20 77 70 00 00 10 00 00... add     r14, r14, #MMU_PAGE_SIZE
000073D8  21 77 70 00 10 00 00 00... sub     r14, r14, #16
000073E0  11 E6 70 00 00 00 00 00... store.q r28, (r14)
000073E8  20 77 70 00 08 00 00 00... add     r14, r14, #8
000073F0  11 C6 70 00 00 00 00 00... store.q r24, (r14)
000073F8  01 65 00 00 00 D0 08 00... move.l  r12, #KERN_DATA_BASE
00007400  34 7F B0 00 05 00 00 00... lsl     r15, r22, #5
00007408  20 7F 78 00 40 00 00 00... add     r15, r15, #KD_TASK_BASE
00007410  20 7E 78 60 00 00 00 00... add     r15, r15, r12
00007418  11 BE 78 00 00 00 00 00... store.q r23, KD_TASK_PC(r15)
00007420  01 76 C8 00 00 00 00 00... move.q  r14, r25
00007428  20 77 70 00 00 10 00 00... add     r14, r14, #MMU_PAGE_SIZE
00007430  11 77 78 00 08 00 00 00... store.q r14, KD_TASK_USP(r15)
00007438  01 75 00 00 FF FF 00 00... move.l  r14, #SIG_SYSTEM_MASK
00007440  11 75 78 00 10 00 00 00... store.l r14, KD_TASK_SIG_ALLOC(r15)
00007448  11 05 78 00 14 00 00 00... store.l r0, KD_TASK_SIG_WAIT(r15)
00007450  11 05 78 00 18 00 00 00... store.l r0, KD_TASK_SIG_RECV(r15)
00007458  11 01 78 00 1C 00 00 00... store.b r0, KD_TASK_STATE(r15)
00007460  01 71 00 00 FF 00 00 00... move.b  r14, #WAITPORT_NONE
00007468  11 71 78 00 1D 00 00 00... store.b r14, KD_TASK_WAITPORT(r15)
00007470  11 01 78 00 1E 00 00 00... store.b r0, KD_TASK_GPR_SAVED(r15)
00007478  11 01 78 00 1F 00 00 00... store.b r0, KD_TASK_TEARFLAGS(r15)
00007480  34 87 B0 00 03 00 00 00... lsl     r16, r22, #3
00007488  20 87 80 00 20 20 00 00... add     r16, r16, #KD_PTBR_BASE
00007490  20 86 80 60 00 00 00 00... add     r16, r16, r12
00007498  11 F6 80 00 00 00 00 00... store.q r30, (r16)
000074A0  01 0E B0 00 00 00 00 00... move.q  r1, r22
000074A8  50 06 00 00 A8 AB FF FF... jsr     kern_task_layout_addr
000074B0  11 BE 08 00 00 00 00 00... store.q r23, KD_TASK_CODE_BASE(r1)
000074B8  11 CF 08 00 08 00 00 00... store.q r25, KD_TASK_STACK_BASE(r1)
000074C0  11 C7 08 00 10 00 00 00... store.q r24, KD_TASK_DATA_BASE(r1)
000074C8  11 D5 08 00 18 00 00 00... store.l r26, KD_TASK_CODE_PAGES(r1)
000074D0  01 75 00 00 01 00 00 00... move.l  r14, #1
000074D8  11 75 08 00 1C 00 00 00... store.l r14, KD_TASK_STACK_PAGES(r1)
000074E0  11 DD 08 00 20 00 00 00... store.l r27, KD_TASK_DATA_PAGES(r1)
000074E8  01 75 00 00 03 00 00 00... move.l  r14, #(TASK_LAYOUT_FLAG_STACK_GUARD | TASK_LAYOUT_FLAG_TRUSTED_INTERNAL)
000074F0  11 75 08 00 24 00 00 00... store.l r14, KD_TASK_LAYOUT_FLAGS(r1)
000074F8  11 E7 08 00 28 00 00 00... store.q r28, KD_TASK_LAYOUT_STARTUP(r1)
00007500  11 F7 08 00 30 00 00 00... store.q r30, KD_TASK_LAYOUT_PT_BASE(r1)
00007508  10 77 60 00 10 00 00 00... load.q  r14, KD_NUM_TASKS(r12)
00007510  20 77 70 00 01 00 00 00... add     r14, r14, #1
00007518  11 77 60 00 10 00 00 00... store.q r14, KD_NUM_TASKS(r12)
00007520  01 85 00 00 00 D0 08 00... move.l  r16, #KERN_DATA_BASE
00007528  10 97 80 00 18 05 01 00... load.q  r18, KD_TASKID_NEXT(r16)
00007530  21 97 90 00 01 00 00 00... sub     r18, r18, #1
00007538  53 46 00 00 00 00 00 00... pop     r8
00007540  53 3E 00 00 00 00 00 00... pop     r7
00007548  01 0E 90 00 00 00 00 00... move.q  r1, r18
00007550  01 1E B0 00 00 00 00 00... move.q  r3, r22
00007558  01 15 00 00 00 00 00 00... move.l  r2, #ERR_OK
00007560  51 00 00 00 00 00 00 00... rts
                         .lp_badarg:
00007568  53 46 00 00 00 00 00 00... pop     r8
00007570  53 3E 00 00 00 00 00 00... pop     r7
00007578  01 0E 00 00 00 00 00 00... move.q  r1, r0
00007580  01 1E 00 00 00 00 00 00... move.q  r3, r0
00007588  01 15 00 00 03 00 00 00... move.l  r2, #ERR_BADARG
00007590  51 00 00 00 00 00 00 00... rts
                         .lp_nomem_nopub:
00007598  53 46 00 00 00 00 00 00... pop     r8
000075A0  53 3E 00 00 00 00 00 00... pop     r7
000075A8  01 0E 00 00 00 00 00 00... move.q  r1, r0
000075B0  01 1E 00 00 00 00 00 00... move.q  r3, r0
000075B8  01 15 00 00 01 00 00 00... move.l  r2, #ERR_NOMEM
000075C0  51 00 00 00 00 00 00 00... rts
                         .lp_fail_free_startup:
000075C8  01 0E E0 00 00 00 00 00... move.q  r1, r28
000075D0  01 15 00 00 01 00 00 00... move.l  r2, #1
000075D8  50 06 00 00 C8 B0 FF FF... jsr     free_task_image_pages
                         .lp_fail_free_data:
000075E0  01 0E C0 00 00 00 00 00... move.q  r1, r24
000075E8  01 16 D8 00 00 00 00 00... move.q  r2, r27
000075F0  50 06 00 00 B0 B0 FF FF... jsr     free_task_image_pages
                         .lp_fail_free_stack:
000075F8  01 0E C8 00 00 00 00 00... move.q  r1, r25
00007600  21 0F 08 00 00 10 00 00... sub     r1, r1, #MMU_PAGE_SIZE
00007608  01 15 00 00 02 00 00 00... move.l  r2, #(1 + STACK_GUARD_PAGES)
00007610  50 06 00 00 90 B0 FF FF... jsr     free_task_image_pages
                         .lp_fail_free_code:
00007618  01 0E B8 00 00 00 00 00... move.q  r1, r23
00007620  01 16 D0 00 00 00 00 00... move.q  r2, r26
00007628  50 06 00 00 78 B0 FF FF... jsr     free_task_image_pages
00007630  53 46 00 00 00 00 00 00... pop     r8
00007638  53 3E 00 00 00 00 00 00... pop     r7
00007640  01 0E 00 00 00 00 00 00... move.q  r1, r0
00007648  01 1E 00 00 00 00 00 00... move.q  r3, r0
00007650  01 15 00 00 01 00 00 00... move.l  r2, #ERR_NOMEM
00007658  51 00 00 00 00 00 00 00... rts
                         exec_desc_launch_task:
00007660  21 FF F8 00 D0 00 00 00... sub     sp, sp, #208
00007668  01 C6 08 00 00 00 00 00... move.q  r24, r1
00007670  01 CE 10 00 00 00 00 00... move.q  r25, r2
00007678  01 D6 18 00 00 00 00 00... move.q  r26, r3
00007680  11 27 F8 00 48 00 00 00... store.q r4, 72(sp)
00007688  01 2D 00 00 30 00 00 00... move.l  r5, #0x30
00007690  11 2D F8 00 8C 00 00 00... store.l r5, 140(sp)
00007698  11 07 F8 00 C0 00 00 00... store.q r0, 192(sp)
000076A0  11 07 F8 00 C8 00 00 00... store.q r0, 200(sp)
000076A8  01 2D 00 00 30 00 00 00... move.l  r5, #M14_LDESC_SIZE
000076B0  42 06 C8 28 F0 0D 00 00... bne     r25, r5, .edlt_badarg_descsz
000076B8  20 0F F8 00 90 00 00 00... add     r1, sp, #144
000076C0  01 16 C0 00 00 00 00 00... move.q  r2, r24
000076C8  01 1D 00 00 30 00 00 00... move.l  r3, #M14_LDESC_SIZE
000076D0  01 26 D0 00 00 00 00 00... move.q  r4, r26
000076D8  50 06 00 00 C8 93 00 00... jsr     copy_from_user
000076E0  42 06 08 00 D8 0D 00 00... bne r1, r0, .edlt_badarg_descrange
000076E8  20 3F F8 00 90 00 00 00... add     r7, sp, #144
000076F0  10 2C 38 00 00 00 00 00... load.l  r5, M14_LDESC_OFF_MAGIC(r7)
000076F8  01 35 00 00 4C 44 45 53... move.l  r6, #M14_LDESC_MAGIC
00007700  42 06 28 30 D0 0D 00 00... bne     r5, r6, .edlt_badarg_magic
00007708  10 2D 38 00 04 00 00 00... load.l  r5, M14_LDESC_OFF_VERSION(r7)
00007710  01 35 00 00 01 00 00 00... move.l  r6, #M14_LDESC_VERSION
00007718  42 06 28 30 D0 0D 00 00... bne     r5, r6, .edlt_badarg_version
00007720  10 2D 38 00 08 00 00 00... load.l  r5, M14_LDESC_OFF_SIZE(r7)
00007728  01 35 00 00 30 00 00 00... move.l  r6, #M14_LDESC_SIZE
00007730  42 06 28 30 D0 0D 00 00... bne     r5, r6, .edlt_badarg_size
00007738  10 AD 38 00 0C 00 00 00... load.l  r21, M14_LDESC_OFF_SEGCNT(r7)
00007740  41 06 A8 00 D8 0D 00 00... beq r21, r0, .edlt_badarg_segcnt0
00007748  01 35 00 00 65 00 00 00... move.l  r6, #DOS_SEGLIST_MAX_ENTRIES
00007750  45 06 A8 30 E0 0D 00 00... bgt     r21, r6, .edlt_badarg_segcntmax
00007758  10 B7 38 00 10 00 00 00... load.q  r22, M14_LDESC_OFF_ENTRY(r7)
00007760  41 06 B0 00 E8 0D 00 00... beq r22, r0, .edlt_badarg_entry
00007768  10 BD 38 00 18 00 00 00... load.l  r23, M14_LDESC_OFF_STACKPG(r7)
00007770  41 06 B8 00 F0 0D 00 00... beq r23, r0, .edlt_badarg_stackpg
00007778  11 BF F8 00 40 00 00 00... store.q r23, 64(sp)
00007780  10 A7 38 00 20 00 00 00... load.q  r20, M14_LDESC_OFF_SEGTBL(r7)
00007788  41 06 A0 00 F0 0D 00 00... beq r20, r0, .edlt_badarg_segtbl
00007790  01 2E A8 00 00 00 00 00... move.q  r5, r21
00007798  01 35 00 00 20 00 00 00... move.l  r6, #M14_LDESC_SEG_SIZE
000077A0  22 2E 28 30 00 00 00 00... mulu    r5, r5, r6
000077A8  41 06 28 00 E8 0D 00 00... beq r5, r0, .edlt_badarg_segtblsz
000077B0  01 0E A0 00 00 00 00 00... move.q  r1, r20
000077B8  01 16 28 00 00 00 00 00... move.q  r2, r5
000077C0  01 1E D0 00 00 00 00 00... move.q  r3, r26
000077C8  50 06 00 00 D8 91 00 00... jsr     validate_user_read_range
000077D0  42 06 08 00 D8 0D 00 00... bne r1, r0, .edlt_badarg_segtblrange
000077D8  01 2D 00 00 31 00 00 00... move.l  r5, #0x31
000077E0  11 2D F8 00 8C 00 00 00... store.l r5, 140(sp)
000077E8  01 DE 00 00 00 00 00 00... move.q  r27, r0
000077F0  01 E6 00 00 00 00 00 00... move.q  r28, r0
000077F8  01 EE 00 00 00 00 00 00... move.q  r29, r0
00007800  01 F6 00 00 00 00 00 00... move.q  r30, r0
00007808  01 C6 00 00 00 00 00 00... move.q  r24, r0
00007810  01 96 00 00 00 00 00 00... move.q  r18, r0
00007818  01 9E 00 00 00 00 00 00... move.q  r19, r0
00007820  01 8E 00 00 00 00 00 00... move.q  r17, r0
00007828  01 85 00 00 00 00 00 00... move.l  r16, #0
00007830  01 7D 00 00 00 00 00 00... move.l  r15, #0
00007838  01 75 00 00 00 00 00 00... move.l  r14, #0
                         .edlt_seg_loop:
00007840  44 06 70 A8 30 02 00 00... bge     r14, r21, .edlt_seg_done
00007848  01 2D 00 00 20 00 00 00... move.l  r5, #M14_LDESC_SEG_SIZE
00007850  22 36 70 28 00 00 00 00... mulu    r6, r14, r5
00007858  20 36 30 A0 00 00 00 00... add     r6, r6, r20
00007860  20 0F F8 00 90 00 00 00... add     r1, sp, #144
00007868  01 16 30 00 00 00 00 00... move.q  r2, r6
00007870  01 1D 00 00 20 00 00 00... move.l  r3, #M14_LDESC_SEG_SIZE
00007878  01 26 D0 00 00 00 00 00... move.q  r4, r26
00007880  50 06 00 00 20 92 00 00... jsr     copy_from_user
00007888  42 06 08 00 68 0B 00 00... bne r1, r0, .edlt_badarg
00007890  20 37 F8 00 90 00 00 00... add     r6, sp, #144
00007898  10 3E 30 00 00 00 00 00... load.q  r7, M14_LDSEG_OFF_SRCPTR(r6)
000078A0  10 47 30 00 08 00 00 00... load.q  r8, M14_LDSEG_OFF_SRCSZ(r6)
000078A8  10 4F 30 00 10 00 00 00... load.q  r9, M14_LDSEG_OFF_TARGET(r6)
000078B0  10 55 30 00 18 00 00 00... load.l  r10, M14_LDSEG_OFF_PAGES(r6)
000078B8  10 5D 30 00 1C 00 00 00... load.l  r11, M14_LDSEG_OFF_FLAGS(r6)
000078C0  41 06 50 00 30 0B 00 00... beq r10, r0, .edlt_badarg
000078C8  01 66 50 00 00 00 00 00... move.q  r12, r10
000078D0  34 67 60 00 0C 00 00 00... lsl     r12, r12, #12
000078D8  43 06 60 40 18 0B 00 00... blt     r12, r8, .edlt_badarg
000078E0  01 6D 00 00 FF 0F 00 00... move.l  r13, #0xFFF
000078E8  30 6E 48 68 00 00 00 00... and     r13, r9, r13
000078F0  42 06 68 00 00 0B 00 00... bne r13, r0, .edlt_badarg
000078F8  01 6D 00 00 00 00 60 00... move.l  r13, #USER_IMAGE_BASE
00007900  43 06 48 68 F0 0A 00 00... blt     r9, r13, .edlt_badarg
00007908  20 6E 48 60 00 00 00 00... add     r13, r9, r12
00007910  43 06 68 48 E0 0A 00 00... blt     r13, r9, .edlt_badarg
00007918  01 65 00 00 00 00 80 00... move.l  r12, #USER_IMAGE_END
00007920  45 06 68 60 D0 0A 00 00... bgt     r13, r12, .edlt_badarg
00007928  41 06 40 00 30 00 00 00... beq r8, r0, .edlt_skip_src_validate
00007930  01 0E 38 00 00 00 00 00... move.q  r1, r7
00007938  01 16 40 00 00 00 00 00... move.q  r2, r8
00007940  01 1E D0 00 00 00 00 00... move.q  r3, r26
00007948  50 06 00 00 58 90 00 00... jsr     validate_user_read_range
00007950  42 06 08 00 A0 0A 00 00... bne r1, r0, .edlt_badarg
                         .edlt_skip_src_validate:
00007958  01 6E 58 00 00 00 00 00... move.q  r13, r11
00007960  30 6F 68 00 F8 FF FF FF... and     r13, r13, #0xFFFFFFF8
00007968  42 06 68 00 88 0A 00 00... bne r13, r0, .edlt_badarg
00007970  41 06 58 00 80 0A 00 00... beq r11, r0, .edlt_badarg
00007978  01 6E 58 00 00 00 00 00... move.q  r13, r11
00007980  01 65 00 00 02 00 00 00... move.l  r12, #2
00007988  41 06 68 60 68 0A 00 00... beq     r13, r12, .edlt_badarg
00007990  01 6E 58 00 00 00 00 00... move.q  r13, r11
00007998  30 6F 68 00 03 00 00 00... and     r13, r13, #3
000079A0  01 65 00 00 03 00 00 00... move.l  r12, #3
000079A8  41 06 68 60 48 0A 00 00... beq     r13, r12, .edlt_badarg
000079B0  01 6E 58 00 00 00 00 00... move.q  r13, r11
000079B8  30 6F 68 00 01 00 00 00... and     r13, r13, #1
000079C0  41 06 68 00 68 00 00 00... beq r13, r0, .edlt_data_seg
000079C8  42 06 80 00 28 0A 00 00... bne r16, r0, .edlt_badarg
000079D0  01 85 00 00 01 00 00 00... move.l  r16, #1
000079D8  01 DE 38 00 00 00 00 00... move.q  r27, r7
000079E0  01 E6 40 00 00 00 00 00... move.q  r28, r8
000079E8  01 EE 48 00 00 00 00 00... move.q  r29, r9
000079F0  01 F6 50 00 00 00 00 00... move.q  r30, r10
000079F8  01 6E 58 00 00 00 00 00... move.q  r13, r11
00007A00  30 6F 68 00 04 00 00 00... and     r13, r13, #4
00007A08  42 06 68 00 58 00 00 00... bne r13, r0, .edlt_seg_next
                         .edlt_code_exec_only:
00007A10  01 6D 00 00 01 00 00 00... move.l  r13, #1
00007A18  11 6F F8 00 C0 00 00 00... store.q r13, 192(sp)
00007A20  40 06 00 00 40 00 00 00... bra     .edlt_seg_next
                         .edlt_data_seg:
00007A28  42 06 78 00 C8 09 00 00... bne r15, r0, .edlt_badarg
00007A30  01 7D 00 00 01 00 00 00... move.l  r15, #1
00007A38  01 C6 38 00 00 00 00 00... move.q  r24, r7
00007A40  01 96 40 00 00 00 00 00... move.q  r18, r8
00007A48  01 9E 48 00 00 00 00 00... move.q  r19, r9
00007A50  01 8E 50 00 00 00 00 00... move.q  r17, r10
00007A58  11 5F F8 00 C8 00 00 00... store.q r11, 200(sp)
                         .edlt_seg_next:
00007A60  20 77 70 00 01 00 00 00... add     r14, r14, #1
00007A68  40 06 00 00 D8 FD FF FF... bra     .edlt_seg_loop
                         .edlt_seg_done:
00007A70  41 06 80 00 80 09 00 00... beq r16, r0, .edlt_badarg
00007A78  41 06 78 00 78 09 00 00... beq r15, r0, .edlt_badarg
00007A80  01 2D 00 00 32 00 00 00... move.l  r5, #0x32
00007A88  11 2D F8 00 8C 00 00 00... store.l r5, 140(sp)
00007A90  11 DE F8 00 00 00 00 00... store.q r27, 0(sp)
00007A98  11 E7 F8 00 08 00 00 00... store.q r28, 8(sp)
00007AA0  11 EF F8 00 10 00 00 00... store.q r29, 16(sp)
00007AA8  11 F7 F8 00 18 00 00 00... store.q r30, 24(sp)
00007AB0  11 C7 F8 00 20 00 00 00... store.q r24, 32(sp)
00007AB8  11 97 F8 00 28 00 00 00... store.q r18, 40(sp)
00007AC0  11 9F F8 00 30 00 00 00... store.q r19, 48(sp)
00007AC8  11 8F F8 00 38 00 00 00... store.q r17, 56(sp)
00007AD0  01 2D 00 00 33 00 00 00... move.l  r5, #0x33
00007AD8  11 2D F8 00 8C 00 00 00... store.l r5, 140(sp)
00007AE0  43 06 B0 E8 10 09 00 00... blt     r22, r29, .edlt_badarg
00007AE8  01 6E F0 00 00 00 00 00... move.q  r13, r30
00007AF0  34 6F 68 00 0C 00 00 00... lsl     r13, r13, #12
00007AF8  20 6E 68 E8 00 00 00 00... add     r13, r13, r29
00007B00  01 2D 00 00 34 00 00 00... move.l  r5, #0x34
00007B08  11 2D F8 00 8C 00 00 00... store.l r5, 140(sp)
00007B10  44 06 B0 68 E0 08 00 00... bge     r22, r13, .edlt_badarg
00007B18  01 6E F0 00 00 00 00 00... move.q  r13, r30
00007B20  34 6F 68 00 0C 00 00 00... lsl     r13, r13, #12
00007B28  20 6E 68 E8 00 00 00 00... add     r13, r13, r29
00007B30  01 5E 88 00 00 00 00 00... move.q  r11, r17
00007B38  34 5F 58 00 0C 00 00 00... lsl     r11, r11, #12
00007B40  20 5E 58 98 00 00 00 00... add     r11, r11, r19
00007B48  44 06 68 58 10 00 00 00... bge     r13, r11, .edlt_stack_target_ready
00007B50  01 6E 58 00 00 00 00 00... move.q  r13, r11
                         .edlt_stack_target_ready:
00007B58  10 5F F8 00 40 00 00 00... load.q  r11, 64(sp)
00007B60  34 5F 58 00 0C 00 00 00... lsl     r11, r11, #12
00007B68  20 6F 68 00 00 10 00 00... add     r13, r13, #(STACK_GUARD_PAGES * MMU_PAGE_SIZE)
00007B70  01 2D 00 00 35 00 00 00... move.l  r5, #0x35
00007B78  11 2D F8 00 8C 00 00 00... store.l r5, 140(sp)
00007B80  20 66 68 58 00 00 00 00... add     r12, r13, r11
00007B88  43 06 60 68 68 08 00 00... blt     r12, r13, .edlt_badarg
00007B90  01 5D 00 00 00 00 80 00... move.l  r11, #USER_IMAGE_END
00007B98  01 2D 00 00 36 00 00 00... move.l  r5, #0x36
00007BA0  11 2D F8 00 8C 00 00 00... store.l r5, 140(sp)
00007BA8  45 06 60 58 48 08 00 00... bgt     r12, r11, .edlt_badarg
00007BB0  11 6F F8 00 50 00 00 00... store.q r13, 80(sp)
00007BB8  01 6D 00 00 00 D0 08 00... move.l  r13, #KERN_DATA_BASE
00007BC0  10 AF 68 00 18 05 01 00... load.q  r21, KD_TASKID_NEXT(r13)
00007BC8  11 AF F8 00 80 00 00 00... store.q r21, 128(sp)
00007BD0  01 7E A8 00 00 00 00 00... move.q  r15, r21
00007BD8  20 7F 78 00 01 00 00 00... add     r15, r15, #1
00007BE0  11 7F 68 00 18 05 01 00... store.q r15, KD_TASKID_NEXT(r13)
00007BE8  01 A5 00 00 00 00 00 00... move.l  r20, #0
                         .edlt_scan:
00007BF0  01 5D 00 00 FF 00 00 00... move.l  r11, #MAX_TASKS
00007BF8  44 06 A0 58 C8 09 00 00... bge     r20, r11, .edlt_nomem
00007C00  34 7F A0 00 05 00 00 00... lsl     r15, r20, #5
00007C08  20 7F 78 00 40 00 00 00... add     r15, r15, #KD_TASK_BASE
00007C10  20 7E 78 68 00 00 00 00... add     r15, r15, r13
00007C18  10 81 78 00 1C 00 00 00... load.b  r16, KD_TASK_STATE(r15)
00007C20  01 5D 00 00 03 00 00 00... move.l  r11, #TASK_FREE
00007C28  41 06 80 58 18 00 00 00... beq     r16, r11, .edlt_found
00007C30  20 A7 A0 00 01 00 00 00... add     r20, r20, #1
00007C38  40 06 00 00 B8 FF FF FF... bra     .edlt_scan
                         .edlt_found:
00007C40  11 A7 F8 00 88 00 00 00... store.q r20, 136(sp)
00007C48  10 0F F8 00 18 00 00 00... load.q  r1, 24(sp)
00007C50  50 06 00 00 B8 A6 FF FF... jsr     alloc_task_image_pages
00007C58  42 06 10 00 08 07 00 00... bne r2, r0, .edlt_alloc_fail
00007C60  11 0F F8 00 58 00 00 00... store.q r1, 88(sp)
00007C68  10 0F F8 00 38 00 00 00... load.q  r1, 56(sp)
00007C70  50 06 00 00 98 A6 FF FF... jsr     alloc_task_image_pages
00007C78  42 06 10 00 58 07 00 00... bne r2, r0, .edlt_fail_free_code
00007C80  11 0F F8 00 60 00 00 00... store.q r1, 96(sp)
00007C88  10 0F F8 00 40 00 00 00... load.q  r1, 64(sp)
00007C90  20 0F 08 00 01 00 00 00... add     r1, r1, #STACK_GUARD_PAGES
00007C98  50 06 00 00 70 A6 FF FF... jsr     alloc_task_image_pages
00007CA0  42 06 10 00 18 07 00 00... bne r2, r0, .edlt_fail_free_data
00007CA8  20 0F 08 00 00 10 00 00... add     r1, r1, #MMU_PAGE_SIZE
00007CB0  11 0F F8 00 68 00 00 00... store.q r1, 104(sp)
00007CB8  01 0D 00 00 01 00 00 00... move.l  r1, #1
00007CC0  50 06 00 00 48 A6 FF FF... jsr     alloc_task_image_pages
00007CC8  42 06 10 00 C8 06 00 00... bne r2, r0, .edlt_fail_free_stack
00007CD0  11 0F F8 00 70 00 00 00... store.q r1, 112(sp)
00007CD8  50 06 00 00 A8 AA FF FF... jsr     alloc_task_pt_block
00007CE0  42 06 10 00 98 06 00 00... bne r2, r0, .edlt_fail_free_startup
00007CE8  11 0F F8 00 78 00 00 00... store.q r1, 120(sp)
00007CF0  10 DE F8 00 00 00 00 00... load.q  r27, 0(sp)
00007CF8  10 E7 F8 00 08 00 00 00... load.q  r28, 8(sp)
00007D00  10 EF F8 00 10 00 00 00... load.q  r29, 16(sp)
00007D08  10 F7 F8 00 18 00 00 00... load.q  r30, 24(sp)
00007D10  10 67 F8 00 20 00 00 00... load.q  r12, 32(sp)
00007D18  10 97 F8 00 28 00 00 00... load.q  r18, 40(sp)
00007D20  10 9F F8 00 30 00 00 00... load.q  r19, 48(sp)
00007D28  10 8F F8 00 38 00 00 00... load.q  r17, 56(sp)
00007D30  10 BF F8 00 40 00 00 00... load.q  r23, 64(sp)
00007D38  10 77 F8 00 58 00 00 00... load.q  r14, 88(sp)
00007D40  10 6F F8 00 60 00 00 00... load.q  r13, 96(sp)
00007D48  10 87 F8 00 68 00 00 00... load.q  r16, 104(sp)
00007D50  10 C7 F8 00 70 00 00 00... load.q  r24, 112(sp)
00007D58  10 CF F8 00 78 00 00 00... load.q  r25, 120(sp)
00007D60  10 AF F8 00 80 00 00 00... load.q  r21, 128(sp)
00007D68  10 A7 F8 00 88 00 00 00... load.q  r20, 136(sp)
                         .edlt_copy_code:
00007D70  41 06 E0 00 38 00 00 00... beq r28, r0, .edlt_copy_data
00007D78  01 0E 70 00 00 00 00 00... move.q  r1, r14
00007D80  01 16 D8 00 00 00 00 00... move.q  r2, r27
00007D88  01 1E E0 00 00 00 00 00... move.q  r3, r28
00007D90  E7 20 00 00 00 00 00 00... mfcr    r4, cr0
00007D98  50 06 00 00 08 8D 00 00... jsr     copy_from_user
00007DA0  42 06 08 00 78 06 00 00... bne r1, r0, .edlt_copy_fail_free_all
                         .edlt_copy_data:
00007DA8  41 06 90 00 38 00 00 00... beq r18, r0, .edlt_map
00007DB0  01 0E 68 00 00 00 00 00... move.q  r1, r13
00007DB8  01 16 60 00 00 00 00 00... move.q  r2, r12
00007DC0  01 1E 90 00 00 00 00 00... move.q  r3, r18
00007DC8  E7 20 00 00 00 00 00 00... mfcr    r4, cr0
00007DD0  50 06 00 00 D0 8C 00 00... jsr     copy_from_user
00007DD8  42 06 08 00 40 06 00 00... bne r1, r0, .edlt_copy_fail_free_all
                         .edlt_map:
00007DE0  01 15 00 00 00 D0 07 00... move.l  r2, #KERN_PAGE_TABLE
00007DE8  01 25 00 00 00 00 00 00... move.l  r4, #0
                         .edlt_pt_copy_kern:
00007DF0  01 35 00 00 80 01 00 00... move.l  r6, #KERN_PAGES
00007DF8  44 06 20 30 40 00 00 00... bge     r4, r6, .edlt_pt_copy_pool
00007E00  34 2F 20 00 03 00 00 00... lsl     r5, r4, #3
00007E08  20 46 28 10 00 00 00 00... add     r8, r5, r2
00007E10  10 1E 40 00 00 00 00 00... load.q  r3, (r8)
00007E18  20 4E 28 C8 00 00 00 00... add     r9, r5, r25
00007E20  11 1E 48 00 00 00 00 00... store.q r3, (r9)
00007E28  20 27 20 00 01 00 00 00... add     r4, r4, #1
00007E30  40 06 00 00 C0 FF FF FF... bra     .edlt_pt_copy_kern
                         .edlt_pt_copy_pool:
00007E38  01 25 00 00 00 12 00 00... move.l  r4, #ALLOC_POOL_BASE
00007E40  01 35 00 00 00 0E 00 00... move.l  r6, #ALLOC_POOL_PAGES
00007E48  20 36 30 20 00 00 00 00... add     r6, r6, r4
                         .edlt_pt_copy_pool_loop:
00007E50  44 06 20 30 40 00 00 00... bge     r4, r6, .edlt_pt_copy_user
00007E58  34 2F 20 00 03 00 00 00... lsl     r5, r4, #3
00007E60  20 46 28 10 00 00 00 00... add     r8, r5, r2
00007E68  10 1E 40 00 00 00 00 00... load.q  r3, (r8)
00007E70  20 4E 28 C8 00 00 00 00... add     r9, r5, r25
00007E78  11 1E 48 00 00 00 00 00... store.q r3, (r9)
00007E80  20 27 20 00 01 00 00 00... add     r4, r4, #1
00007E88  40 06 00 00 C8 FF FF FF... bra     .edlt_pt_copy_pool_loop
                         .edlt_pt_copy_user:
00007E90  01 25 00 00 00 06 00 00... move.l  r4, #USER_CODE_VPN_BASE
00007E98  01 35 00 00 00 08 00 00... move.l  r6, #USER_PT_PAGE_BASE
                         .edlt_pt_copy_user_loop:
00007EA0  44 06 20 30 40 00 00 00... bge     r4, r6, .edlt_pt_copy_userpt
00007EA8  34 2F 20 00 03 00 00 00... lsl     r5, r4, #3
00007EB0  20 46 28 10 00 00 00 00... add     r8, r5, r2
00007EB8  10 1E 40 00 00 00 00 00... load.q  r3, (r8)
00007EC0  20 4E 28 C8 00 00 00 00... add     r9, r5, r25
00007EC8  11 1E 48 00 00 00 00 00... store.q r3, (r9)
00007ED0  20 27 20 00 01 00 00 00... add     r4, r4, #1
00007ED8  40 06 00 00 C8 FF FF FF... bra     .edlt_pt_copy_user_loop
                         .edlt_pt_copy_userpt:
00007EE0  01 25 00 00 00 08 00 00... move.l  r4, #USER_PT_PAGE_BASE
00007EE8  01 35 00 00 00 0A 00 00... move.l  r6, #USER_PT_PAGE_END
                         .edlt_pt_copy_userpt_loop:
00007EF0  44 06 20 30 40 00 00 00... bge     r4, r6, .edlt_pt_map_code
00007EF8  34 2F 20 00 03 00 00 00... lsl     r5, r4, #3
00007F00  20 46 28 10 00 00 00 00... add     r8, r5, r2
00007F08  10 1E 40 00 00 00 00 00... load.q  r3, (r8)
00007F10  20 4E 28 C8 00 00 00 00... add     r9, r5, r25
00007F18  11 1E 48 00 00 00 00 00... store.q r3, (r9)
00007F20  20 27 20 00 01 00 00 00... add     r4, r4, #1
00007F28  40 06 00 00 C8 FF FF FF... bra     .edlt_pt_copy_userpt_loop
                         .edlt_pt_map_code:
00007F30  10 67 F8 00 C0 00 00 00... load.q  r12, 192(sp)
00007F38  01 45 00 00 00 00 00 00... move.l  r8, #0
                         .edlt_pt_code_loop:
00007F40  44 06 40 F0 80 00 00 00... bge     r8, r30, .edlt_pt_map_stack
00007F48  35 4F 70 00 0C 00 00 00... lsr     r9, r14, #12
00007F50  20 4E 48 40 00 00 00 00... add     r9, r9, r8
00007F58  34 57 48 00 0D 00 00 00... lsl     r10, r9, #13
00007F60  31 57 50 00 1B 00 00 00... or      r10, r10, #(PTE_P | PTE_R | PTE_X | PTE_U)
00007F68  41 06 60 00 20 00 00 00... beq r12, r0, .edlt_pt_code_store
00007F70  01 35 00 00 02 00 00 00... move.l  r6, #PTE_R
00007F78  33 36 30 00 00 00 00 00... not     r6, r6
00007F80  30 56 50 30 00 00 00 00... and     r10, r10, r6
                         .edlt_pt_code_store:
00007F88  35 5F E8 00 0C 00 00 00... lsr     r11, r29, #12
00007F90  20 5E 58 40 00 00 00 00... add     r11, r11, r8
00007F98  34 5F 58 00 03 00 00 00... lsl     r11, r11, #3
00007FA0  20 5E 58 C8 00 00 00 00... add     r11, r11, r25
00007FA8  11 56 58 00 00 00 00 00... store.q r10, (r11)
00007FB0  20 47 40 00 01 00 00 00... add     r8, r8, #1
00007FB8  40 06 00 00 88 FF FF FF... bra     .edlt_pt_code_loop
                         .edlt_pt_map_stack:
00007FC0  01 45 00 00 00 00 00 00... move.l  r8, #0
                         .edlt_pt_stack_loop:
00007FC8  44 06 40 B8 68 00 00 00... bge     r8, r23, .edlt_pt_map_data
00007FD0  35 4F 80 00 0C 00 00 00... lsr     r9, r16, #12
00007FD8  20 4E 48 40 00 00 00 00... add     r9, r9, r8
00007FE0  34 57 48 00 0D 00 00 00... lsl     r10, r9, #13
00007FE8  31 57 50 00 17 00 00 00... or      r10, r10, #(PTE_P | PTE_R | PTE_W | PTE_U)
00007FF0  10 67 F8 00 50 00 00 00... load.q  r12, 80(sp)
00007FF8  35 5F 60 00 0C 00 00 00... lsr     r11, r12, #12
00008000  20 5E 58 40 00 00 00 00... add     r11, r11, r8
00008008  34 5F 58 00 03 00 00 00... lsl     r11, r11, #3
00008010  20 5E 58 C8 00 00 00 00... add     r11, r11, r25
00008018  11 56 58 00 00 00 00 00... store.q r10, (r11)
00008020  20 47 40 00 01 00 00 00... add     r8, r8, #1
00008028  40 06 00 00 A0 FF FF FF... bra     .edlt_pt_stack_loop
                         .edlt_pt_map_data:
00008030  10 67 F8 00 50 00 00 00... load.q  r12, 80(sp)
00008038  35 5F 60 00 0C 00 00 00... lsr     r11, r12, #12
00008040  21 5F 58 00 01 00 00 00... sub     r11, r11, #STACK_GUARD_PAGES
00008048  34 5F 58 00 03 00 00 00... lsl     r11, r11, #3
00008050  20 5E 58 C8 00 00 00 00... add     r11, r11, r25
00008058  11 06 58 00 00 00 00 00... store.q r0, (r11)
00008060  01 45 00 00 00 00 00 00... move.l  r8, #0
                         .edlt_pt_data_loop:
00008068  44 06 40 88 A8 00 00 00... bge     r8, r17, .edlt_pt_map_startup
00008070  35 4F 68 00 0C 00 00 00... lsr     r9, r13, #12
00008078  20 4E 48 40 00 00 00 00... add     r9, r9, r8
00008080  34 57 48 00 0D 00 00 00... lsl     r10, r9, #13
00008088  31 57 50 00 11 00 00 00... or      r10, r10, #(PTE_P | PTE_U)
00008090  10 67 F8 00 C8 00 00 00... load.q  r12, 200(sp)
00008098  01 36 60 00 00 00 00 00... move.q  r6, r12
000080A0  30 37 30 00 04 00 00 00... and     r6, r6, #4
000080A8  41 06 30 00 10 00 00 00... beq r6, r0, .edlt_pt_data_no_read
000080B0  31 57 50 00 02 00 00 00... or      r10, r10, #PTE_R
                         .edlt_pt_data_no_read:
000080B8  01 36 60 00 00 00 00 00... move.q  r6, r12
000080C0  30 37 30 00 02 00 00 00... and     r6, r6, #2
000080C8  41 06 30 00 10 00 00 00... beq r6, r0, .edlt_pt_data_store
000080D0  31 57 50 00 04 00 00 00... or      r10, r10, #PTE_W
                         .edlt_pt_data_store:
000080D8  35 5F 98 00 0C 00 00 00... lsr     r11, r19, #12
000080E0  20 5E 58 40 00 00 00 00... add     r11, r11, r8
000080E8  34 5F 58 00 03 00 00 00... lsl     r11, r11, #3
000080F0  20 5E 58 C8 00 00 00 00... add     r11, r11, r25
000080F8  11 56 58 00 00 00 00 00... store.q r10, (r11)
00008100  20 47 40 00 01 00 00 00... add     r8, r8, #1
00008108  40 06 00 00 60 FF FF FF... bra     .edlt_pt_data_loop
                         .edlt_pt_map_startup:
00008110  35 4F C0 00 0C 00 00 00... lsr     r9, r24, #12
00008118  34 57 48 00 0D 00 00 00... lsl     r10, r9, #13
00008120  31 57 50 00 13 00 00 00... or      r10, r10, #(PTE_P | PTE_R | PTE_U)
00008128  34 5F 48 00 03 00 00 00... lsl     r11, r9, #3
00008130  20 5E 58 C8 00 00 00 00... add     r11, r11, r25
00008138  11 56 58 00 00 00 00 00... store.q r10, (r11)
00008140  01 0E C0 00 00 00 00 00... move.q  r1, r24
00008148  01 16 A8 00 00 00 00 00... move.q  r2, r21
00008150  10 1F F8 00 48 00 00 00... load.q  r3, 72(sp)
00008158  01 26 E8 00 00 00 00 00... move.q  r4, r29
00008160  01 2E F0 00 00 00 00 00... move.q  r5, r30
00008168  10 37 F8 00 50 00 00 00... load.q  r6, 80(sp)
00008170  01 3E B8 00 00 00 00 00... move.q  r7, r23
00008178  01 46 98 00 00 00 00 00... move.q  r8, r19
00008180  01 4E 88 00 00 00 00 00... move.q  r9, r17
00008188  50 06 00 00 00 9E FF FF... jsr     write_startup_block
00008190  01 96 68 00 00 00 00 00... move.q  r18, r13
00008198  01 7E B8 00 00 00 00 00... move.q  r15, r23
000081A0  34 7F 78 00 0C 00 00 00... lsl     r15, r15, #12
000081A8  20 7E 78 80 00 00 00 00... add     r15, r15, r16
000081B0  21 7F 78 00 10 00 00 00... sub     r15, r15, #16
000081B8  11 C6 78 00 00 00 00 00... store.q r24, (r15)
000081C0  20 7F 78 00 08 00 00 00... add     r15, r15, #8
000081C8  11 9E 78 00 00 00 00 00... store.q r19, (r15)
000081D0  01 6D 00 00 00 D0 08 00... move.l  r13, #KERN_DATA_BASE
000081D8  34 7F A0 00 05 00 00 00... lsl     r15, r20, #5
000081E0  20 7F 78 00 40 00 00 00... add     r15, r15, #KD_TASK_BASE
000081E8  20 7E 78 68 00 00 00 00... add     r15, r15, r13
000081F0  11 B6 78 00 00 00 00 00... store.q r22, KD_TASK_PC(r15)
000081F8  10 5F F8 00 50 00 00 00... load.q  r11, 80(sp)
00008200  01 66 B8 00 00 00 00 00... move.q  r12, r23
00008208  34 67 60 00 0C 00 00 00... lsl     r12, r12, #12
00008210  20 5E 58 60 00 00 00 00... add     r11, r11, r12
00008218  11 5F 78 00 08 00 00 00... store.q r11, KD_TASK_USP(r15)
00008220  01 5D 00 00 FF FF 00 00... move.l  r11, #SIG_SYSTEM_MASK
00008228  11 5D 78 00 10 00 00 00... store.l r11, KD_TASK_SIG_ALLOC(r15)
00008230  11 05 78 00 14 00 00 00... store.l r0, KD_TASK_SIG_WAIT(r15)
00008238  11 05 78 00 18 00 00 00... store.l r0, KD_TASK_SIG_RECV(r15)
00008240  11 01 78 00 1C 00 00 00... store.b r0, KD_TASK_STATE(r15)
00008248  01 59 00 00 FF 00 00 00... move.b  r11, #WAITPORT_NONE
00008250  11 59 78 00 1D 00 00 00... store.b r11, KD_TASK_WAITPORT(r15)
00008258  11 01 78 00 1E 00 00 00... store.b r0, KD_TASK_GPR_SAVED(r15)
00008260  11 01 78 00 1F 00 00 00... store.b r0, KD_TASK_TEARFLAGS(r15)
00008268  34 5F A0 00 03 00 00 00... lsl     r11, r20, #3
00008270  20 5F 58 00 20 20 00 00... add     r11, r11, #KD_PTBR_BASE
00008278  20 5E 58 68 00 00 00 00... add     r11, r11, r13
00008280  11 CE 58 00 00 00 00 00... store.q r25, (r11)
00008288  01 0E A0 00 00 00 00 00... move.q  r1, r20
00008290  50 06 00 00 C0 9D FF FF... jsr     kern_task_layout_addr
00008298  11 76 08 00 00 00 00 00... store.q r14, KD_TASK_CODE_BASE(r1)
000082A0  11 87 08 00 08 00 00 00... store.q r16, KD_TASK_STACK_BASE(r1)
000082A8  11 97 08 00 10 00 00 00... store.q r18, KD_TASK_DATA_BASE(r1)
000082B0  11 F5 08 00 18 00 00 00... store.l r30, KD_TASK_CODE_PAGES(r1)
000082B8  11 BD 08 00 1C 00 00 00... store.l r23, KD_TASK_STACK_PAGES(r1)
000082C0  11 8D 08 00 20 00 00 00... store.l r17, KD_TASK_DATA_PAGES(r1)
000082C8  01 5D 00 00 01 00 00 00... move.l  r11, #TASK_LAYOUT_FLAG_STACK_GUARD
000082D0  10 67 F8 00 48 00 00 00... load.q  r12, 72(sp)
000082D8  30 67 60 00 08 00 00 00... and     r12, r12, #TASK_STARTUP_FLAG_TRUSTED_INTERNAL
000082E0  41 06 60 00 10 00 00 00... beq r12, r0, .edlt_flags_ready
000082E8  31 5F 58 00 02 00 00 00... or      r11, r11, #TASK_LAYOUT_FLAG_TRUSTED_INTERNAL
                         .edlt_flags_ready:
000082F0  11 5D 08 00 24 00 00 00... store.l r11, KD_TASK_LAYOUT_FLAGS(r1)
000082F8  11 C7 08 00 28 00 00 00... store.q r24, KD_TASK_LAYOUT_STARTUP(r1)
00008300  11 CF 08 00 30 00 00 00... store.q r25, KD_TASK_LAYOUT_PT_BASE(r1)
00008308  01 0E A0 00 00 00 00 00... move.q  r1, r20
00008310  50 06 00 00 70 9D FF FF... jsr     kern_task_pubid_addr
00008318  11 AC 08 00 00 00 00 00... store.l r21, (r1)
00008320  10 87 68 00 10 00 00 00... load.q  r16, KD_NUM_TASKS(r13)
00008328  20 87 80 00 01 00 00 00... add     r16, r16, #1
00008330  11 87 68 00 10 00 00 00... store.q r16, KD_NUM_TASKS(r13)
00008338  01 0E A8 00 00 00 00 00... move.q  r1, r21
00008340  01 16 A0 00 00 00 00 00... move.q  r2, r20
00008348  01 1F 00 00 00 00 00 00... move.q  r3, #ERR_OK
00008350  20 FF F8 00 D0 00 00 00... add     sp, sp, #208
00008358  51 00 00 00 00 00 00 00... rts
                         .edlt_alloc_fail:
00008360  01 5D 00 00 03 00 00 00... move.l  r11, #ERR_BADARG
00008368  41 06 10 58 88 00 00 00... beq     r2, r11, .edlt_badarg
00008370  40 06 00 00 50 02 00 00... bra     .edlt_nomem
                         .edlt_fail_free_startup:
00008378  10 0F F8 00 70 00 00 00... load.q  r1, 112(sp)
00008380  01 15 00 00 01 00 00 00... move.l  r2, #1
00008388  50 06 00 00 18 A3 FF FF... jsr     free_task_image_pages
                         .edlt_fail_free_stack:
00008390  10 0F F8 00 68 00 00 00... load.q  r1, 104(sp)
00008398  21 0F 08 00 00 10 00 00... sub     r1, r1, #MMU_PAGE_SIZE
000083A0  10 17 F8 00 40 00 00 00... load.q  r2, 64(sp)
000083A8  20 17 10 00 01 00 00 00... add     r2, r2, #STACK_GUARD_PAGES
000083B0  50 06 00 00 F0 A2 FF FF... jsr     free_task_image_pages
                         .edlt_fail_free_data:
000083B8  10 0F F8 00 60 00 00 00... load.q  r1, 96(sp)
000083C0  10 17 F8 00 38 00 00 00... load.q  r2, 56(sp)
000083C8  50 06 00 00 D8 A2 FF FF... jsr     free_task_image_pages
                         .edlt_fail_free_code:
000083D0  10 0F F8 00 58 00 00 00... load.q  r1, 88(sp)
000083D8  10 17 F8 00 18 00 00 00... load.q  r2, 24(sp)
000083E0  50 06 00 00 C0 A2 FF FF... jsr     free_task_image_pages
000083E8  40 06 00 00 D8 01 00 00... bra     .edlt_nomem
                         .edlt_badarg:
000083F0  01 0E 00 00 00 00 00 00... move.q  r1, r0
000083F8  01 16 00 00 00 00 00 00... move.q  r2, r0
00008400  01 1D 00 00 03 00 00 00... move.l  r3, #ERR_BADARG
00008408  20 FF F8 00 D0 00 00 00... add     sp, sp, #208
00008410  51 00 00 00 00 00 00 00... rts
                         .edlt_copy_fail_free_all:
00008418  10 0F F8 00 78 00 00 00... load.q  r1, 120(sp)
00008420  50 06 00 00 38 A5 FF FF... jsr     free_task_pt_block
00008428  10 0F F8 00 70 00 00 00... load.q  r1, 112(sp)
00008430  01 15 00 00 01 00 00 00... move.l  r2, #1
00008438  50 06 00 00 68 A2 FF FF... jsr     free_task_image_pages
00008440  10 0F F8 00 68 00 00 00... load.q  r1, 104(sp)
00008448  21 0F 08 00 00 10 00 00... sub     r1, r1, #MMU_PAGE_SIZE
00008450  10 17 F8 00 40 00 00 00... load.q  r2, 64(sp)
00008458  20 17 10 00 01 00 00 00... add     r2, r2, #STACK_GUARD_PAGES
00008460  50 06 00 00 40 A2 FF FF... jsr     free_task_image_pages
00008468  10 0F F8 00 60 00 00 00... load.q  r1, 96(sp)
00008470  10 17 F8 00 38 00 00 00... load.q  r2, 56(sp)
00008478  50 06 00 00 28 A2 FF FF... jsr     free_task_image_pages
00008480  10 0F F8 00 58 00 00 00... load.q  r1, 88(sp)
00008488  10 17 F8 00 18 00 00 00... load.q  r2, 24(sp)
00008490  50 06 00 00 10 A2 FF FF... jsr     free_task_image_pages
00008498  40 06 00 00 58 FF FF FF... bra     .edlt_badarg
                         .edlt_badarg_descsz:
000084A0  01 2D 00 00 44 00 00 00... move.l  r5, #0x44
000084A8  11 2D F8 00 8C 00 00 00... store.l r5, 140(sp)
000084B0  40 06 00 00 40 FF FF FF... bra     .edlt_badarg
                         .edlt_badarg_descrange:
000084B8  01 2D 00 00 52 00 00 00... move.l  r5, #0x52
000084C0  11 2D F8 00 8C 00 00 00... store.l r5, 140(sp)
000084C8  40 06 00 00 28 FF FF FF... bra     .edlt_badarg
                         .edlt_badarg_magic:
000084D0  01 2D 00 00 4D 00 00 00... move.l  r5, #0x4D
000084D8  11 2D F8 00 8C 00 00 00... store.l r5, 140(sp)
000084E0  40 06 00 00 10 FF FF FF... bra     .edlt_badarg
                         .edlt_badarg_version:
000084E8  01 2D 00 00 56 00 00 00... move.l  r5, #0x56
000084F0  11 2D F8 00 8C 00 00 00... store.l r5, 140(sp)
000084F8  40 06 00 00 F8 FE FF FF... bra     .edlt_badarg
                         .edlt_badarg_size:
00008500  01 2D 00 00 53 00 00 00... move.l  r5, #0x53
00008508  11 2D F8 00 8C 00 00 00... store.l r5, 140(sp)
00008510  40 06 00 00 E0 FE FF FF... bra     .edlt_badarg
                         .edlt_badarg_segcnt0:
00008518  01 2D 00 00 43 00 00 00... move.l  r5, #0x43
00008520  11 2D F8 00 8C 00 00 00... store.l r5, 140(sp)
00008528  40 06 00 00 C8 FE FF FF... bra     .edlt_badarg
                         .edlt_badarg_segcntmax:
00008530  01 2D 00 00 63 00 00 00... move.l  r5, #0x63
00008538  11 2D F8 00 8C 00 00 00... store.l r5, 140(sp)
00008540  40 06 00 00 B0 FE FF FF... bra     .edlt_badarg
                         .edlt_badarg_entry:
00008548  01 2D 00 00 45 00 00 00... move.l  r5, #0x45
00008550  11 2D F8 00 8C 00 00 00... store.l r5, 140(sp)
00008558  40 06 00 00 98 FE FF FF... bra     .edlt_badarg
                         .edlt_badarg_stackpg:
00008560  01 2D 00 00 4B 00 00 00... move.l  r5, #0x4B
00008568  11 2D F8 00 8C 00 00 00... store.l r5, 140(sp)
00008570  40 06 00 00 80 FE FF FF... bra     .edlt_badarg
                         .edlt_badarg_segtbl:
00008578  01 2D 00 00 54 00 00 00... move.l  r5, #0x54
00008580  11 2D F8 00 8C 00 00 00... store.l r5, 140(sp)
00008588  40 06 00 00 68 FE FF FF... bra     .edlt_badarg
                         .edlt_badarg_segtblsz:
00008590  01 2D 00 00 5A 00 00 00... move.l  r5, #0x5A
00008598  11 2D F8 00 8C 00 00 00... store.l r5, 140(sp)
000085A0  40 06 00 00 50 FE FF FF... bra     .edlt_badarg
                         .edlt_badarg_segtblrange:
000085A8  01 2D 00 00 55 00 00 00... move.l  r5, #0x55
000085B0  11 2D F8 00 8C 00 00 00... store.l r5, 140(sp)
000085B8  40 06 00 00 38 FE FF FF... bra     .edlt_badarg
                         .edlt_nomem:
000085C0  01 0E 00 00 00 00 00 00... move.q  r1, r0
000085C8  01 16 00 00 00 00 00 00... move.q  r2, r0
000085D0  01 1D 00 00 01 00 00 00... move.l  r3, #ERR_NOMEM
000085D8  20 FF F8 00 D0 00 00 00... add     sp, sp, #208
000085E0  51 00 00 00 00 00 00 00... rts
                         alloc_pages:
000085E8  01 1D 00 00 00 D0 08 00... move.l  r3, #KERN_DATA_BASE
000085F0  20 1F 18 00 18 3D 00 00... add     r3, r3, #KD_PAGE_BITMAP
000085F8  01 25 00 00 00 00 00 00... move.l  r4, #0
00008600  01 2D 00 00 00 0E 00 00... move.l  r5, #ALLOC_POOL_PAGES
                         .ap_scan:
00008608  44 06 20 28 20 01 00 00... bge     r4, r5, .ap_fail
00008610  01 36 20 00 00 00 00 00... move.q  r6, r4
00008618  01 3E 20 00 00 00 00 00... move.q  r7, r4
00008620  20 46 20 08 00 00 00 00... add     r8, r4, r1
00008628  45 06 40 28 00 01 00 00... bgt     r8, r5, .ap_fail
                         .ap_check_bit:
00008630  44 06 38 40 60 00 00 00... bge     r7, r8, .ap_found
00008638  35 4F 38 00 03 00 00 00... lsr     r9, r7, #3
00008640  20 4E 48 18 00 00 00 00... add     r9, r9, r3
00008648  10 48 48 00 00 00 00 00... load.b  r9, (r9)
00008650  30 17 38 00 07 00 00 00... and     r2, r7, #7
00008658  35 4E 48 10 00 00 00 00... lsr     r9, r9, r2
00008660  30 4F 48 00 01 00 00 00... and     r9, r9, #1
00008668  42 06 48 00 18 00 00 00... bne r9, r0, .ap_skip
00008670  20 3F 38 00 01 00 00 00... add     r7, r7, #1
00008678  40 06 00 00 B8 FF FF FF... bra     .ap_check_bit
                         .ap_skip:
00008680  20 27 38 00 01 00 00 00... add     r4, r7, #1
00008688  40 06 00 00 80 FF FF FF... bra     .ap_scan
                         .ap_found:
00008690  01 26 30 00 00 00 00 00... move.q  r4, r6
00008698  20 46 30 08 00 00 00 00... add     r8, r6, r1
                         .ap_mark:
000086A0  44 06 20 40 60 00 00 00... bge     r4, r8, .ap_done
000086A8  35 4F 20 00 03 00 00 00... lsr     r9, r4, #3
000086B0  20 3E 48 18 00 00 00 00... add     r7, r9, r3
000086B8  10 48 38 00 00 00 00 00... load.b  r9, (r7)
000086C0  30 17 20 00 07 00 00 00... and     r2, r4, #7
000086C8  01 35 00 00 01 00 00 00... move.l  r6, #1
000086D0  34 36 30 10 00 00 00 00... lsl     r6, r6, r2
000086D8  31 4E 48 30 00 00 00 00... or      r9, r9, r6
000086E0  11 48 38 00 00 00 00 00... store.b r9, (r7)
000086E8  20 27 20 00 01 00 00 00... add     r4, r4, #1
000086F0  21 36 40 08 00 00 00 00... sub     r6, r8, r1
000086F8  40 06 00 00 A8 FF FF FF... bra     .ap_mark
                         .ap_done:
00008700  21 36 40 08 00 00 00 00... sub     r6, r8, r1
00008708  01 0D 00 00 00 12 00 00... move.l  r1, #ALLOC_POOL_BASE
00008710  20 0E 08 30 00 00 00 00... add     r1, r1, r6
00008718  01 17 00 00 00 00 00 00... move.q  r2, #ERR_OK
00008720  51 00 00 00 00 00 00 00... rts
                         .ap_fail:
00008728  01 0F 00 00 00 00 00 00... move.q  r1, #0
00008730  01 17 00 00 01 00 00 00... move.q  r2, #ERR_NOMEM
00008738  51 00 00 00 00 00 00 00... rts
                         free_pages:
00008740  01 46 08 00 00 00 00 00... move.q  r8, r1
00008748  01 4E 10 00 00 00 00 00... move.q  r9, r2
00008750  01 1D 00 00 00 00 00 00... move.l  r3, #0
                         .fp_scrub_page:
00008758  44 06 18 48 58 00 00 00... bge     r3, r9, .fp_scrub_done
00008760  20 26 40 18 00 00 00 00... add     r4, r8, r3
00008768  34 27 20 00 0C 00 00 00... lsl     r4, r4, #12
00008770  01 2E 20 00 00 00 00 00... move.q  r5, r4
00008778  20 37 20 00 00 10 00 00... add     r6, r4, #MMU_PAGE_SIZE
                         .fp_scrub_qword:
00008780  44 06 28 30 20 00 00 00... bge     r5, r6, .fp_scrub_next_page
00008788  11 06 28 00 00 00 00 00... store.q r0, (r5)
00008790  20 2F 28 00 08 00 00 00... add     r5, r5, #8
00008798  40 06 00 00 E8 FF FF FF... bra     .fp_scrub_qword
                         .fp_scrub_next_page:
000087A0  20 1F 18 00 01 00 00 00... add     r3, r3, #1
000087A8  40 06 00 00 B0 FF FF FF... bra     .fp_scrub_page
                         .fp_scrub_done:
000087B0  01 1D 00 00 00 D0 08 00... move.l  r3, #KERN_DATA_BASE
000087B8  20 1F 18 00 18 3D 00 00... add     r3, r3, #KD_PAGE_BITMAP
000087C0  01 25 00 00 00 12 00 00... move.l  r4, #ALLOC_POOL_BASE
000087C8  21 26 40 20 00 00 00 00... sub     r4, r8, r4
000087D0  20 2E 20 48 00 00 00 00... add     r5, r4, r9
                         .fp_loop:
000087D8  44 06 20 28 68 00 00 00... bge     r4, r5, .fp_done
000087E0  35 37 20 00 03 00 00 00... lsr     r6, r4, #3
000087E8  20 3E 30 18 00 00 00 00... add     r7, r6, r3
000087F0  10 30 38 00 00 00 00 00... load.b  r6, (r7)
000087F8  30 17 20 00 07 00 00 00... and     r2, r4, #7
00008800  01 0D 00 00 01 00 00 00... move.l  r1, #1
00008808  34 0E 08 10 00 00 00 00... lsl     r1, r1, r2
00008810  01 15 00 00 FF 00 00 00... move.l  r2, #0xFF
00008818  21 16 10 08 00 00 00 00... sub     r2, r2, r1
00008820  30 36 30 10 00 00 00 00... and     r6, r6, r2
00008828  11 30 38 00 00 00 00 00... store.b r6, (r7)
00008830  20 27 20 00 01 00 00 00... add     r4, r4, #1
00008838  40 06 00 00 A0 FF FF FF... bra     .fp_loop
                         .fp_done:
00008840  51 00 00 00 00 00 00 00... rts
                         count_free_pages:
00008848  01 15 00 00 00 D0 08 00... move.l  r2, #KERN_DATA_BASE
00008850  20 17 10 00 18 3D 00 00... add     r2, r2, #KD_PAGE_BITMAP
00008858  01 1D 00 00 00 0E 00 00... move.l  r3, #ALLOC_POOL_PAGES
00008860  01 0F 00 00 00 00 00 00... move.q  r1, #0
00008868  01 25 00 00 00 00 00 00... move.l  r4, #0
                         .cfp_bit_loop:
00008870  44 06 20 18 58 00 00 00... bge     r4, r3, .cfp_done
00008878  35 2F 20 00 03 00 00 00... lsr     r5, r4, #3
00008880  20 2E 28 10 00 00 00 00... add     r5, r5, r2
00008888  10 28 28 00 00 00 00 00... load.b  r5, (r5)
00008890  30 37 20 00 07 00 00 00... and     r6, r4, #7
00008898  35 2E 28 30 00 00 00 00... lsr     r5, r5, r6
000088A0  30 2F 28 00 01 00 00 00... and     r5, r5, #1
000088A8  42 06 28 00 10 00 00 00... bne r5, r0, .cfp_skip
000088B0  20 0F 08 00 01 00 00 00... add     r1, r1, #1
                         .cfp_skip:
000088B8  20 27 20 00 01 00 00 00... add     r4, r4, #1
000088C0  40 06 00 00 B0 FF FF FF... bra     .cfp_bit_loop
                         .cfp_done:
000088C8  51 00 00 00 00 00 00 00... rts
                         kern_grant_chain_alloc_page:
000088D0  E7 E0 00 00 00 00 00 00... mfcr    r28, cr0
000088D8  01 1D 00 00 00 D0 07 00... move.l  r3, #KERN_PAGE_TABLE
000088E0  E6 00 18 00 00 00 00 00... mtcr    cr0, r3
000088E8  E9 00 00 00 00 00 00 00... tlbflush
000088F0  01 0D 00 00 01 00 00 00... move.l  r1, #1
000088F8  50 06 00 00 F0 FC FF FF... jsr     alloc_pages
00008900  42 06 10 00 40 01 00 00... bne r2, r0, .gcap_fail
00008908  01 EE 08 00 00 00 00 00... move.q  r29, r1
00008910  34 1F 08 00 0C 00 00 00... lsl     r3, r1, #12
00008918  01 26 18 00 00 00 00 00... move.q  r4, r3
00008920  01 2D 00 00 00 10 00 00... move.l  r5, #4096
00008928  20 2E 28 18 00 00 00 00... add     r5, r5, r3
                         .gcap_zero:
00008930  44 06 20 28 20 00 00 00... bge     r4, r5, .gcap_zero_done
00008938  11 06 20 00 00 00 00 00... store.q r0, (r4)
00008940  20 27 20 00 08 00 00 00... add     r4, r4, #8
00008948  40 06 00 00 E8 FF FF FF... bra     .gcap_zero
                         .gcap_zero_done:
00008950  01 25 00 00 10 00 00 00... move.l  r4, #KD_GRANT_PAGE_HDR_SZ
00008958  20 26 20 18 00 00 00 00... add     r4, r4, r3
00008960  01 2D 00 00 00 00 00 00... move.l  r5, #0
00008968  01 35 00 00 FF FF FF FF... move.l  r6, #GRANT_TASK_FREE
                         .gcap_mark:
00008970  01 3D 00 00 FF 00 00 00... move.l  r7, #KD_GRANT_ROWS_PER_PG
00008978  44 06 28 38 28 00 00 00... bge     r5, r7, .gcap_mark_done
00008980  11 34 20 00 00 00 00 00... store.l r6, KD_GRANT_TASK_ID(r4)
00008988  20 27 20 00 10 00 00 00... add     r4, r4, #KD_GRANT_ROW_SIZE
00008990  20 2F 28 00 01 00 00 00... add     r5, r5, #1
00008998  40 06 00 00 D8 FF FF FF... bra     .gcap_mark
                         .gcap_mark_done:
000089A0  01 1D 00 00 00 D0 08 00... move.l  r3, #KERN_DATA_BASE
000089A8  20 1F 18 00 C0 C0 00 00... add     r3, r3, #KD_GRANT_TABLE_HDR
000089B0  10 22 18 00 00 00 00 00... load.w  r4, KD_GRANT_HDR_FIRST_PPN(r3)
000089B8  42 06 20 00 18 00 00 00... bne r4, r0, .gcap_walk_tail
000089C0  11 EA 18 00 00 00 00 00... store.w r29, KD_GRANT_HDR_FIRST_PPN(r3)
000089C8  40 06 00 00 38 00 00 00... bra     .gcap_link_done
                         .gcap_walk_tail:
                         .gcap_walk_loop:
000089D0  34 2F 20 00 0C 00 00 00... lsl     r5, r4, #12
000089D8  10 32 28 00 00 00 00 00... load.w  r6, KD_GRANT_PAGE_NEXT(r5)
000089E0  41 06 30 00 18 00 00 00... beq r6, r0, .gcap_at_tail
000089E8  01 26 30 00 00 00 00 00... move.q  r4, r6
000089F0  40 06 00 00 E0 FF FF FF... bra     .gcap_walk_loop
                         .gcap_at_tail:
000089F8  11 EA 28 00 00 00 00 00... store.w r29, KD_GRANT_PAGE_NEXT(r5)
                         .gcap_link_done:
00008A00  10 23 18 00 04 00 00 00... load.w  r4, KD_GRANT_HDR_PAGES(r3)
00008A08  20 27 20 00 01 00 00 00... add     r4, r4, #1
00008A10  11 23 18 00 04 00 00 00... store.w r4, KD_GRANT_HDR_PAGES(r3)
00008A18  E6 00 E0 00 00 00 00 00... mtcr    cr0, r28
00008A20  E9 00 00 00 00 00 00 00... tlbflush
00008A28  01 0E E8 00 00 00 00 00... move.q  r1, r29
00008A30  01 17 00 00 00 00 00 00... move.q  r2, #ERR_OK
00008A38  51 00 00 00 00 00 00 00... rts
                         .gcap_fail:
00008A40  E6 00 E0 00 00 00 00 00... mtcr    cr0, r28
00008A48  E9 00 00 00 00 00 00 00... tlbflush
00008A50  51 00 00 00 00 00 00 00... rts
                         kern_grant_create_row:
00008A58  52 06 08 00 00 00 00 00... push    r1
00008A60  52 06 10 00 00 00 00 00... push    r2
00008A68  52 06 18 00 00 00 00 00... push    r3
00008A70  52 06 20 00 00 00 00 00... push    r4
00008A78  52 06 28 00 00 00 00 00... push    r5
00008A80  E7 E0 00 00 00 00 00 00... mfcr    r28, cr0
00008A88  52 06 E0 00 00 00 00 00... push    r28
00008A90  01 1D 00 00 00 D0 07 00... move.l  r3, #KERN_PAGE_TABLE
00008A98  E6 00 18 00 00 00 00 00... mtcr    cr0, r3
00008AA0  E9 00 00 00 00 00 00 00... tlbflush
00008AA8  01 1D 00 00 00 D0 08 00... move.l  r3, #KERN_DATA_BASE
00008AB0  20 1F 18 00 C0 C0 00 00... add     r3, r3, #KD_GRANT_TABLE_HDR
00008AB8  10 22 18 00 00 00 00 00... load.w  r4, KD_GRANT_HDR_FIRST_PPN(r3)
00008AC0  41 06 20 00 80 00 00 00... beq r4, r0, .gcr_alloc_first
                         .gcr_walk_pages:
00008AC8  34 2F 20 00 0C 00 00 00... lsl     r5, r4, #12
00008AD0  01 36 28 00 00 00 00 00... move.q  r6, r5
00008AD8  20 37 30 00 10 00 00 00... add     r6, r6, #KD_GRANT_PAGE_HDR_SZ
00008AE0  01 3D 00 00 00 00 00 00... move.l  r7, #0
                         .gcr_scan_rows:
00008AE8  01 45 00 00 FF 00 00 00... move.l  r8, #KD_GRANT_ROWS_PER_PG
00008AF0  44 06 38 40 38 00 00 00... bge     r7, r8, .gcr_next_page
00008AF8  10 44 30 00 00 00 00 00... load.l  r8, KD_GRANT_TASK_ID(r6)
00008B00  01 4D 00 00 FF FF FF FF... move.l  r9, #GRANT_TASK_FREE
00008B08  41 06 40 48 60 00 00 00... beq     r8, r9, .gcr_found_row
00008B10  20 37 30 00 10 00 00 00... add     r6, r6, #KD_GRANT_ROW_SIZE
00008B18  20 3F 38 00 01 00 00 00... add     r7, r7, #1
00008B20  40 06 00 00 C8 FF FF FF... bra     .gcr_scan_rows
                         .gcr_next_page:
00008B28  10 22 28 00 00 00 00 00... load.w  r4, KD_GRANT_PAGE_NEXT(r5)
00008B30  41 06 20 00 10 00 00 00... beq r4, r0, .gcr_alloc_more
00008B38  40 06 00 00 90 FF FF FF... bra     .gcr_walk_pages
                         .gcr_alloc_first:
                         .gcr_alloc_more:
00008B40  50 06 00 00 90 FD FF FF... jsr     kern_grant_chain_alloc_page
00008B48  42 06 10 00 C0 00 00 00... bne r2, r0, .gcr_nomem
00008B50  34 2F 08 00 0C 00 00 00... lsl     r5, r1, #12
00008B58  01 36 28 00 00 00 00 00... move.q  r6, r5
00008B60  20 37 30 00 10 00 00 00... add     r6, r6, #KD_GRANT_PAGE_HDR_SZ
                         .gcr_found_row:
00008B68  53 E6 00 00 00 00 00 00... pop     r28
00008B70  53 2E 00 00 00 00 00 00... pop     r5
00008B78  53 26 00 00 00 00 00 00... pop     r4
00008B80  53 1E 00 00 00 00 00 00... pop     r3
00008B88  53 16 00 00 00 00 00 00... pop     r2
00008B90  53 0E 00 00 00 00 00 00... pop     r1
00008B98  11 0C 30 00 00 00 00 00... store.l r1, KD_GRANT_TASK_ID(r6)
00008BA0  11 15 30 00 04 00 00 00... store.l r2, KD_GRANT_REGION(r6)
00008BA8  11 1B 30 00 08 00 00 00... store.w r3, KD_GRANT_PPN_LO(r6)
00008BB0  11 23 30 00 0A 00 00 00... store.w r4, KD_GRANT_PPN_HI(r6)
00008BB8  11 2D 30 00 0C 00 00 00... store.l r5, KD_GRANT_GRANTOR_PUBID(r6)
00008BC0  01 2D 00 00 00 D0 08 00... move.l  r5, #KERN_DATA_BASE
00008BC8  20 2F 28 00 C0 C0 00 00... add     r5, r5, #KD_GRANT_TABLE_HDR
00008BD0  10 3B 28 00 02 00 00 00... load.w  r7, KD_GRANT_HDR_TOTAL(r5)
00008BD8  20 3F 38 00 01 00 00 00... add     r7, r7, #1
00008BE0  11 3B 28 00 02 00 00 00... store.w r7, KD_GRANT_HDR_TOTAL(r5)
00008BE8  E6 00 E0 00 00 00 00 00... mtcr    cr0, r28
00008BF0  E9 00 00 00 00 00 00 00... tlbflush
00008BF8  01 17 00 00 00 00 00 00... move.q  r2, #ERR_OK
00008C00  51 00 00 00 00 00 00 00... rts
                         .gcr_nomem:
00008C08  53 E6 00 00 00 00 00 00... pop     r28
00008C10  53 2E 00 00 00 00 00 00... pop     r5
00008C18  53 26 00 00 00 00 00 00... pop     r4
00008C20  53 1E 00 00 00 00 00 00... pop     r3
00008C28  53 16 00 00 00 00 00 00... pop     r2
00008C30  53 0E 00 00 00 00 00 00... pop     r1
00008C38  E6 00 E0 00 00 00 00 00... mtcr    cr0, r28
00008C40  E9 00 00 00 00 00 00 00... tlbflush
00008C48  01 17 00 00 01 00 00 00... move.q  r2, #ERR_NOMEM
00008C50  51 00 00 00 00 00 00 00... rts
                         kern_grant_check:
00008C58  20 26 10 18 00 00 00 00... add     r4, r2, r3
00008C60  21 27 20 00 01 00 00 00... sub     r4, r4, #1
00008C68  01 2E 10 00 00 00 00 00... move.q  r5, r2
00008C70  01 36 08 00 00 00 00 00... move.q  r6, r1
00008C78  E7 E0 00 00 00 00 00 00... mfcr    r28, cr0
00008C80  01 3D 00 00 00 D0 07 00... move.l  r7, #KERN_PAGE_TABLE
00008C88  E6 00 38 00 00 00 00 00... mtcr    cr0, r7
00008C90  E9 00 00 00 00 00 00 00... tlbflush
00008C98  01 3D 00 00 00 D0 08 00... move.l  r7, #KERN_DATA_BASE
00008CA0  20 3F 38 00 C0 C0 00 00... add     r7, r7, #KD_GRANT_TABLE_HDR
00008CA8  10 42 38 00 00 00 00 00... load.w  r8, KD_GRANT_HDR_FIRST_PPN(r7)
00008CB0  41 06 40 00 B8 00 00 00... beq r8, r0, .gck_nope
                         .gck_page:
00008CB8  34 4F 40 00 0C 00 00 00... lsl     r9, r8, #12
00008CC0  01 56 48 00 00 00 00 00... move.q  r10, r9
00008CC8  20 57 50 00 10 00 00 00... add     r10, r10, #KD_GRANT_PAGE_HDR_SZ
00008CD0  01 5D 00 00 00 00 00 00... move.l  r11, #0
                         .gck_row:
00008CD8  01 65 00 00 FF 00 00 00... move.l  r12, #KD_GRANT_ROWS_PER_PG
00008CE0  44 06 58 60 78 00 00 00... bge     r11, r12, .gck_next_pg
00008CE8  10 64 50 00 00 00 00 00... load.l  r12, KD_GRANT_TASK_ID(r10)
00008CF0  42 06 60 30 50 00 00 00... bne     r12, r6, .gck_row_next
00008CF8  10 6B 50 00 08 00 00 00... load.w  r13, KD_GRANT_PPN_LO(r10)
00008D00  10 73 50 00 0A 00 00 00... load.w  r14, KD_GRANT_PPN_HI(r10)
00008D08  43 06 28 68 38 00 00 00... blt     r5, r13, .gck_row_next
00008D10  45 06 20 70 30 00 00 00... bgt     r4, r14, .gck_row_next
00008D18  E6 00 E0 00 00 00 00 00... mtcr    cr0, r28
00008D20  E9 00 00 00 00 00 00 00... tlbflush
00008D28  01 0F 00 00 01 00 00 00... move.q  r1, #1
00008D30  01 17 00 00 00 00 00 00... move.q  r2, #ERR_OK
00008D38  51 00 00 00 00 00 00 00... rts
                         .gck_row_next:
00008D40  20 57 50 00 10 00 00 00... add     r10, r10, #KD_GRANT_ROW_SIZE
00008D48  20 5F 58 00 01 00 00 00... add     r11, r11, #1
00008D50  40 06 00 00 88 FF FF FF... bra     .gck_row
                         .gck_next_pg:
00008D58  10 42 48 00 00 00 00 00... load.w  r8, KD_GRANT_PAGE_NEXT(r9)
00008D60  42 06 40 00 58 FF FF FF... bne r8, r0, .gck_page
                         .gck_nope:
00008D68  E6 00 E0 00 00 00 00 00... mtcr    cr0, r28
00008D70  E9 00 00 00 00 00 00 00... tlbflush
00008D78  01 0F 00 00 00 00 00 00... move.q  r1, #0
00008D80  01 17 00 00 00 00 00 00... move.q  r2, #ERR_OK
00008D88  51 00 00 00 00 00 00 00... rts
                         kern_bootstrap_grant_for_program:
00008D90  01 A6 08 00 00 00 00 00... move.q  r20, r1
00008D98  01 AE 10 00 00 00 00 00... move.q  r21, r2
00008DA0  04 B7 00 00 D0 46 01 00... lea r22, bootstrap_grant_table(r0)
                         .bgfp_loop:
00008DA8  10 18 B0 00 00 00 00 00... load.b  r3, BOOTSTRAP_GRANT_OFF_PROG_IDX(r22)
00008DB0  30 1F 18 00 FF 00 00 00... and     r3, r3, #0xFF
00008DB8  01 25 00 00 FF 00 00 00... move.l  r4, #0xFF
00008DC0  41 06 18 20 A0 00 00 00... beq     r3, r4, .bgfp_done
00008DC8  42 06 18 A0 88 00 00 00... bne     r3, r20, .bgfp_advance
00008DD0  10 2D B0 00 04 00 00 00... load.l  r5, BOOTSTRAP_GRANT_OFF_TAG(r22)
00008DD8  10 33 B0 00 08 00 00 00... load.w  r6, BOOTSTRAP_GRANT_OFF_PPN_LO(r22)
00008DE0  10 3B B0 00 0A 00 00 00... load.w  r7, BOOTSTRAP_GRANT_OFF_PPN_HI(r22)
00008DE8  52 06 A0 00 00 00 00 00... push    r20
00008DF0  52 06 A8 00 00 00 00 00... push    r21
00008DF8  52 06 B0 00 00 00 00 00... push    r22
00008E00  01 0E A8 00 00 00 00 00... move.q  r1, r21
00008E08  01 16 28 00 00 00 00 00... move.q  r2, r5
00008E10  01 1E 30 00 00 00 00 00... move.q  r3, r6
00008E18  01 26 38 00 00 00 00 00... move.q  r4, r7
00008E20  01 2D 00 00 FF FF FF FF... move.l  r5, #GRANT_GRANTOR_NONE
00008E28  50 06 00 00 30 FC FF FF... jsr     kern_grant_create_row
00008E30  53 B6 00 00 00 00 00 00... pop     r22
00008E38  53 AE 00 00 00 00 00 00... pop     r21
00008E40  53 A6 00 00 00 00 00 00... pop     r20
00008E48  42 06 10 00 28 00 00 00... bne r2, r0, .bgfp_fail
                         .bgfp_advance:
00008E50  20 B7 B0 00 10 00 00 00... add     r22, r22, #BOOTSTRAP_GRANT_ROW_SZ
00008E58  40 06 00 00 50 FF FF FF... bra     .bgfp_loop
                         .bgfp_done:
00008E60  01 17 00 00 00 00 00 00... move.q  r2, #ERR_OK
00008E68  51 00 00 00 00 00 00 00... rts
                         .bgfp_fail:
00008E70  01 17 00 00 01 00 00 00... move.q  r2, #ERR_NOMEM
00008E78  51 00 00 00 00 00 00 00... rts
                         kern_grant_release_for_task:
00008E80  01 36 08 00 00 00 00 00... move.q  r6, r1
00008E88  01 1D 00 00 00 D0 08 00... move.l  r3, #KERN_DATA_BASE
00008E90  20 1F 18 00 C0 C0 00 00... add     r3, r3, #KD_GRANT_TABLE_HDR
00008E98  10 22 18 00 00 00 00 00... load.w  r4, KD_GRANT_HDR_FIRST_PPN(r3)
00008EA0  41 06 20 00 40 01 00 00... beq r4, r0, .grft_done
                         .grft_page:
00008EA8  34 2F 20 00 0C 00 00 00... lsl     r5, r4, #12
00008EB0  01 3E 28 00 00 00 00 00... move.q  r7, r5
00008EB8  20 3F 38 00 10 00 00 00... add     r7, r7, #KD_GRANT_PAGE_HDR_SZ
00008EC0  01 45 00 00 00 00 00 00... move.l  r8, #0
                         .grft_row:
00008EC8  01 4D 00 00 FF 00 00 00... move.l  r9, #KD_GRANT_ROWS_PER_PG
00008ED0  44 06 40 48 00 01 00 00... bge     r8, r9, .grft_next_page
00008ED8  10 4C 38 00 00 00 00 00... load.l  r9, KD_GRANT_TASK_ID(r7)
00008EE0  42 06 48 30 D8 00 00 00... bne     r9, r6, .grft_row_skip
00008EE8  10 75 38 00 0C 00 00 00... load.l  r14, KD_GRANT_GRANTOR_PUBID(r7)
00008EF0  01 55 00 00 FF FF FF FF... move.l  r10, #GRANT_TASK_FREE
00008EF8  11 54 38 00 00 00 00 00... store.l r10, KD_GRANT_TASK_ID(r7)
00008F00  10 5B 18 00 02 00 00 00... load.w  r11, KD_GRANT_HDR_TOTAL(r3)
00008F08  21 5F 58 00 01 00 00 00... sub     r11, r11, #1
00008F10  11 5B 18 00 02 00 00 00... store.w r11, KD_GRANT_HDR_TOTAL(r3)
00008F18  01 65 00 00 FF FF FF FF... move.l  r12, #GRANT_GRANTOR_NONE
00008F20  41 06 70 60 98 00 00 00... beq     r14, r12, .grft_skip_refund
00008F28  52 06 18 00 00 00 00 00... push    r3
00008F30  52 06 20 00 00 00 00 00... push    r4
00008F38  52 06 28 00 00 00 00 00... push    r5
00008F40  52 06 30 00 00 00 00 00... push    r6
00008F48  52 06 38 00 00 00 00 00... push    r7
00008F50  52 06 40 00 00 00 00 00... push    r8
00008F58  01 0E 70 00 00 00 00 00... move.q  r1, r14
00008F60  50 06 00 00 78 91 FF FF... jsr     kern_find_slot_for_public_id
00008F68  41 06 10 00 20 00 00 00... beq r2, r0, .grft_refund_skip_restore
00008F70  01 15 00 00 04 00 00 00... move.l  r2, #QUOTA_KIND_GRANTS
00008F78  01 1D 00 00 01 00 00 00... move.l  r3, #1
00008F80  50 06 00 00 F8 80 00 00... jsr     quota_return
                         .grft_refund_skip_restore:
00008F88  53 46 00 00 00 00 00 00... pop     r8
00008F90  53 3E 00 00 00 00 00 00... pop     r7
00008F98  53 36 00 00 00 00 00 00... pop     r6
00008FA0  53 2E 00 00 00 00 00 00... pop     r5
00008FA8  53 26 00 00 00 00 00 00... pop     r4
00008FB0  53 1E 00 00 00 00 00 00... pop     r3
                         .grft_skip_refund:
                         .grft_row_skip:
00008FB8  20 3F 38 00 10 00 00 00... add     r7, r7, #KD_GRANT_ROW_SIZE
00008FC0  20 47 40 00 01 00 00 00... add     r8, r8, #1
00008FC8  40 06 00 00 00 FF FF FF... bra     .grft_row
                         .grft_next_page:
00008FD0  10 22 28 00 00 00 00 00... load.w  r4, KD_GRANT_PAGE_NEXT(r5)
00008FD8  42 06 20 00 D0 FE FF FF... bne r4, r0, .grft_page
                         .grft_done:
00008FE0  51 00 00 00 00 00 00 00... rts
                         kern_revoke_io_range:
00008FE8  52 06 68 00 00 00 00 00... push    r13
00008FF0  52 06 70 00 00 00 00 00... push    r14
00008FF8  52 06 78 00 00 00 00 00... push    r15
00009000  52 06 80 00 00 00 00 00... push    r16
00009008  52 06 88 00 00 00 00 00... push    r17
00009010  52 06 90 00 00 00 00 00... push    r18
00009018  52 06 98 00 00 00 00 00... push    r19
00009020  52 06 A8 00 00 00 00 00... push    r21
00009028  52 06 B0 00 00 00 00 00... push    r22
00009030  52 06 B8 00 00 00 00 00... push    r23
00009038  52 06 C0 00 00 00 00 00... push    r24
00009040  52 06 C8 00 00 00 00 00... push    r25
00009048  52 06 D0 00 00 00 00 00... push    r26
00009050  52 06 D8 00 00 00 00 00... push    r27
00009058  01 AE 08 00 00 00 00 00... move.q  r21, r1
00009060  01 B6 10 00 00 00 00 00... move.q  r22, r2
00009068  01 BE 18 00 00 00 00 00... move.q  r23, r3
00009070  01 C6 20 00 00 00 00 00... move.q  r24, r4
00009078  01 75 00 00 00 D0 08 00... move.l  r14, #KERN_DATA_BASE
00009080  20 77 70 00 38 40 00 00... add     r14, r14, #KD_REGION_TABLE
00009088  01 7D 00 00 80 00 00 00... move.l  r15, #KD_REGION_TASK_SZ
00009090  22 7E A8 78 00 00 00 00... mulu    r15, r21, r15
00009098  20 CE 70 78 00 00 00 00... add     r25, r14, r15
000090A0  01 D5 00 00 00 00 00 00... move.l  r26, #0
                         .krir_inline_loop:
000090A8  01 75 00 00 08 00 00 00... move.l  r14, #KD_REGION_INLINE_MAX
000090B0  44 06 D0 70 38 00 00 00... bge     r26, r14, .krir_oflow_setup
000090B8  01 75 00 00 10 00 00 00... move.l  r14, #KD_REGION_STRIDE
000090C0  22 76 D0 70 00 00 00 00... mulu    r14, r26, r14
000090C8  20 DE C8 70 00 00 00 00... add     r27, r25, r14
000090D0  50 06 00 00 30 01 00 00... jsr     .krir_process_row
000090D8  20 D7 D0 00 01 00 00 00... add     r26, r26, #1
000090E0  40 06 00 00 C8 FF FF FF... bra     .krir_inline_loop
                         .krir_oflow_setup:
000090E8  01 75 00 00 00 D0 08 00... move.l  r14, #KERN_DATA_BASE
000090F0  20 77 70 00 C8 C0 00 00... add     r14, r14, #KD_REGION_OVERFLOW_HEAD
000090F8  01 7D 00 00 08 00 00 00... move.l  r15, #KD_REGION_OFLOW_STRIDE
00009100  22 7E A8 78 00 00 00 00... mulu    r15, r21, r15
00009108  20 CE 70 78 00 00 00 00... add     r25, r14, r15
00009110  10 D2 C8 00 00 00 00 00... load.w  r26, KD_REGION_OFLOW_FIRST_PPN(r25)
                         .krir_oflow_page_loop:
00009118  41 06 D0 00 70 00 00 00... beq r26, r0, .krir_done
00009120  34 8F D0 00 0C 00 00 00... lsl     r17, r26, #12
00009128  01 96 88 00 00 00 00 00... move.q  r18, r17
00009130  20 97 90 00 10 00 00 00... add     r18, r18, #KD_REGION_PAGE_HDR_SZ
00009138  01 9D 00 00 00 00 00 00... move.l  r19, #0
                         .krir_oflow_row_loop:
00009140  01 75 00 00 FF 00 00 00... move.l  r14, #KD_REGION_ROWS_PER_PG
00009148  44 06 98 70 30 00 00 00... bge     r19, r14, .krir_oflow_page_next
00009150  01 DE 90 00 00 00 00 00... move.q  r27, r18
00009158  50 06 00 00 A8 00 00 00... jsr     .krir_process_row
00009160  20 97 90 00 10 00 00 00... add     r18, r18, #KD_REGION_STRIDE
00009168  20 9F 98 00 01 00 00 00... add     r19, r19, #1
00009170  40 06 00 00 D0 FF FF FF... bra     .krir_oflow_row_loop
                         .krir_oflow_page_next:
00009178  10 D2 88 00 00 00 00 00... load.w  r26, KD_REGION_PAGE_NEXT(r17)
00009180  40 06 00 00 98 FF FF FF... bra     .krir_oflow_page_loop
                         .krir_done:
00009188  53 DE 00 00 00 00 00 00... pop     r27
00009190  53 D6 00 00 00 00 00 00... pop     r26
00009198  53 CE 00 00 00 00 00 00... pop     r25
000091A0  53 C6 00 00 00 00 00 00... pop     r24
000091A8  53 BE 00 00 00 00 00 00... pop     r23
000091B0  53 B6 00 00 00 00 00 00... pop     r22
000091B8  53 AE 00 00 00 00 00 00... pop     r21
000091C0  53 9E 00 00 00 00 00 00... pop     r19
000091C8  53 96 00 00 00 00 00 00... pop     r18
000091D0  53 8E 00 00 00 00 00 00... pop     r17
000091D8  53 86 00 00 00 00 00 00... pop     r16
000091E0  53 7E 00 00 00 00 00 00... pop     r15
000091E8  53 76 00 00 00 00 00 00... pop     r14
000091F0  53 6E 00 00 00 00 00 00... pop     r13
000091F8  51 00 00 00 00 00 00 00... rts
                         .krir_process_row:
00009200  10 71 D8 00 08 00 00 00... load.b  r14, KD_REG_TYPE(r27)
00009208  01 7D 00 00 03 00 00 00... move.l  r15, #REGION_IO
00009210  42 06 70 78 B0 00 00 00... bne     r14, r15, .krir_pr_done
00009218  10 73 D8 00 04 00 00 00... load.w  r14, KD_REG_PPN(r27)
00009220  10 7B D8 00 06 00 00 00... load.w  r15, KD_REG_PAGES(r27)
00009228  20 86 70 78 00 00 00 00... add     r16, r14, r15
00009230  21 87 80 00 01 00 00 00... sub     r16, r16, #1
00009238  45 06 70 B8 88 00 00 00... bgt     r14, r23, .krir_pr_done
00009240  43 06 80 B0 80 00 00 00... blt     r16, r22, .krir_pr_done
00009248  01 0E C0 00 00 00 00 00... move.q  r1, r24
00009250  01 16 70 00 00 00 00 00... move.q  r2, r14
00009258  01 1E 78 00 00 00 00 00... move.q  r3, r15
00009260  50 06 00 00 F8 F9 FF FF... jsr     kern_grant_check
00009268  42 06 08 00 58 00 00 00... bne r1, r0, .krir_pr_done
00009270  10 14 D8 00 00 00 00 00... load.l  r2, KD_REG_VA(r27)
00009278  10 1B D8 00 06 00 00 00... load.w  r3, KD_REG_PAGES(r27)
00009280  34 0F A8 00 03 00 00 00... lsl     r1, r21, #3
00009288  01 25 00 00 20 20 00 00... move.l  r4, #KD_PTBR_BASE
00009290  20 0E 08 20 00 00 00 00... add     r1, r1, r4
00009298  01 25 00 00 00 D0 08 00... move.l  r4, #KERN_DATA_BASE
000092A0  20 0E 08 20 00 00 00 00... add     r1, r1, r4
000092A8  10 0E 08 00 00 00 00 00... load.q  r1, (r1)
000092B0  50 06 00 00 80 14 00 00... jsr     unmap_pages
000092B8  11 01 D8 00 08 00 00 00... store.b r0, KD_REG_TYPE(r27)
                         .krir_pr_done:
000092C0  51 00 00 00 00 00 00 00... rts
                         kern_grant_release_for_grantor:
000092C8  01 A6 08 00 00 00 00 00... move.q  r20, r1
000092D0  01 1D 00 00 00 D0 08 00... move.l  r3, #KERN_DATA_BASE
000092D8  20 1F 18 00 C0 C0 00 00... add     r3, r3, #KD_GRANT_TABLE_HDR
000092E0  10 22 18 00 00 00 00 00... load.w  r4, KD_GRANT_HDR_FIRST_PPN(r3)
000092E8  41 06 20 00 50 01 00 00... beq r4, r0, .grg_done
                         .grg_page:
000092F0  34 2F 20 00 0C 00 00 00... lsl     r5, r4, #12
000092F8  01 3E 28 00 00 00 00 00... move.q  r7, r5
00009300  20 3F 38 00 10 00 00 00... add     r7, r7, #KD_GRANT_PAGE_HDR_SZ
00009308  01 45 00 00 00 00 00 00... move.l  r8, #0
                         .grg_row:
00009310  01 4D 00 00 FF 00 00 00... move.l  r9, #KD_GRANT_ROWS_PER_PG
00009318  44 06 40 48 10 01 00 00... bge     r8, r9, .grg_next_page
00009320  10 4C 38 00 00 00 00 00... load.l  r9, KD_GRANT_TASK_ID(r7)
00009328  01 55 00 00 FF FF FF FF... move.l  r10, #GRANT_TASK_FREE
00009330  41 06 48 50 E0 00 00 00... beq     r9, r10, .grg_row_skip
00009338  10 55 38 00 0C 00 00 00... load.l  r10, KD_GRANT_GRANTOR_PUBID(r7)
00009340  42 06 50 A0 D0 00 00 00... bne     r10, r20, .grg_row_skip
00009348  01 AE 48 00 00 00 00 00... move.q  r21, r9
00009350  10 B3 38 00 08 00 00 00... load.w  r22, KD_GRANT_PPN_LO(r7)
00009358  10 BB 38 00 0A 00 00 00... load.w  r23, KD_GRANT_PPN_HI(r7)
00009360  01 55 00 00 FF FF FF FF... move.l  r10, #GRANT_TASK_FREE
00009368  11 54 38 00 00 00 00 00... store.l r10, KD_GRANT_TASK_ID(r7)
00009370  10 5B 18 00 02 00 00 00... load.w  r11, KD_GRANT_HDR_TOTAL(r3)
00009378  21 5F 58 00 01 00 00 00... sub     r11, r11, #1
00009380  11 5B 18 00 02 00 00 00... store.w r11, KD_GRANT_HDR_TOTAL(r3)
00009388  52 06 18 00 00 00 00 00... push    r3
00009390  52 06 20 00 00 00 00 00... push    r4
00009398  52 06 28 00 00 00 00 00... push    r5
000093A0  52 06 38 00 00 00 00 00... push    r7
000093A8  52 06 40 00 00 00 00 00... push    r8
000093B0  01 0E A8 00 00 00 00 00... move.q  r1, r21
000093B8  50 06 00 00 20 8D FF FF... jsr     kern_find_slot_for_public_id
000093C0  41 06 10 00 28 00 00 00... beq r2, r0, .grg_after_unmap
000093C8  01 16 B0 00 00 00 00 00... move.q  r2, r22
000093D0  01 1E B8 00 00 00 00 00... move.q  r3, r23
000093D8  01 26 A8 00 00 00 00 00... move.q  r4, r21
000093E0  50 06 00 00 08 FC FF FF... jsr     kern_revoke_io_range
                         .grg_after_unmap:
000093E8  53 46 00 00 00 00 00 00... pop     r8
000093F0  53 3E 00 00 00 00 00 00... pop     r7
000093F8  53 2E 00 00 00 00 00 00... pop     r5
00009400  53 26 00 00 00 00 00 00... pop     r4
00009408  53 1E 00 00 00 00 00 00... pop     r3
                         .grg_row_skip:
00009410  20 3F 38 00 10 00 00 00... add     r7, r7, #KD_GRANT_ROW_SIZE
00009418  20 47 40 00 01 00 00 00... add     r8, r8, #1
00009420  40 06 00 00 F0 FE FF FF... bra     .grg_row
                         .grg_next_page:
00009428  10 22 28 00 00 00 00 00... load.w  r4, KD_GRANT_PAGE_NEXT(r5)
00009430  42 06 20 00 C0 FE FF FF... bne r4, r0, .grg_page
                         .grg_done:
00009438  51 00 00 00 00 00 00 00... rts
                         kern_region_oflow_head:
00009440  01 1D 00 00 00 D0 08 00... move.l  r3, #KERN_DATA_BASE
00009448  20 1F 18 00 C8 C0 00 00... add     r3, r3, #KD_REGION_OVERFLOW_HEAD
00009450  01 25 00 00 08 00 00 00... move.l  r4, #KD_REGION_OFLOW_STRIDE
00009458  22 26 08 20 00 00 00 00... mulu    r4, r1, r4
00009460  20 0E 18 20 00 00 00 00... add     r1, r3, r4
00009468  51 00 00 00 00 00 00 00... rts
                         kern_region_oflow_alloc_row:
00009470  52 06 08 00 00 00 00 00... push    r1
00009478  50 06 00 00 C8 FF FF FF... jsr     kern_region_oflow_head
00009480  01 56 08 00 00 00 00 00... move.q  r10, r1
00009488  10 22 50 00 00 00 00 00... load.w  r4, KD_REGION_OFLOW_FIRST_PPN(r10)
00009490  41 06 20 00 70 00 00 00... beq r4, r0, .roar_alloc_first
                         .roar_walk:
00009498  34 2F 20 00 0C 00 00 00... lsl     r5, r4, #12
000094A0  01 36 28 00 00 00 00 00... move.q  r6, r5
000094A8  20 37 30 00 10 00 00 00... add     r6, r6, #KD_REGION_PAGE_HDR_SZ
000094B0  01 3D 00 00 00 00 00 00... move.l  r7, #0
                         .roar_scan:
000094B8  01 45 00 00 FF 00 00 00... move.l  r8, #KD_REGION_ROWS_PER_PG
000094C0  44 06 38 40 30 00 00 00... bge     r7, r8, .roar_next_page
000094C8  10 41 30 00 08 00 00 00... load.b  r8, KD_REG_TYPE(r6)
000094D0  41 06 40 00 30 01 00 00... beq r8, r0, .roar_found
000094D8  20 37 30 00 10 00 00 00... add     r6, r6, #KD_REGION_STRIDE
000094E0  20 3F 38 00 01 00 00 00... add     r7, r7, #1
000094E8  40 06 00 00 D0 FF FF FF... bra     .roar_scan
                         .roar_next_page:
000094F0  10 22 28 00 00 00 00 00... load.w  r4, KD_REGION_PAGE_NEXT(r5)
000094F8  42 06 20 00 A0 FF FF FF... bne r4, r0, .roar_walk
                         .roar_alloc_first:
00009500  01 0D 00 00 01 00 00 00... move.l  r1, #1
00009508  50 06 00 00 E0 F0 FF FF... jsr     alloc_pages
00009510  42 06 10 00 40 01 00 00... bne r2, r0, .roar_nomem
00009518  01 EE 08 00 00 00 00 00... move.q  r29, r1
00009520  34 1F 08 00 0C 00 00 00... lsl     r3, r1, #12
00009528  01 26 18 00 00 00 00 00... move.q  r4, r3
00009530  01 2D 00 00 00 10 00 00... move.l  r5, #4096
00009538  20 2E 28 18 00 00 00 00... add     r5, r5, r3
                         .roar_zero:
00009540  44 06 20 28 20 00 00 00... bge     r4, r5, .roar_zdone
00009548  11 06 20 00 00 00 00 00... store.q r0, (r4)
00009550  20 27 20 00 08 00 00 00... add     r4, r4, #8
00009558  40 06 00 00 E8 FF FF FF... bra     .roar_zero
                         .roar_zdone:
00009560  53 0E 00 00 00 00 00 00... pop     r1
00009568  52 06 08 00 00 00 00 00... push    r1
00009570  50 06 00 00 D0 FE FF FF... jsr     kern_region_oflow_head
00009578  01 56 08 00 00 00 00 00... move.q  r10, r1
00009580  10 22 50 00 00 00 00 00... load.w  r4, KD_REGION_OFLOW_FIRST_PPN(r10)
00009588  42 06 20 00 18 00 00 00... bne r4, r0, .roar_walk_tail
00009590  11 EA 50 00 00 00 00 00... store.w r29, KD_REGION_OFLOW_FIRST_PPN(r10)
00009598  40 06 00 00 38 00 00 00... bra     .roar_link_done
                         .roar_walk_tail:
000095A0  34 2F 20 00 0C 00 00 00... lsl     r5, r4, #12
000095A8  10 32 28 00 00 00 00 00... load.w  r6, KD_REGION_PAGE_NEXT(r5)
000095B0  41 06 30 00 18 00 00 00... beq r6, r0, .roar_at_tail
000095B8  01 26 30 00 00 00 00 00... move.q  r4, r6
000095C0  40 06 00 00 E0 FF FF FF... bra     .roar_walk_tail
                         .roar_at_tail:
000095C8  11 EA 28 00 00 00 00 00... store.w r29, KD_REGION_PAGE_NEXT(r5)
                         .roar_link_done:
000095D0  10 23 50 00 04 00 00 00... load.w  r4, KD_REGION_OFLOW_PAGES(r10)
000095D8  20 27 20 00 01 00 00 00... add     r4, r4, #1
000095E0  11 23 50 00 04 00 00 00... store.w r4, KD_REGION_OFLOW_PAGES(r10)
000095E8  34 2F E8 00 0C 00 00 00... lsl     r5, r29, #12
000095F0  01 36 28 00 00 00 00 00... move.q  r6, r5
000095F8  20 37 30 00 10 00 00 00... add     r6, r6, #KD_REGION_PAGE_HDR_SZ
                         .roar_found:
00009600  53 0E 00 00 00 00 00 00... pop     r1
00009608  52 06 30 00 00 00 00 00... push    r6
00009610  50 06 00 00 30 FE FF FF... jsr     kern_region_oflow_head
00009618  53 36 00 00 00 00 00 00... pop     r6
00009620  10 3B 08 00 02 00 00 00... load.w  r7, KD_REGION_OFLOW_TOTAL(r1)
00009628  20 3F 38 00 01 00 00 00... add     r7, r7, #1
00009630  11 3B 08 00 02 00 00 00... store.w r7, KD_REGION_OFLOW_TOTAL(r1)
00009638  01 0E 30 00 00 00 00 00... move.q  r1, r6
00009640  01 17 00 00 00 00 00 00... move.q  r2, #ERR_OK
00009648  51 00 00 00 00 00 00 00... rts
                         .roar_nomem:
00009650  53 0E 00 00 00 00 00 00... pop     r1
00009658  01 0F 00 00 00 00 00 00... move.q  r1, #0
00009660  01 17 00 00 01 00 00 00... move.q  r2, #ERR_NOMEM
00009668  51 00 00 00 00 00 00 00... rts
                         kern_shmem_alloc_slot:
00009670  01 25 00 00 00 D0 08 00... move.l  r4, #KERN_DATA_BASE
00009678  20 27 20 00 B8 BF 00 00... add     r4, r4, #KD_SHMEM_TABLE
00009680  01 2D 00 00 00 00 00 00... move.l  r5, #0
                         .ksas_inline_scan:
00009688  01 35 00 00 10 00 00 00... move.l  r6, #KD_SHMEM_INLINE_MAX
00009690  44 06 28 30 58 00 00 00... bge     r5, r6, .ksas_oflow
00009698  01 35 00 00 10 00 00 00... move.l  r6, #KD_SHMEM_STRIDE
000096A0  22 36 28 30 00 00 00 00... mulu    r6, r5, r6
000096A8  20 3E 20 30 00 00 00 00... add     r7, r4, r6
000096B0  10 40 38 00 00 00 00 00... load.b  r8, KD_SHM_VALID(r7)
000096B8  41 06 40 00 18 00 00 00... beq r8, r0, .ksas_inline_found
000096C0  20 2F 28 00 01 00 00 00... add     r5, r5, #1
000096C8  40 06 00 00 C0 FF FF FF... bra     .ksas_inline_scan
                         .ksas_inline_found:
000096D0  01 0E 38 00 00 00 00 00... move.q  r1, r7
000096D8  01 16 28 00 00 00 00 00... move.q  r2, r5
000096E0  51 00 00 00 00 00 00 00... rts
                         .ksas_oflow:
000096E8  01 25 00 00 00 D0 08 00... move.l  r4, #KERN_DATA_BASE
000096F0  20 27 20 00 C0 C8 00 00... add     r4, r4, #KD_SHMEM_OFLOW_HDR
000096F8  10 2A 20 00 00 00 00 00... load.w  r5, KD_SHMEM_OFLOW_FIRST_PPN(r4)
00009700  01 35 00 00 10 00 00 00... move.l  r6, #KD_SHMEM_INLINE_MAX
00009708  41 06 28 00 A8 00 00 00... beq r5, r0, .ksas_alloc_new
                         .ksas_walk_page:
00009710  34 3F 28 00 0C 00 00 00... lsl     r7, r5, #12
00009718  01 46 38 00 00 00 00 00... move.q  r8, r7
00009720  20 47 40 00 10 00 00 00... add     r8, r8, #KD_SHMEM_PAGE_HDR_SZ
00009728  01 4D 00 00 00 00 00 00... move.l  r9, #0
                         .ksas_walk_row:
00009730  01 55 00 00 FF 00 00 00... move.l  r10, #KD_SHMEM_ROWS_PER_PG
00009738  44 06 48 50 38 00 00 00... bge     r9, r10, .ksas_walk_next_page
00009740  10 58 40 00 00 00 00 00... load.b  r11, KD_SHM_VALID(r8)
00009748  41 06 58 00 40 00 00 00... beq r11, r0, .ksas_oflow_found
00009750  20 47 40 00 10 00 00 00... add     r8, r8, #KD_SHMEM_STRIDE
00009758  20 4F 48 00 01 00 00 00... add     r9, r9, #1
00009760  20 37 30 00 01 00 00 00... add     r6, r6, #1
00009768  40 06 00 00 C8 FF FF FF... bra     .ksas_walk_row
                         .ksas_walk_next_page:
00009770  10 2A 38 00 00 00 00 00... load.w  r5, KD_SHMEM_PAGE_NEXT(r7)
00009778  42 06 28 00 98 FF FF FF... bne r5, r0, .ksas_walk_page
00009780  40 06 00 00 30 00 00 00... bra     .ksas_alloc_new
                         .ksas_oflow_found:
00009788  01 55 00 00 FF 00 00 00... move.l  r10, #0xFF
00009790  44 06 30 50 38 01 00 00... bge     r6, r10, .ksas_nomem
00009798  01 0E 40 00 00 00 00 00... move.q  r1, r8
000097A0  01 16 30 00 00 00 00 00... move.q  r2, r6
000097A8  51 00 00 00 00 00 00 00... rts
                         .ksas_alloc_new:
000097B0  01 55 00 00 FF 00 00 00... move.l  r10, #0xFF
000097B8  44 06 30 50 10 01 00 00... bge     r6, r10, .ksas_nomem
000097C0  52 06 30 00 00 00 00 00... push    r6
000097C8  01 0D 00 00 01 00 00 00... move.l  r1, #1
000097D0  50 06 00 00 18 EE FF FF... jsr     alloc_pages
000097D8  53 36 00 00 00 00 00 00... pop     r6
000097E0  42 06 10 00 E8 00 00 00... bne r2, r0, .ksas_nomem
000097E8  01 66 08 00 00 00 00 00... move.q  r12, r1
000097F0  34 3F 08 00 0C 00 00 00... lsl     r7, r1, #12
000097F8  01 46 38 00 00 00 00 00... move.q  r8, r7
00009800  01 4D 00 00 00 10 00 00... move.l  r9, #4096
00009808  20 4E 48 38 00 00 00 00... add     r9, r9, r7
                         .ksas_zero:
00009810  44 06 40 48 20 00 00 00... bge     r8, r9, .ksas_zdone
00009818  11 06 40 00 00 00 00 00... store.q r0, (r8)
00009820  20 47 40 00 08 00 00 00... add     r8, r8, #8
00009828  40 06 00 00 E8 FF FF FF... bra     .ksas_zero
                         .ksas_zdone:
00009830  01 25 00 00 00 D0 08 00... move.l  r4, #KERN_DATA_BASE
00009838  20 27 20 00 C0 C8 00 00... add     r4, r4, #KD_SHMEM_OFLOW_HDR
00009840  10 2A 20 00 00 00 00 00... load.w  r5, KD_SHMEM_OFLOW_FIRST_PPN(r4)
00009848  42 06 28 00 18 00 00 00... bne r5, r0, .ksas_walk_tail
00009850  11 62 20 00 00 00 00 00... store.w r12, KD_SHMEM_OFLOW_FIRST_PPN(r4)
00009858  40 06 00 00 38 00 00 00... bra     .ksas_link_done
                         .ksas_walk_tail:
00009860  34 3F 28 00 0C 00 00 00... lsl     r7, r5, #12
00009868  10 42 38 00 00 00 00 00... load.w  r8, KD_SHMEM_PAGE_NEXT(r7)
00009870  41 06 40 00 18 00 00 00... beq r8, r0, .ksas_at_tail
00009878  01 2E 40 00 00 00 00 00... move.q  r5, r8
00009880  40 06 00 00 E0 FF FF FF... bra     .ksas_walk_tail
                         .ksas_at_tail:
00009888  11 62 38 00 00 00 00 00... store.w r12, KD_SHMEM_PAGE_NEXT(r7)
                         .ksas_link_done:
00009890  10 43 20 00 04 00 00 00... load.w  r8, KD_SHMEM_OFLOW_PAGES(r4)
00009898  20 47 40 00 01 00 00 00... add     r8, r8, #1
000098A0  11 43 20 00 04 00 00 00... store.w r8, KD_SHMEM_OFLOW_PAGES(r4)
000098A8  34 3F 60 00 0C 00 00 00... lsl     r7, r12, #12
000098B0  20 0F 38 00 10 00 00 00... add     r1, r7, #KD_SHMEM_PAGE_HDR_SZ
000098B8  01 16 30 00 00 00 00 00... move.q  r2, r6
000098C0  51 00 00 00 00 00 00 00... rts
                         .ksas_nomem:
000098C8  01 0E 00 00 00 00 00 00... move.q  r1, r0
000098D0  01 16 00 00 00 00 00 00... move.q  r2, r0
000098D8  51 00 00 00 00 00 00 00... rts
                         kern_shmem_addr_for_id:
000098E0  01 1D 00 00 10 00 00 00... move.l  r3, #KD_SHMEM_INLINE_MAX
000098E8  44 06 08 18 38 00 00 00... bge     r1, r3, .ksai_oflow
000098F0  01 1D 00 00 10 00 00 00... move.l  r3, #KD_SHMEM_STRIDE
000098F8  22 1E 08 18 00 00 00 00... mulu    r3, r1, r3
00009900  01 25 00 00 00 D0 08 00... move.l  r4, #KERN_DATA_BASE
00009908  20 27 20 00 B8 BF 00 00... add     r4, r4, #KD_SHMEM_TABLE
00009910  20 0E 20 18 00 00 00 00... add     r1, r4, r3
00009918  51 00 00 00 00 00 00 00... rts
                         .ksai_oflow:
00009920  21 0F 08 00 10 00 00 00... sub     r1, r1, #KD_SHMEM_INLINE_MAX
00009928  01 1D 00 00 FF 00 00 00... move.l  r3, #KD_SHMEM_ROWS_PER_PG
00009930  24 26 08 18 00 00 00 00... divu    r4, r1, r3
00009938  22 2E 20 18 00 00 00 00... mulu    r5, r4, r3
00009940  21 2E 08 28 00 00 00 00... sub     r5, r1, r5
00009948  01 35 00 00 00 D0 08 00... move.l  r6, #KERN_DATA_BASE
00009950  20 37 30 00 C0 C8 00 00... add     r6, r6, #KD_SHMEM_OFLOW_HDR
00009958  10 3A 30 00 00 00 00 00... load.w  r7, KD_SHMEM_OFLOW_FIRST_PPN(r6)
                         .ksai_walk:
00009960  41 06 38 00 60 00 00 00... beq r7, r0, .ksai_notfound
00009968  41 06 20 00 28 00 00 00... beq r4, r0, .ksai_at_page
00009970  34 47 38 00 0C 00 00 00... lsl     r8, r7, #12
00009978  10 3A 40 00 00 00 00 00... load.w  r7, KD_SHMEM_PAGE_NEXT(r8)
00009980  21 27 20 00 01 00 00 00... sub     r4, r4, #1
00009988  40 06 00 00 D8 FF FF FF... bra     .ksai_walk
                         .ksai_at_page:
00009990  34 47 38 00 0C 00 00 00... lsl     r8, r7, #12
00009998  01 4D 00 00 10 00 00 00... move.l  r9, #KD_SHMEM_STRIDE
000099A0  22 4E 28 48 00 00 00 00... mulu    r9, r5, r9
000099A8  20 0F 40 00 10 00 00 00... add     r1, r8, #KD_SHMEM_PAGE_HDR_SZ
000099B0  20 0E 08 48 00 00 00 00... add     r1, r1, r9
000099B8  51 00 00 00 00 00 00 00... rts
                         .ksai_notfound:
000099C0  01 0E 00 00 00 00 00 00... move.q  r1, r0
000099C8  51 00 00 00 00 00 00 00... rts
                         kern_create_exec_library_port:
000099D0  50 06 00 00 30 07 00 00... jsr     kern_port_alloc_slot
000099D8  41 06 08 00 C0 00 00 00... beq r1, r0, .kcelp_nomem
000099E0  01 A6 08 00 00 00 00 00... move.q  r20, r1
000099E8  01 59 00 00 01 00 00 00... move.b  r11, #1
000099F0  11 58 A0 00 00 00 00 00... store.b r11, KD_PORT_VALID(r20)
000099F8  01 59 00 00 FF 00 00 00... move.b  r11, #0xFF
00009A00  11 59 A0 00 01 00 00 00... store.b r11, KD_PORT_OWNER(r20)
00009A08  11 01 A0 00 02 00 00 00... store.b r0, KD_PORT_COUNT(r20)
00009A10  11 01 A0 00 03 00 00 00... store.b r0, KD_PORT_HEAD(r20)
00009A18  11 01 A0 00 04 00 00 00... store.b r0, KD_PORT_TAIL(r20)
00009A20  01 59 00 00 01 00 00 00... move.b  r11, #PF_PUBLIC
00009A28  11 59 A0 00 05 00 00 00... store.b r11, KD_PORT_FLAGS(r20)
00009A30  20 AF A0 00 08 00 00 00... add     r21, r20, #KD_PORT_NAME
00009A38  04 B7 00 00 C4 4A 01 00... lea r22, kern_exec_port_name(r0)
00009A40  01 BD 00 00 00 00 00 00... move.l  r23, #0
                         .kcelp_copy_name:
00009A48  01 5D 00 00 20 00 00 00... move.l  r11, #PORT_NAME_LEN
00009A50  44 06 B8 58 38 00 00 00... bge     r23, r11, .kcelp_ok
00009A58  20 C6 B0 B8 00 00 00 00... add     r24, r22, r23
00009A60  10 C8 C0 00 00 00 00 00... load.b  r25, (r24)
00009A68  20 D6 A8 B8 00 00 00 00... add     r26, r21, r23
00009A70  11 C8 D0 00 00 00 00 00... store.b r25, (r26)
00009A78  20 BF B8 00 01 00 00 00... add     r23, r23, #1
00009A80  40 06 00 00 C8 FF FF FF... bra     .kcelp_copy_name
                         .kcelp_ok:
00009A88  01 17 00 00 00 00 00 00... move.q  r2, #ERR_OK
00009A90  51 00 00 00 00 00 00 00... rts
                         .kcelp_nomem:
00009A98  01 17 00 00 01 00 00 00... move.q  r2, #ERR_NOMEM
00009AA0  51 00 00 00 00 00 00 00... rts
                         kern_port_is_exec_library:
00009AA8  10 A1 08 00 01 00 00 00... load.b  r20, KD_PORT_OWNER(r1)
00009AB0  01 5D 00 00 FF 00 00 00... move.l  r11, #0xFF
00009AB8  42 06 A0 58 78 00 00 00... bne     r20, r11, .kpiel_no
00009AC0  20 A7 08 00 08 00 00 00... add     r20, r1, #KD_PORT_NAME
00009AC8  04 AF 00 00 C4 4A 01 00... lea r21, kern_exec_port_name(r0)
00009AD0  01 B5 00 00 00 00 00 00... move.l  r22, #0
                         .kpiel_loop:
00009AD8  01 5D 00 00 20 00 00 00... move.l  r11, #PORT_NAME_LEN
00009AE0  44 06 B0 58 40 00 00 00... bge     r22, r11, .kpiel_match
00009AE8  20 BE A0 B0 00 00 00 00... add     r23, r20, r22
00009AF0  20 C6 A8 B0 00 00 00 00... add     r24, r21, r22
00009AF8  10 C8 B8 00 00 00 00 00... load.b  r25, (r23)
00009B00  10 D0 C0 00 00 00 00 00... load.b  r26, (r24)
00009B08  42 06 C8 D0 28 00 00 00... bne     r25, r26, .kpiel_no
00009B10  20 B7 B0 00 01 00 00 00... add     r22, r22, #1
00009B18  40 06 00 00 C0 FF FF FF... bra     .kpiel_loop
                         .kpiel_match:
00009B20  01 0D 00 00 01 00 00 00... move.l  r1, #1
00009B28  51 00 00 00 00 00 00 00... rts
                         .kpiel_no:
00009B30  01 0E 00 00 00 00 00 00... move.q  r1, r0
00009B38  51 00 00 00 00 00 00 00... rts
                         kern_share_backing_for_handle:
00009B40  01 A6 08 00 00 00 00 00... move.q  r20, r1
00009B48  01 AE 10 00 00 00 00 00... move.q  r21, r2
00009B50  41 06 A0 00 C0 00 00 00... beq r20, r0, .ksbf_badarg
00009B58  30 B7 A0 00 FF 00 00 00... and     r22, r20, #0xFF
00009B60  01 5D 00 00 FF 00 00 00... move.l  r11, #0xFF
00009B68  41 06 B0 58 88 00 00 00... beq     r22, r11, .ksbf_badhandle
00009B70  35 BF A0 00 08 00 00 00... lsr     r23, r20, #8
00009B78  01 0E B0 00 00 00 00 00... move.q  r1, r22
00009B80  50 06 00 00 60 FD FF FF... jsr     kern_shmem_addr_for_id
00009B88  41 06 08 00 68 00 00 00... beq r1, r0, .ksbf_badhandle
00009B90  01 C6 08 00 00 00 00 00... move.q  r24, r1
00009B98  10 58 C0 00 00 00 00 00... load.b  r11, KD_SHM_VALID(r24)
00009BA0  41 06 58 00 50 00 00 00... beq r11, r0, .ksbf_badhandle
00009BA8  10 5D C0 00 08 00 00 00... load.l  r11, KD_SHM_NONCE(r24)
00009BB0  30 5F 58 00 FF FF FF 00... and     r11, r11, #0xFFFFFF
00009BB8  42 06 58 B8 38 00 00 00... bne     r11, r23, .ksbf_badhandle
00009BC0  10 1B C0 00 06 00 00 00... load.w  r3, KD_SHM_PAGES(r24)
00009BC8  42 06 18 A8 48 00 00 00... bne     r3, r21, .ksbf_badarg
00009BD0  10 0B C0 00 04 00 00 00... load.w  r1, KD_SHM_PPN(r24)
00009BD8  34 0F 08 00 0C 00 00 00... lsl     r1, r1, #12
00009BE0  01 17 00 00 00 00 00 00... move.q  r2, #ERR_OK
00009BE8  51 00 00 00 00 00 00 00... rts
                         .ksbf_badhandle:
00009BF0  01 0E 00 00 00 00 00 00... move.q  r1, r0
00009BF8  01 17 00 00 02 00 00 00... move.q  r2, #ERR_BADHANDLE
00009C00  01 1E 00 00 00 00 00 00... move.q  r3, r0
00009C08  51 00 00 00 00 00 00 00... rts
                         .ksbf_badarg:
00009C10  01 0E 00 00 00 00 00 00... move.q  r1, r0
00009C18  01 17 00 00 03 00 00 00... move.q  r2, #ERR_BADARG
00009C20  01 1E 00 00 00 00 00 00... move.q  r3, r0
00009C28  51 00 00 00 00 00 00 00... rts
                         kern_copy_exec_iosm:
00009C30  01 A6 08 00 00 00 00 00... move.q  r20, r1
00009C38  04 AF 00 00 E4 4A 01 00... lea r21, kern_iosm_descriptor(r0)
00009C40  01 B5 00 00 00 00 00 00... move.l  r22, #0
                         .kcei_loop:
00009C48  01 5D 00 00 80 00 00 00... move.l  r11, #IOSM_SIZE
00009C50  44 06 B0 58 38 00 00 00... bge     r22, r11, .kcei_done
00009C58  20 BE A8 B0 00 00 00 00... add     r23, r21, r22
00009C60  10 C6 B8 00 00 00 00 00... load.q  r24, (r23)
00009C68  20 CE A0 B0 00 00 00 00... add     r25, r20, r22
00009C70  11 C6 C8 00 00 00 00 00... store.q r24, (r25)
00009C78  20 B7 B0 00 08 00 00 00... add     r22, r22, #8
00009C80  40 06 00 00 C8 FF FF FF... bra     .kcei_loop
                         .kcei_done:
00009C88  51 00 00 00 00 00 00 00... rts
                         kern_write_resident_list:
00009C90  01 F6 08 00 00 00 00 00... move.q  r30, r1
00009C98  11 06 F0 00 00 00 00 00... store.q r0, (r30)
00009CA0  11 07 F0 00 08 00 00 00... store.q r0, 8(r30)
00009CA8  11 07 F0 00 10 00 00 00... store.q r0, 16(r30)
00009CB0  11 07 F0 00 18 00 00 00... store.q r0, 24(r30)
00009CB8  01 D5 00 00 00 00 00 00... move.l  r26, #0
00009CC0  01 65 00 00 00 D0 08 00... move.l  r12, #KERN_DATA_BASE
00009CC8  20 67 60 00 18 28 00 00... add     r12, r12, #KD_PORT_BASE
00009CD0  01 6D 00 00 00 00 00 00... move.l  r13, #0
                         .kwrl_inline_loop:
00009CD8  01 5D 00 00 20 00 00 00... move.l  r11, #KD_PORT_INLINE_MAX
00009CE0  44 06 68 58 38 00 00 00... bge     r13, r11, .kwrl_overflow_start
00009CE8  01 75 00 00 A8 00 00 00... move.l  r14, #KD_PORT_STRIDE
00009CF0  22 76 68 70 00 00 00 00... mulu    r14, r13, r14
00009CF8  20 7E 60 70 00 00 00 00... add     r15, r12, r14
00009D00  50 06 00 00 C8 00 00 00... jsr     kern_write_resident_list_maybe_row
00009D08  20 6F 68 00 01 00 00 00... add     r13, r13, #1
00009D10  40 06 00 00 C8 FF FF FF... bra     .kwrl_inline_loop
                         .kwrl_overflow_start:
00009D18  01 65 00 00 00 D0 08 00... move.l  r12, #KERN_DATA_BASE
00009D20  20 67 60 00 C8 C8 00 00... add     r12, r12, #KD_PORT_OFLOW_HDR
00009D28  10 6A 60 00 00 00 00 00... load.w  r13, KD_PORT_OFLOW_FIRST_PPN(r12)
00009D30  41 06 68 00 68 00 00 00... beq r13, r0, .kwrl_done
                         .kwrl_overflow_page:
00009D38  34 77 68 00 0C 00 00 00... lsl     r14, r13, #12
00009D40  01 8E 70 00 00 00 00 00... move.q  r17, r14
00009D48  20 7F 70 00 10 00 00 00... add     r15, r14, #KD_PORT_PAGE_HDR_SZ
00009D50  01 95 00 00 00 00 00 00... move.l  r18, #0
                         .kwrl_overflow_row:
00009D58  01 5D 00 00 18 00 00 00... move.l  r11, #KD_PORT_ROWS_PER_PG
00009D60  44 06 90 58 28 00 00 00... bge     r18, r11, .kwrl_overflow_next
00009D68  50 06 00 00 60 00 00 00... jsr     kern_write_resident_list_maybe_row
00009D70  20 7F 78 00 A8 00 00 00... add     r15, r15, #KD_PORT_STRIDE
00009D78  20 97 90 00 01 00 00 00... add     r18, r18, #1
00009D80  40 06 00 00 D8 FF FF FF... bra     .kwrl_overflow_row
                         .kwrl_overflow_next:
00009D88  10 6A 88 00 00 00 00 00... load.w  r13, KD_PORT_PAGE_NEXT(r17)
00009D90  42 06 68 00 A8 FF FF FF... bne r13, r0, .kwrl_overflow_page
                         .kwrl_done:
00009D98  11 D4 F0 00 00 00 00 00... store.l r26, (r30)
00009DA0  01 0E D0 00 00 00 00 00... move.q  r1, r26
00009DA8  01 16 D0 00 00 00 00 00... move.q  r2, r26
00009DB0  20 17 10 00 01 00 00 00... add     r2, r2, #1
00009DB8  34 17 10 00 05 00 00 00... lsl     r2, r2, #5
00009DC0  51 00 00 00 00 00 00 00... rts
                         kern_write_resident_list_maybe_row:
00009DC8  01 5D 00 00 7F 00 00 00... move.l  r11, #127
00009DD0  44 06 D0 58 A8 00 00 00... bge     r26, r11, .kwrlmr_done
00009DD8  10 80 78 00 00 00 00 00... load.b  r16, KD_PORT_VALID(r15)
00009DE0  41 06 80 00 98 00 00 00... beq r16, r0, .kwrlmr_done
00009DE8  10 81 78 00 05 00 00 00... load.b  r16, KD_PORT_FLAGS(r15)
00009DF0  30 87 80 00 01 00 00 00... and     r16, r16, #PF_PUBLIC
00009DF8  41 06 80 00 80 00 00 00... beq r16, r0, .kwrlmr_done
00009E00  01 A6 D0 00 00 00 00 00... move.q  r20, r26
00009E08  20 A7 A0 00 01 00 00 00... add     r20, r20, #1
00009E10  34 A7 A0 00 05 00 00 00... lsl     r20, r20, #5
00009E18  20 A6 F0 A0 00 00 00 00... add     r20, r30, r20
00009E20  20 AF 78 00 08 00 00 00... add     r21, r15, #KD_PORT_NAME
00009E28  01 B5 00 00 00 00 00 00... move.l  r22, #0
                         .kwrlmr_copy:
00009E30  01 5D 00 00 20 00 00 00... move.l  r11, #PORT_NAME_LEN
00009E38  44 06 B0 58 38 00 00 00... bge     r22, r11, .kwrlmr_count
00009E40  20 BE A8 B0 00 00 00 00... add     r23, r21, r22
00009E48  10 C0 B8 00 00 00 00 00... load.b  r24, (r23)
00009E50  20 CE A0 B0 00 00 00 00... add     r25, r20, r22
00009E58  11 C0 C8 00 00 00 00 00... store.b r24, (r25)
00009E60  20 B7 B0 00 01 00 00 00... add     r22, r22, #1
00009E68  40 06 00 00 C8 FF FF FF... bra     .kwrlmr_copy
                         .kwrlmr_count:
00009E70  20 D7 D0 00 01 00 00 00... add     r26, r26, #1
                         .kwrlmr_done:
00009E78  51 00 00 00 00 00 00 00... rts
                         kern_write_resident_inventory:
00009E80  01 F6 08 00 00 00 00 00... move.q  r30, r1
00009E88  01 A5 00 00 00 00 00 00... move.l  r20, #0
                         .kwri_clear:
00009E90  01 5D 00 00 00 10 00 00... move.l  r11, #4096
00009E98  44 06 A0 58 28 00 00 00... bge     r20, r11, .kwri_header
00009EA0  20 AE F0 A0 00 00 00 00... add     r21, r30, r20
00009EA8  11 06 A8 00 00 00 00 00... store.q r0, (r21)
00009EB0  20 A7 A0 00 08 00 00 00... add     r20, r20, #8
00009EB8  40 06 00 00 D8 FF FF FF... bra     .kwri_clear
                         .kwri_header:
00009EC0  01 5D 00 00 52 53 49 56... move.l  r11, #RSIV_MAGIC
00009EC8  11 5C F0 00 00 00 00 00... store.l r11, (r30)
00009ED0  01 5D 00 00 01 00 00 00... move.l  r11, #RSIV_VERSION
00009ED8  11 5B F0 00 04 00 00 00... store.w r11, 4(r30)
00009EE0  01 5D 00 00 20 00 00 00... move.l  r11, #RSIV_HEADER_SIZE
00009EE8  11 5B F0 00 06 00 00 00... store.w r11, 6(r30)
00009EF0  01 5D 00 00 40 00 00 00... move.l  r11, #RSIV_RECORD_SIZE
00009EF8  11 5B F0 00 08 00 00 00... store.w r11, 8(r30)
00009F00  01 D5 00 00 00 00 00 00... move.l  r26, #0
00009F08  01 DD 00 00 00 00 00 00... move.l  r27, #0
00009F10  01 65 00 00 00 D0 08 00... move.l  r12, #KERN_DATA_BASE
00009F18  20 67 60 00 50 06 01 00... add     r12, r12, #KD_MODULE_TABLE
00009F20  01 6D 00 00 00 00 00 00... move.l  r13, #0
                         .kwri_loop:
00009F28  01 5D 00 00 10 00 00 00... move.l  r11, #KD_MODULE_MAX
00009F30  44 06 68 58 38 00 00 00... bge     r13, r11, .kwri_done
00009F38  01 75 00 00 50 00 00 00... move.l  r14, #KD_MODULE_ROW_STRIDE
00009F40  22 76 68 70 00 00 00 00... mulu    r14, r13, r14
00009F48  20 7E 60 70 00 00 00 00... add     r15, r12, r14
00009F50  50 06 00 00 58 00 00 00... jsr     kern_write_resident_inventory_maybe_row
00009F58  20 6F 68 00 01 00 00 00... add     r13, r13, #1
00009F60  40 06 00 00 C8 FF FF FF... bra     .kwri_loop
                         .kwri_done:
00009F68  11 D5 F0 00 0C 00 00 00... store.l r26, 12(r30)
00009F70  01 16 D0 00 00 00 00 00... move.q  r2, r26
00009F78  34 17 10 00 06 00 00 00... lsl     r2, r2, #6
00009F80  20 17 10 00 20 00 00 00... add     r2, r2, #RSIV_HEADER_SIZE
00009F88  11 15 F0 00 10 00 00 00... store.l r2, 16(r30)
00009F90  11 DD F0 00 14 00 00 00... store.l r27, 20(r30)
00009F98  01 0E D0 00 00 00 00 00... move.q  r1, r26
00009FA0  51 00 00 00 00 00 00 00... rts
                         kern_write_resident_inventory_maybe_row:
00009FA8  10 85 78 00 20 00 00 00... load.l  r16, KD_MODULE_STATE(r15)
00009FB0  01 5D 00 00 00 00 00 00... move.l  r11, #M16_MODSTATE_UNLOADED
00009FB8  41 06 80 58 40 01 00 00... beq     r16, r11, .kwrimr_done
00009FC0  10 8D 78 00 3C 00 00 00... load.l  r17, KD_MODULE_FLAGS(r15)
00009FC8  01 96 88 00 00 00 00 00... move.q  r18, r17
00009FD0  30 97 90 00 01 00 00 00... and     r18, r18, #MODF_RESIDENT
00009FD8  41 06 90 00 20 01 00 00... beq r18, r0, .kwrimr_done
00009FE0  01 5D 00 00 3F 00 00 00... move.l  r11, #63
00009FE8  43 06 D0 58 18 00 00 00... blt     r26, r11, .kwrimr_emit
00009FF0  31 DF D8 00 01 00 00 00... or      r27, r27, #RSIV_FLAG_TRUNCATED
00009FF8  40 06 00 00 00 01 00 00... bra     .kwrimr_done
                         .kwrimr_emit:
0000A000  01 A6 D0 00 00 00 00 00... move.q  r20, r26
0000A008  34 A7 A0 00 06 00 00 00... lsl     r20, r20, #6
0000A010  20 A7 A0 00 20 00 00 00... add     r20, r20, #RSIV_HEADER_SIZE
0000A018  20 A6 F0 A0 00 00 00 00... add     r20, r30, r20
0000A020  20 AF 78 00 00 00 00 00... add     r21, r15, #KD_MODULE_NAME
0000A028  01 B5 00 00 00 00 00 00... move.l  r22, #0
                         .kwrimr_copy_name:
0000A030  01 5D 00 00 20 00 00 00... move.l  r11, #32
0000A038  44 06 B0 58 38 00 00 00... bge     r22, r11, .kwrimr_fields
0000A040  20 BE A8 B0 00 00 00 00... add     r23, r21, r22
0000A048  10 C0 B8 00 00 00 00 00... load.b  r24, (r23)
0000A050  20 CE A0 B0 00 00 00 00... add     r25, r20, r22
0000A058  11 C0 C8 00 00 00 00 00... store.b r24, (r25)
0000A060  20 B7 B0 00 01 00 00 00... add     r22, r22, #1
0000A068  40 06 00 00 C8 FF FF FF... bra     .kwrimr_copy_name
                         .kwrimr_fields:
0000A070  10 95 78 00 2C 00 00 00... load.l  r18, KD_MODULE_CLASS(r15)
0000A078  11 91 A0 00 20 00 00 00... store.b r18, 32(r20)
0000A080  11 91 A0 00 21 00 00 00... store.b r18, 33(r20)
0000A088  11 81 A0 00 22 00 00 00... store.b r16, 34(r20)
0000A090  01 9D 00 00 03 00 00 00... move.l  r19, #3
0000A098  11 99 A0 00 23 00 00 00... store.b r19, 35(r20)
0000A0A0  10 9B 78 00 28 00 00 00... load.w  r19, KD_MODULE_VERSION(r15)
0000A0A8  11 9B A0 00 24 00 00 00... store.w r19, 36(r20)
0000A0B0  10 9B 78 00 2A 00 00 00... load.w  r19, KD_MODULE_REVISION(r15)
0000A0B8  11 9B A0 00 26 00 00 00... store.w r19, 38(r20)
0000A0C0  11 03 A0 00 28 00 00 00... store.w r0, 40(r20)
0000A0C8  11 8D A0 00 2C 00 00 00... store.l r17, 44(r20)
0000A0D0  10 9D 78 00 38 00 00 00... load.l  r19, KD_MODULE_OPEN_COUNT(r15)
0000A0D8  11 9D A0 00 30 00 00 00... store.l r19, 48(r20)
0000A0E0  10 9D 78 00 24 00 00 00... load.l  r19, KD_MODULE_GENERATION(r15)
0000A0E8  11 9D A0 00 34 00 00 00... store.l r19, 52(r20)
0000A0F0  20 D7 D0 00 01 00 00 00... add     r26, r26, #1
                         .kwrimr_done:
0000A0F8  51 00 00 00 00 00 00 00... rts
                         kern_port_alloc_slot:
0000A100  01 25 00 00 00 D0 08 00... move.l  r4, #KERN_DATA_BASE
0000A108  20 27 20 00 18 28 00 00... add     r4, r4, #KD_PORT_BASE
0000A110  01 2D 00 00 00 00 00 00... move.l  r5, #0
                         .kpas_inline_scan:
0000A118  01 35 00 00 20 00 00 00... move.l  r6, #KD_PORT_INLINE_MAX
0000A120  44 06 28 30 58 00 00 00... bge     r5, r6, .kpas_oflow
0000A128  01 35 00 00 A8 00 00 00... move.l  r6, #KD_PORT_STRIDE
0000A130  22 36 28 30 00 00 00 00... mulu    r6, r5, r6
0000A138  20 3E 20 30 00 00 00 00... add     r7, r4, r6
0000A140  10 40 38 00 00 00 00 00... load.b  r8, KD_PORT_VALID(r7)
0000A148  41 06 40 00 18 00 00 00... beq r8, r0, .kpas_inline_found
0000A150  20 2F 28 00 01 00 00 00... add     r5, r5, #1
0000A158  40 06 00 00 C0 FF FF FF... bra     .kpas_inline_scan
                         .kpas_inline_found:
0000A160  01 0E 38 00 00 00 00 00... move.q  r1, r7
0000A168  01 16 28 00 00 00 00 00... move.q  r2, r5
0000A170  51 00 00 00 00 00 00 00... rts
                         .kpas_oflow:
0000A178  01 25 00 00 00 D0 08 00... move.l  r4, #KERN_DATA_BASE
0000A180  20 27 20 00 C8 C8 00 00... add     r4, r4, #KD_PORT_OFLOW_HDR
0000A188  10 2A 20 00 00 00 00 00... load.w  r5, KD_PORT_OFLOW_FIRST_PPN(r4)
0000A190  01 35 00 00 20 00 00 00... move.l  r6, #KD_PORT_INLINE_MAX
0000A198  41 06 28 00 A8 00 00 00... beq r5, r0, .kpas_alloc_new
                         .kpas_walk_page:
0000A1A0  34 3F 28 00 0C 00 00 00... lsl     r7, r5, #12
0000A1A8  01 46 38 00 00 00 00 00... move.q  r8, r7
0000A1B0  20 47 40 00 10 00 00 00... add     r8, r8, #KD_PORT_PAGE_HDR_SZ
0000A1B8  01 4D 00 00 00 00 00 00... move.l  r9, #0
                         .kpas_walk_row:
0000A1C0  01 55 00 00 18 00 00 00... move.l  r10, #KD_PORT_ROWS_PER_PG
0000A1C8  44 06 48 50 38 00 00 00... bge     r9, r10, .kpas_walk_next_page
0000A1D0  10 58 40 00 00 00 00 00... load.b  r11, KD_PORT_VALID(r8)
0000A1D8  41 06 58 00 40 00 00 00... beq r11, r0, .kpas_oflow_found
0000A1E0  20 47 40 00 A8 00 00 00... add     r8, r8, #KD_PORT_STRIDE
0000A1E8  20 4F 48 00 01 00 00 00... add     r9, r9, #1
0000A1F0  20 37 30 00 01 00 00 00... add     r6, r6, #1
0000A1F8  40 06 00 00 C8 FF FF FF... bra     .kpas_walk_row
                         .kpas_walk_next_page:
0000A200  10 2A 38 00 00 00 00 00... load.w  r5, KD_PORT_PAGE_NEXT(r7)
0000A208  42 06 28 00 98 FF FF FF... bne r5, r0, .kpas_walk_page
0000A210  40 06 00 00 30 00 00 00... bra     .kpas_alloc_new
                         .kpas_oflow_found:
0000A218  01 55 00 00 FF 00 00 00... move.l  r10, #0xFF
0000A220  44 06 30 50 38 01 00 00... bge     r6, r10, .kpas_nomem
0000A228  01 0E 40 00 00 00 00 00... move.q  r1, r8
0000A230  01 16 30 00 00 00 00 00... move.q  r2, r6
0000A238  51 00 00 00 00 00 00 00... rts
                         .kpas_alloc_new:
0000A240  01 55 00 00 FF 00 00 00... move.l  r10, #0xFF
0000A248  44 06 30 50 10 01 00 00... bge     r6, r10, .kpas_nomem
0000A250  52 06 30 00 00 00 00 00... push    r6
0000A258  01 0D 00 00 01 00 00 00... move.l  r1, #1
0000A260  50 06 00 00 88 E3 FF FF... jsr     alloc_pages
0000A268  53 36 00 00 00 00 00 00... pop     r6
0000A270  42 06 10 00 E8 00 00 00... bne r2, r0, .kpas_nomem
0000A278  01 66 08 00 00 00 00 00... move.q  r12, r1
0000A280  34 3F 08 00 0C 00 00 00... lsl     r7, r1, #12
0000A288  01 46 38 00 00 00 00 00... move.q  r8, r7
0000A290  01 4D 00 00 00 10 00 00... move.l  r9, #4096
0000A298  20 4E 48 38 00 00 00 00... add     r9, r9, r7
                         .kpas_zero:
0000A2A0  44 06 40 48 20 00 00 00... bge     r8, r9, .kpas_zdone
0000A2A8  11 06 40 00 00 00 00 00... store.q r0, (r8)
0000A2B0  20 47 40 00 08 00 00 00... add     r8, r8, #8
0000A2B8  40 06 00 00 E8 FF FF FF... bra     .kpas_zero
                         .kpas_zdone:
0000A2C0  01 25 00 00 00 D0 08 00... move.l  r4, #KERN_DATA_BASE
0000A2C8  20 27 20 00 C8 C8 00 00... add     r4, r4, #KD_PORT_OFLOW_HDR
0000A2D0  10 2A 20 00 00 00 00 00... load.w  r5, KD_PORT_OFLOW_FIRST_PPN(r4)
0000A2D8  42 06 28 00 18 00 00 00... bne r5, r0, .kpas_walk_tail
0000A2E0  11 62 20 00 00 00 00 00... store.w r12, KD_PORT_OFLOW_FIRST_PPN(r4)
0000A2E8  40 06 00 00 38 00 00 00... bra     .kpas_link_done
                         .kpas_walk_tail:
0000A2F0  34 3F 28 00 0C 00 00 00... lsl     r7, r5, #12
0000A2F8  10 42 38 00 00 00 00 00... load.w  r8, KD_PORT_PAGE_NEXT(r7)
0000A300  41 06 40 00 18 00 00 00... beq r8, r0, .kpas_at_tail
0000A308  01 2E 40 00 00 00 00 00... move.q  r5, r8
0000A310  40 06 00 00 E0 FF FF FF... bra     .kpas_walk_tail
                         .kpas_at_tail:
0000A318  11 62 38 00 00 00 00 00... store.w r12, KD_PORT_PAGE_NEXT(r7)
                         .kpas_link_done:
0000A320  10 43 20 00 04 00 00 00... load.w  r8, KD_PORT_OFLOW_PAGES(r4)
0000A328  20 47 40 00 01 00 00 00... add     r8, r8, #1
0000A330  11 43 20 00 04 00 00 00... store.w r8, KD_PORT_OFLOW_PAGES(r4)
0000A338  34 3F 60 00 0C 00 00 00... lsl     r7, r12, #12
0000A340  20 0F 38 00 10 00 00 00... add     r1, r7, #KD_PORT_PAGE_HDR_SZ
0000A348  01 16 30 00 00 00 00 00... move.q  r2, r6
0000A350  51 00 00 00 00 00 00 00... rts
                         .kpas_nomem:
0000A358  01 0E 00 00 00 00 00 00... move.q  r1, r0
0000A360  01 16 00 00 00 00 00 00... move.q  r2, r0
0000A368  51 00 00 00 00 00 00 00... rts
                         kern_port_addr_for_id:
0000A370  01 1D 00 00 FF 00 00 00... move.l  r3, #0xFF
0000A378  44 06 08 18 E8 00 00 00... bge     r1, r3, .kpai_notfound
0000A380  01 1D 00 00 20 00 00 00... move.l  r3, #KD_PORT_INLINE_MAX
0000A388  44 06 08 18 38 00 00 00... bge     r1, r3, .kpai_oflow
0000A390  01 1D 00 00 A8 00 00 00... move.l  r3, #KD_PORT_STRIDE
0000A398  22 1E 08 18 00 00 00 00... mulu    r3, r1, r3
0000A3A0  01 25 00 00 00 D0 08 00... move.l  r4, #KERN_DATA_BASE
0000A3A8  20 27 20 00 18 28 00 00... add     r4, r4, #KD_PORT_BASE
0000A3B0  20 0E 20 18 00 00 00 00... add     r1, r4, r3
0000A3B8  51 00 00 00 00 00 00 00... rts
                         .kpai_oflow:
0000A3C0  21 0F 08 00 20 00 00 00... sub     r1, r1, #KD_PORT_INLINE_MAX
0000A3C8  01 1D 00 00 18 00 00 00... move.l  r3, #KD_PORT_ROWS_PER_PG
0000A3D0  24 26 08 18 00 00 00 00... divu    r4, r1, r3
0000A3D8  22 2E 20 18 00 00 00 00... mulu    r5, r4, r3
0000A3E0  21 2E 08 28 00 00 00 00... sub     r5, r1, r5
0000A3E8  01 35 00 00 00 D0 08 00... move.l  r6, #KERN_DATA_BASE
0000A3F0  20 37 30 00 C8 C8 00 00... add     r6, r6, #KD_PORT_OFLOW_HDR
0000A3F8  10 3A 30 00 00 00 00 00... load.w  r7, KD_PORT_OFLOW_FIRST_PPN(r6)
                         .kpai_walk:
0000A400  41 06 38 00 60 00 00 00... beq r7, r0, .kpai_notfound
0000A408  41 06 20 00 28 00 00 00... beq r4, r0, .kpai_at_page
0000A410  34 47 38 00 0C 00 00 00... lsl     r8, r7, #12
0000A418  10 3A 40 00 00 00 00 00... load.w  r7, KD_PORT_PAGE_NEXT(r8)
0000A420  21 27 20 00 01 00 00 00... sub     r4, r4, #1
0000A428  40 06 00 00 D8 FF FF FF... bra     .kpai_walk
                         .kpai_at_page:
0000A430  34 47 38 00 0C 00 00 00... lsl     r8, r7, #12
0000A438  01 4D 00 00 A8 00 00 00... move.l  r9, #KD_PORT_STRIDE
0000A440  22 4E 28 48 00 00 00 00... mulu    r9, r5, r9
0000A448  20 0F 40 00 10 00 00 00... add     r1, r8, #KD_PORT_PAGE_HDR_SZ
0000A450  20 0E 08 48 00 00 00 00... add     r1, r1, r9
0000A458  51 00 00 00 00 00 00 00... rts
                         .kpai_notfound:
0000A460  01 0E 00 00 00 00 00 00... move.q  r1, r0
0000A468  51 00 00 00 00 00 00 00... rts
                         kern_port_find_public:
0000A470  01 25 00 00 00 D0 08 00... move.l  r4, #KERN_DATA_BASE
0000A478  20 27 20 00 18 28 00 00... add     r4, r4, #KD_PORT_BASE
0000A480  01 2D 00 00 00 00 00 00... move.l  r5, #0
                         .kpfp_inline_scan:
0000A488  01 35 00 00 20 00 00 00... move.l  r6, #KD_PORT_INLINE_MAX
0000A490  44 06 28 30 D0 00 00 00... bge     r5, r6, .kpfp_oflow
0000A498  01 35 00 00 A8 00 00 00... move.l  r6, #KD_PORT_STRIDE
0000A4A0  22 36 28 30 00 00 00 00... mulu    r6, r5, r6
0000A4A8  20 3E 20 30 00 00 00 00... add     r7, r4, r6
0000A4B0  10 40 38 00 00 00 00 00... load.b  r8, KD_PORT_VALID(r7)
0000A4B8  41 06 40 00 80 00 00 00... beq r8, r0, .kpfp_inline_next
0000A4C0  10 41 38 00 05 00 00 00... load.b  r8, KD_PORT_FLAGS(r7)
0000A4C8  30 47 40 00 01 00 00 00... and     r8, r8, #PF_PUBLIC
0000A4D0  41 06 40 00 68 00 00 00... beq r8, r0, .kpfp_inline_next
0000A4D8  01 C6 38 00 00 00 00 00... move.q  r24, r7
0000A4E0  20 C7 C0 00 08 00 00 00... add     r24, r24, #KD_PORT_NAME
0000A4E8  01 CD 00 00 00 D0 08 00... move.l  r25, #KERN_DATA_BASE
0000A4F0  20 CF C8 00 20 00 00 00... add     r25, r25, #KD_NAME_SCRATCH
0000A4F8  52 06 20 00 00 00 00 00... push    r4
0000A500  52 06 28 00 00 00 00 00... push    r5
0000A508  52 06 38 00 00 00 00 00... push    r7
0000A510  50 06 00 00 68 06 00 00... jsr     case_insensitive_cmp
0000A518  53 3E 00 00 00 00 00 00... pop     r7
0000A520  53 2E 00 00 00 00 00 00... pop     r5
0000A528  53 26 00 00 00 00 00 00... pop     r4
0000A530  41 06 B8 00 18 00 00 00... beq r23, r0, .kpfp_inline_match
                         .kpfp_inline_next:
0000A538  20 2F 28 00 01 00 00 00... add     r5, r5, #1
0000A540  40 06 00 00 48 FF FF FF... bra     .kpfp_inline_scan
                         .kpfp_inline_match:
0000A548  01 0E 38 00 00 00 00 00... move.q  r1, r7
0000A550  01 16 28 00 00 00 00 00... move.q  r2, r5
0000A558  51 00 00 00 00 00 00 00... rts
                         .kpfp_oflow:
0000A560  01 25 00 00 00 D0 08 00... move.l  r4, #KERN_DATA_BASE
0000A568  20 27 20 00 C8 C8 00 00... add     r4, r4, #KD_PORT_OFLOW_HDR
0000A570  10 52 20 00 00 00 00 00... load.w  r10, KD_PORT_OFLOW_FIRST_PPN(r4)
0000A578  41 06 50 00 38 01 00 00... beq r10, r0, .kpfp_notfound
0000A580  01 5D 00 00 20 00 00 00... move.l  r11, #KD_PORT_INLINE_MAX
                         .kpfp_walk_page:
0000A588  34 67 50 00 0C 00 00 00... lsl     r12, r10, #12
0000A590  01 3E 60 00 00 00 00 00... move.q  r7, r12
0000A598  20 3F 38 00 10 00 00 00... add     r7, r7, #KD_PORT_PAGE_HDR_SZ
0000A5A0  01 4D 00 00 00 00 00 00... move.l  r9, #0
                         .kpfp_walk_row:
0000A5A8  01 35 00 00 18 00 00 00... move.l  r6, #KD_PORT_ROWS_PER_PG
0000A5B0  44 06 48 30 D0 00 00 00... bge     r9, r6, .kpfp_walk_next_page
0000A5B8  10 40 38 00 00 00 00 00... load.b  r8, KD_PORT_VALID(r7)
0000A5C0  41 06 40 00 A0 00 00 00... beq r8, r0, .kpfp_walk_skip
0000A5C8  10 41 38 00 05 00 00 00... load.b  r8, KD_PORT_FLAGS(r7)
0000A5D0  30 47 40 00 01 00 00 00... and     r8, r8, #PF_PUBLIC
0000A5D8  41 06 40 00 88 00 00 00... beq r8, r0, .kpfp_walk_skip
0000A5E0  01 C6 38 00 00 00 00 00... move.q  r24, r7
0000A5E8  20 C7 C0 00 08 00 00 00... add     r24, r24, #KD_PORT_NAME
0000A5F0  01 CD 00 00 00 D0 08 00... move.l  r25, #KERN_DATA_BASE
0000A5F8  20 CF C8 00 20 00 00 00... add     r25, r25, #KD_NAME_SCRATCH
0000A600  52 06 38 00 00 00 00 00... push    r7
0000A608  52 06 48 00 00 00 00 00... push    r9
0000A610  52 06 50 00 00 00 00 00... push    r10
0000A618  52 06 58 00 00 00 00 00... push    r11
0000A620  52 06 60 00 00 00 00 00... push    r12
0000A628  50 06 00 00 50 05 00 00... jsr     case_insensitive_cmp
0000A630  53 66 00 00 00 00 00 00... pop     r12
0000A638  53 5E 00 00 00 00 00 00... pop     r11
0000A640  53 56 00 00 00 00 00 00... pop     r10
0000A648  53 4E 00 00 00 00 00 00... pop     r9
0000A650  53 3E 00 00 00 00 00 00... pop     r7
0000A658  41 06 B8 00 40 00 00 00... beq r23, r0, .kpfp_oflow_match
                         .kpfp_walk_skip:
0000A660  20 3F 38 00 A8 00 00 00... add     r7, r7, #KD_PORT_STRIDE
0000A668  20 4F 48 00 01 00 00 00... add     r9, r9, #1
0000A670  20 5F 58 00 01 00 00 00... add     r11, r11, #1
0000A678  40 06 00 00 30 FF FF FF... bra     .kpfp_walk_row
                         .kpfp_walk_next_page:
0000A680  10 52 60 00 00 00 00 00... load.w  r10, KD_PORT_PAGE_NEXT(r12)
0000A688  42 06 50 00 00 FF FF FF... bne r10, r0, .kpfp_walk_page
0000A690  40 06 00 00 20 00 00 00... bra     .kpfp_notfound
                         .kpfp_oflow_match:
0000A698  01 0E 38 00 00 00 00 00... move.q  r1, r7
0000A6A0  01 16 58 00 00 00 00 00... move.q  r2, r11
0000A6A8  51 00 00 00 00 00 00 00... rts
                         .kpfp_notfound:
0000A6B0  01 0E 00 00 00 00 00 00... move.q  r1, r0
0000A6B8  01 16 00 00 00 00 00 00... move.q  r2, r0
0000A6C0  51 00 00 00 00 00 00 00... rts
                         map_pages:
0000A6C8  01 35 00 00 00 00 00 00... move.l  r6, #0
                         .mp_loop:
0000A6D0  44 06 30 20 58 00 00 00... bge     r6, r4, .mp_done
0000A6D8  20 3E 18 30 00 00 00 00... add     r7, r3, r6
0000A6E0  34 47 38 00 0D 00 00 00... lsl     r8, r7, #13
0000A6E8  31 46 40 28 00 00 00 00... or      r8, r8, r5
0000A6F0  35 4F 10 00 0C 00 00 00... lsr     r9, r2, #12
0000A6F8  20 4E 48 30 00 00 00 00... add     r9, r9, r6
0000A700  34 4F 48 00 03 00 00 00... lsl     r9, r9, #3
0000A708  20 4E 48 08 00 00 00 00... add     r9, r9, r1
0000A710  11 46 48 00 00 00 00 00... store.q r8, (r9)
0000A718  20 37 30 00 01 00 00 00... add     r6, r6, #1
0000A720  40 06 00 00 B0 FF FF FF... bra     .mp_loop
                         .mp_done:
0000A728  51 00 00 00 00 00 00 00... rts
                         unmap_pages:
0000A730  01 25 00 00 00 00 00 00... move.l  r4, #0
                         .ump_loop:
0000A738  44 06 20 18 40 00 00 00... bge     r4, r3, .ump_done
0000A740  35 2F 10 00 0C 00 00 00... lsr     r5, r2, #12
0000A748  20 2E 28 20 00 00 00 00... add     r5, r5, r4
0000A750  34 2F 28 00 03 00 00 00... lsl     r5, r5, #3
0000A758  20 2E 28 08 00 00 00 00... add     r5, r5, r1
0000A760  11 06 28 00 00 00 00 00... store.q r0, (r5)
0000A768  20 27 20 00 01 00 00 00... add     r4, r4, #1
0000A770  40 06 00 00 C8 FF FF FF... bra     .ump_loop
                         .ump_done:
0000A778  51 00 00 00 00 00 00 00... rts
                         find_free_va:
0000A780  52 06 08 00 00 00 00 00... push    r1
0000A788  01 25 00 00 00 00 A0 00... move.l  r4, #USER_DYN_BASE
0000A790  01 2D 00 00 00 00 20 01... move.l  r5, #USER_DYN_END
0000A798  01 35 00 00 00 D0 08 00... move.l  r6, #KERN_DATA_BASE
0000A7A0  01 3D 00 00 80 00 00 00... move.l  r7, #KD_REGION_TASK_SZ
0000A7A8  22 3E 08 38 00 00 00 00... mulu    r7, r1, r7
0000A7B0  20 37 30 00 38 40 00 00... add     r6, r6, #KD_REGION_TABLE
0000A7B8  20 36 30 38 00 00 00 00... add     r6, r6, r7
0000A7C0  34 3F 10 00 0C 00 00 00... lsl     r7, r2, #12
0000A7C8  01 46 20 00 00 00 00 00... move.q  r8, r4
                         .ffv_try:
0000A7D0  20 4E 40 38 00 00 00 00... add     r9, r8, r7
0000A7D8  45 06 48 28 F8 01 00 00... bgt     r9, r5, .ffv_fail
0000A7E0  01 55 00 00 00 00 00 00... move.l  r10, #0
                         .ffv_check_region:
0000A7E8  01 5D 00 00 08 00 00 00... move.l  r11, #KD_REGION_INLINE_MAX
0000A7F0  44 06 50 58 A8 00 00 00... bge     r10, r11, .ffv_check_overflow
0000A7F8  01 65 00 00 10 00 00 00... move.l  r12, #KD_REGION_STRIDE
0000A800  22 66 50 60 00 00 00 00... mulu    r12, r10, r12
0000A808  20 66 60 30 00 00 00 00... add     r12, r12, r6
0000A810  10 69 60 00 08 00 00 00... load.b  r13, KD_REG_TYPE(r12)
0000A818  41 06 68 00 70 00 00 00... beq r13, r0, .ffv_next_region
0000A820  10 74 60 00 00 00 00 00... load.l  r14, KD_REG_VA(r12)
0000A828  10 7B 60 00 06 00 00 00... load.w  r15, KD_REG_PAGES(r12)
0000A830  34 7F 78 00 0C 00 00 00... lsl     r15, r15, #12
0000A838  20 86 70 78 00 00 00 00... add     r16, r14, r15
0000A840  10 79 60 00 0A 00 00 00... load.b  r15, KD_REG_FLAGS(r12)
0000A848  30 7F 78 00 02 00 00 00... and     r15, r15, #MEMF_GUARD
0000A850  41 06 78 00 18 00 00 00... beq r15, r0, .ffv_inline_span_ready
0000A858  21 77 70 00 00 10 00 00... sub     r14, r14, #MMU_PAGE_SIZE
0000A860  20 87 80 00 00 10 00 00... add     r16, r16, #MMU_PAGE_SIZE
                         .ffv_inline_span_ready:
0000A868  44 06 40 80 20 00 00 00... bge     r8, r16, .ffv_next_region
0000A870  44 06 70 48 18 00 00 00... bge     r14, r9, .ffv_next_region
0000A878  01 46 80 00 00 00 00 00... move.q  r8, r16
0000A880  40 06 00 00 50 FF FF FF... bra     .ffv_try
                         .ffv_next_region:
0000A888  20 57 50 00 01 00 00 00... add     r10, r10, #1
0000A890  40 06 00 00 58 FF FF FF... bra     .ffv_check_region
                         .ffv_check_overflow:
0000A898  10 8E F8 00 00 00 00 00... load.q  r17, (sp)
0000A8A0  01 55 00 00 00 D0 08 00... move.l  r10, #KERN_DATA_BASE
0000A8A8  20 57 50 00 C8 C0 00 00... add     r10, r10, #KD_REGION_OVERFLOW_HEAD
0000A8B0  01 5D 00 00 08 00 00 00... move.l  r11, #KD_REGION_OFLOW_STRIDE
0000A8B8  22 5E 88 58 00 00 00 00... mulu    r11, r17, r11
0000A8C0  20 56 50 58 00 00 00 00... add     r10, r10, r11
0000A8C8  10 5A 50 00 00 00 00 00... load.w  r11, KD_REGION_OFLOW_FIRST_PPN(r10)
0000A8D0  41 06 58 00 E0 00 00 00... beq r11, r0, .ffv_found
                         .ffv_oflow_page:
0000A8D8  34 67 58 00 0C 00 00 00... lsl     r12, r11, #12
0000A8E0  01 6E 60 00 00 00 00 00... move.q  r13, r12
0000A8E8  20 6F 68 00 10 00 00 00... add     r13, r13, #KD_REGION_PAGE_HDR_SZ
0000A8F0  01 55 00 00 00 00 00 00... move.l  r10, #0
                         .ffv_oflow_row:
0000A8F8  01 8D 00 00 FF 00 00 00... move.l  r17, #KD_REGION_ROWS_PER_PG
0000A900  44 06 50 88 98 00 00 00... bge     r10, r17, .ffv_oflow_next_page
0000A908  10 89 68 00 08 00 00 00... load.b  r17, KD_REG_TYPE(r13)
0000A910  41 06 88 00 70 00 00 00... beq r17, r0, .ffv_oflow_skip
0000A918  10 74 68 00 00 00 00 00... load.l  r14, KD_REG_VA(r13)
0000A920  10 7B 68 00 06 00 00 00... load.w  r15, KD_REG_PAGES(r13)
0000A928  34 7F 78 00 0C 00 00 00... lsl     r15, r15, #12
0000A930  20 86 70 78 00 00 00 00... add     r16, r14, r15
0000A938  10 79 68 00 0A 00 00 00... load.b  r15, KD_REG_FLAGS(r13)
0000A940  30 7F 78 00 02 00 00 00... and     r15, r15, #MEMF_GUARD
0000A948  41 06 78 00 18 00 00 00... beq r15, r0, .ffv_oflow_span_ready
0000A950  21 77 70 00 00 10 00 00... sub     r14, r14, #MMU_PAGE_SIZE
0000A958  20 87 80 00 00 10 00 00... add     r16, r16, #MMU_PAGE_SIZE
                         .ffv_oflow_span_ready:
0000A960  44 06 40 80 20 00 00 00... bge     r8, r16, .ffv_oflow_skip
0000A968  44 06 70 48 18 00 00 00... bge     r14, r9, .ffv_oflow_skip
0000A970  01 46 80 00 00 00 00 00... move.q  r8, r16
0000A978  40 06 00 00 58 FE FF FF... bra     .ffv_try
                         .ffv_oflow_skip:
0000A980  20 6F 68 00 10 00 00 00... add     r13, r13, #KD_REGION_STRIDE
0000A988  20 57 50 00 01 00 00 00... add     r10, r10, #1
0000A990  40 06 00 00 68 FF FF FF... bra     .ffv_oflow_row
                         .ffv_oflow_next_page:
0000A998  10 5A 60 00 00 00 00 00... load.w  r11, KD_REGION_PAGE_NEXT(r12)
0000A9A0  42 06 58 00 38 FF FF FF... bne r11, r0, .ffv_oflow_page
0000A9A8  40 06 00 00 08 00 00 00... bra     .ffv_found
                         .ffv_found:
0000A9B0  53 16 00 00 00 00 00 00... pop     r2
0000A9B8  01 0E 40 00 00 00 00 00... move.q  r1, r8
0000A9C0  01 17 00 00 00 00 00 00... move.q  r2, #ERR_OK
0000A9C8  51 00 00 00 00 00 00 00... rts
                         .ffv_fail:
0000A9D0  53 16 00 00 00 00 00 00... pop     r2
0000A9D8  01 0F 00 00 00 00 00 00... move.q  r1, #0
0000A9E0  01 17 00 00 01 00 00 00... move.q  r2, #ERR_NOMEM
0000A9E8  51 00 00 00 00 00 00 00... rts
                         safe_copy_user_name:
0000A9F0  52 06 08 00 00 00 00 00... push    r1
0000A9F8  35 77 08 00 0C 00 00 00... lsr     r14, r1, #12
0000AA00  01 85 00 00 00 D0 08 00... move.l  r16, #KERN_DATA_BASE
0000AA08  34 8F 68 00 03 00 00 00... lsl     r17, r13, #3
0000AA10  20 8F 88 00 20 20 00 00... add     r17, r17, #KD_PTBR_BASE
0000AA18  20 8E 88 80 00 00 00 00... add     r17, r17, r16
0000AA20  10 8E 88 00 00 00 00 00... load.q  r17, (r17)
0000AA28  34 97 70 00 03 00 00 00... lsl     r18, r14, #3
0000AA30  20 96 90 88 00 00 00 00... add     r18, r18, r17
0000AA38  10 96 90 00 00 00 00 00... load.q  r18, (r18)
0000AA40  30 9F 90 00 13 00 00 00... and     r19, r18, #0x13
0000AA48  01 C5 00 00 13 00 00 00... move.l  r24, #0x13
0000AA50  42 06 98 C0 10 01 00 00... bne     r19, r24, .scun_bad
0000AA58  53 0E 00 00 00 00 00 00... pop     r1
0000AA60  52 06 08 00 00 00 00 00... push    r1
0000AA68  20 77 08 00 1F 00 00 00... add     r14, r1, #(PORT_NAME_LEN-1)
0000AA70  35 77 70 00 0C 00 00 00... lsr     r14, r14, #12
0000AA78  34 97 70 00 03 00 00 00... lsl     r18, r14, #3
0000AA80  20 96 90 88 00 00 00 00... add     r18, r18, r17
0000AA88  10 96 90 00 00 00 00 00... load.q  r18, (r18)
0000AA90  30 9F 90 00 13 00 00 00... and     r19, r18, #0x13
0000AA98  42 06 98 C0 C8 00 00 00... bne     r19, r24, .scun_bad
0000AAA0  53 0E 00 00 00 00 00 00... pop     r1
0000AAA8  01 CD 00 00 00 D0 08 00... move.l  r25, #KERN_DATA_BASE
0000AAB0  20 CF C8 00 20 00 00 00... add     r25, r25, #KD_NAME_SCRATCH
0000AAB8  01 D5 00 00 00 00 00 00... move.l  r26, #0
0000AAC0  F3 00 00 00 00 00 00 00... suaen
                         .scun_copy:
0000AAC8  01 C5 00 00 20 00 00 00... move.l  r24, #PORT_NAME_LEN
0000AAD0  44 06 D0 C0 78 00 00 00... bge     r26, r24, .scun_ok
0000AAD8  20 76 08 D0 00 00 00 00... add     r14, r1, r26
0000AAE0  10 70 70 00 00 00 00 00... load.b  r14, (r14)
0000AAE8  20 96 C8 D0 00 00 00 00... add     r18, r25, r26
0000AAF0  11 70 90 00 00 00 00 00... store.b r14, (r18)
0000AAF8  41 06 70 00 18 00 00 00... beq r14, r0, .scun_pad
0000AB00  20 D7 D0 00 01 00 00 00... add     r26, r26, #1
0000AB08  40 06 00 00 C0 FF FF FF... bra     .scun_copy
                         .scun_pad:
0000AB10  20 D7 D0 00 01 00 00 00... add     r26, r26, #1
                         .scun_pad_loop:
0000AB18  01 C5 00 00 20 00 00 00... move.l  r24, #PORT_NAME_LEN
0000AB20  44 06 D0 C0 28 00 00 00... bge     r26, r24, .scun_ok
0000AB28  20 96 C8 D0 00 00 00 00... add     r18, r25, r26
0000AB30  11 00 90 00 00 00 00 00... store.b r0, (r18)
0000AB38  20 D7 D0 00 01 00 00 00... add     r26, r26, #1
0000AB40  40 06 00 00 D8 FF FF FF... bra     .scun_pad_loop
                         .scun_ok:
0000AB48  F4 00 00 00 00 00 00 00... suadis
0000AB50  01 BF 00 00 00 00 00 00... move.q  r23, #0
0000AB58  51 00 00 00 00 00 00 00... rts
                         .scun_bad:
0000AB60  53 0E 00 00 00 00 00 00... pop     r1
0000AB68  01 BF 00 00 03 00 00 00... move.q  r23, #ERR_BADARG
0000AB70  51 00 00 00 00 00 00 00... rts
                         case_insensitive_cmp:
0000AB78  01 D5 00 00 00 00 00 00... move.l  r26, #0
                         .cic_loop:
0000AB80  01 95 00 00 20 00 00 00... move.l  r18, #PORT_NAME_LEN
0000AB88  44 06 D0 90 90 00 00 00... bge     r26, r18, .cic_match
0000AB90  20 76 C0 D0 00 00 00 00... add     r14, r24, r26
0000AB98  10 70 70 00 00 00 00 00... load.b  r14, (r14)
0000ABA0  20 86 C8 D0 00 00 00 00... add     r16, r25, r26
0000ABA8  10 80 80 00 00 00 00 00... load.b  r16, (r16)
0000ABB0  01 8D 00 00 61 00 00 00... move.l  r17, #0x61
0000ABB8  43 06 70 88 20 00 00 00... blt     r14, r17, .cic_a_done
0000ABC0  01 8D 00 00 7B 00 00 00... move.l  r17, #0x7B
0000ABC8  44 06 70 88 10 00 00 00... bge     r14, r17, .cic_a_done
0000ABD0  21 77 70 00 20 00 00 00... sub     r14, r14, #0x20
                         .cic_a_done:
0000ABD8  01 8D 00 00 61 00 00 00... move.l  r17, #0x61
0000ABE0  43 06 80 88 20 00 00 00... blt     r16, r17, .cic_b_done
0000ABE8  01 8D 00 00 7B 00 00 00... move.l  r17, #0x7B
0000ABF0  44 06 80 88 10 00 00 00... bge     r16, r17, .cic_b_done
0000ABF8  21 87 80 00 20 00 00 00... sub     r16, r16, #0x20
                         .cic_b_done:
0000AC00  42 06 70 80 28 00 00 00... bne     r14, r16, .cic_mismatch
0000AC08  20 D7 D0 00 01 00 00 00... add     r26, r26, #1
0000AC10  40 06 00 00 70 FF FF FF... bra     .cic_loop
                         .cic_match:
0000AC18  01 BF 00 00 00 00 00 00... move.q  r23, #0
0000AC20  51 00 00 00 00 00 00 00... rts
                         .cic_mismatch:
0000AC28  01 BF 00 00 01 00 00 00... move.q  r23, #1
0000AC30  51 00 00 00 00 00 00 00... rts
                         check_name_unique:
0000AC38  52 06 38 00 00 00 00 00... push    r7
0000AC40  52 06 60 00 00 00 00 00... push    r12
0000AC48  52 06 68 00 00 00 00 00... push    r13
0000AC50  50 06 00 00 20 F8 FF FF... jsr     kern_port_find_public
0000AC58  53 6E 00 00 00 00 00 00... pop     r13
0000AC60  53 66 00 00 00 00 00 00... pop     r12
0000AC68  53 3E 00 00 00 00 00 00... pop     r7
0000AC70  42 06 08 00 18 00 00 00... bne r1, r0, .cnu_dup
0000AC78  01 BF 00 00 00 00 00 00... move.q  r23, #0
0000AC80  51 00 00 00 00 00 00 00... rts
                         .cnu_dup:
0000AC88  01 BF 00 00 01 00 00 00... move.q  r23, #1
0000AC90  51 00 00 00 00 00 00 00... rts
                         kern_put_fault_mode:
0000AC98  41 06 08 00 20 00 00 00... beq r1, r0, .kpfm_user
0000ACA0  04 47 00 00 20 49 01 00... lea r8, fault_mode_supervisor(r0)
0000ACA8  50 06 00 00 E0 6D FF FF... jsr     kern_puts
0000ACB0  51 00 00 00 00 00 00 00... rts
                         .kpfm_user:
0000ACB8  04 47 00 00 18 49 01 00... lea r8, fault_mode_user(r0)
0000ACC0  50 06 00 00 C8 6D FF FF... jsr     kern_puts
0000ACC8  51 00 00 00 00 00 00 00... rts
                         kern_put_fault_access:
0000ACD0  01 15 00 00 01 00 00 00... move.l  r2, #FAULT_READ_DENIED
0000ACD8  41 06 08 10 40 00 00 00... beq     r1, r2, .kpfa_read
0000ACE0  01 15 00 00 02 00 00 00... move.l  r2, #FAULT_WRITE_DENIED
0000ACE8  41 06 08 10 48 00 00 00... beq     r1, r2, .kpfa_write
0000ACF0  01 15 00 00 03 00 00 00... move.l  r2, #FAULT_EXEC_DENIED
0000ACF8  41 06 08 10 50 00 00 00... beq     r1, r2, .kpfa_exec
0000AD00  04 47 00 00 2C 49 01 00... lea r8, fault_access_unknown(r0)
0000AD08  50 06 00 00 80 6D FF FF... jsr     kern_puts
0000AD10  51 00 00 00 00 00 00 00... rts
                         .kpfa_read:
0000AD18  04 47 00 00 34 49 01 00... lea r8, fault_access_read(r0)
0000AD20  50 06 00 00 68 6D FF FF... jsr     kern_puts
0000AD28  51 00 00 00 00 00 00 00... rts
                         .kpfa_write:
0000AD30  04 47 00 00 3C 49 01 00... lea r8, fault_access_write(r0)
0000AD38  50 06 00 00 50 6D FF FF... jsr     kern_puts
0000AD40  51 00 00 00 00 00 00 00... rts
                         .kpfa_exec:
0000AD48  04 47 00 00 44 49 01 00... lea r8, fault_access_exec(r0)
0000AD50  50 06 00 00 38 6D FF FF... jsr     kern_puts
0000AD58  51 00 00 00 00 00 00 00... rts
                         kern_put_fault_class:
0000AD60  01 15 00 00 00 00 00 00... move.l  r2, #FAULT_NOT_PRESENT
0000AD68  41 06 08 10 A0 00 00 00... beq     r1, r2, .kpfc_not_present
0000AD70  01 15 00 00 01 00 00 00... move.l  r2, #FAULT_READ_DENIED
0000AD78  41 06 08 10 A8 00 00 00... beq     r1, r2, .kpfc_read
0000AD80  01 15 00 00 02 00 00 00... move.l  r2, #FAULT_WRITE_DENIED
0000AD88  41 06 08 10 B0 00 00 00... beq     r1, r2, .kpfc_write
0000AD90  01 15 00 00 03 00 00 00... move.l  r2, #FAULT_EXEC_DENIED
0000AD98  41 06 08 10 B8 00 00 00... beq     r1, r2, .kpfc_exec
0000ADA0  01 15 00 00 04 00 00 00... move.l  r2, #FAULT_USER_SUPER
0000ADA8  41 06 08 10 C0 00 00 00... beq     r1, r2, .kpfc_user_super
0000ADB0  01 15 00 00 05 00 00 00... move.l  r2, #FAULT_PRIV
0000ADB8  41 06 08 10 C8 00 00 00... beq     r1, r2, .kpfc_priv
0000ADC0  01 15 00 00 07 00 00 00... move.l  r2, #FAULT_MISALIGNED
0000ADC8  41 06 08 10 D0 00 00 00... beq     r1, r2, .kpfc_misaligned
0000ADD0  01 15 00 00 08 00 00 00... move.l  r2, #FAULT_TIMER
0000ADD8  41 06 08 10 D8 00 00 00... beq     r1, r2, .kpfc_timer
0000ADE0  01 15 00 00 06 00 00 00... move.l  r2, #FAULT_SYSCALL
0000ADE8  41 06 08 10 E0 00 00 00... beq     r1, r2, .kpfc_syscall
0000ADF0  04 47 00 00 4C 49 01 00... lea r8, fault_class_unknown(r0)
0000ADF8  50 06 00 00 90 6C FF FF... jsr     kern_puts
0000AE00  51 00 00 00 00 00 00 00... rts
                         .kpfc_not_present:
0000AE08  04 47 00 00 54 49 01 00... lea r8, fault_class_not_present(r0)
0000AE10  50 06 00 00 78 6C FF FF... jsr     kern_puts
0000AE18  51 00 00 00 00 00 00 00... rts
                         .kpfc_read:
0000AE20  04 47 00 00 60 49 01 00... lea r8, fault_class_read(r0)
0000AE28  50 06 00 00 60 6C FF FF... jsr     kern_puts
0000AE30  51 00 00 00 00 00 00 00... rts
                         .kpfc_write:
0000AE38  04 47 00 00 6C 49 01 00... lea r8, fault_class_write(r0)
0000AE40  50 06 00 00 48 6C FF FF... jsr     kern_puts
0000AE48  51 00 00 00 00 00 00 00... rts
                         .kpfc_exec:
0000AE50  04 47 00 00 7C 49 01 00... lea r8, fault_class_exec(r0)
0000AE58  50 06 00 00 30 6C FF FF... jsr     kern_puts
0000AE60  51 00 00 00 00 00 00 00... rts
                         .kpfc_user_super:
0000AE68  04 47 00 00 88 49 01 00... lea r8, fault_class_user_super(r0)
0000AE70  50 06 00 00 18 6C FF FF... jsr     kern_puts
0000AE78  51 00 00 00 00 00 00 00... rts
                         .kpfc_priv:
0000AE80  04 47 00 00 98 49 01 00... lea r8, fault_class_priv(r0)
0000AE88  50 06 00 00 00 6C FF FF... jsr     kern_puts
0000AE90  51 00 00 00 00 00 00 00... rts
                         .kpfc_misaligned:
0000AE98  04 47 00 00 A4 49 01 00... lea r8, fault_class_misaligned(r0)
0000AEA0  50 06 00 00 E8 6B FF FF... jsr     kern_puts
0000AEA8  51 00 00 00 00 00 00 00... rts
                         .kpfc_timer:
0000AEB0  04 47 00 00 B0 49 01 00... lea r8, fault_class_timer(r0)
0000AEB8  50 06 00 00 D0 6B FF FF... jsr     kern_puts
0000AEC0  51 00 00 00 00 00 00 00... rts
                         .kpfc_syscall:
0000AEC8  04 47 00 00 B8 49 01 00... lea r8, fault_class_syscall(r0)
0000AED0  50 06 00 00 B8 6B FF FF... jsr     kern_puts
0000AED8  51 00 00 00 00 00 00 00... rts
                         kern_put_fault_pte_flags:
0000AEE0  01 17 00 00 2D 00 00 00... move.q  r2, #'-'
0000AEE8  01 1D 00 00 01 00 00 00... move.l  r3, #PTE_P
0000AEF0  30 26 08 18 00 00 00 00... and     r4, r1, r3
0000AEF8  41 06 20 00 10 00 00 00... beq r4, r0, .kpfp_present_done
0000AF00  01 17 00 00 50 00 00 00... move.q  r2, #'P'
                         .kpfp_present_done:
0000AF08  01 46 10 00 00 00 00 00... move.q  r8, r2
0000AF10  50 06 00 00 60 6B FF FF... jsr     kern_put_char
0000AF18  01 17 00 00 2D 00 00 00... move.q  r2, #'-'
0000AF20  01 1D 00 00 02 00 00 00... move.l  r3, #PTE_R
0000AF28  30 26 08 18 00 00 00 00... and     r4, r1, r3
0000AF30  41 06 20 00 10 00 00 00... beq r4, r0, .kpfp_read_done
0000AF38  01 17 00 00 52 00 00 00... move.q  r2, #'R'
                         .kpfp_read_done:
0000AF40  01 46 10 00 00 00 00 00... move.q  r8, r2
0000AF48  50 06 00 00 28 6B FF FF... jsr     kern_put_char
0000AF50  01 17 00 00 2D 00 00 00... move.q  r2, #'-'
0000AF58  01 1D 00 00 04 00 00 00... move.l  r3, #PTE_W
0000AF60  30 26 08 18 00 00 00 00... and     r4, r1, r3
0000AF68  41 06 20 00 10 00 00 00... beq r4, r0, .kpfp_write_done
0000AF70  01 17 00 00 57 00 00 00... move.q  r2, #'W'
                         .kpfp_write_done:
0000AF78  01 46 10 00 00 00 00 00... move.q  r8, r2
0000AF80  50 06 00 00 F0 6A FF FF... jsr     kern_put_char
0000AF88  01 17 00 00 2D 00 00 00... move.q  r2, #'-'
0000AF90  01 1D 00 00 08 00 00 00... move.l  r3, #PTE_X
0000AF98  30 26 08 18 00 00 00 00... and     r4, r1, r3
0000AFA0  41 06 20 00 10 00 00 00... beq r4, r0, .kpfp_exec_done
0000AFA8  01 17 00 00 58 00 00 00... move.q  r2, #'X'
                         .kpfp_exec_done:
0000AFB0  01 46 10 00 00 00 00 00... move.q  r8, r2
0000AFB8  50 06 00 00 B8 6A FF FF... jsr     kern_put_char
0000AFC0  01 17 00 00 2D 00 00 00... move.q  r2, #'-'
0000AFC8  01 1D 00 00 10 00 00 00... move.l  r3, #PTE_U
0000AFD0  30 26 08 18 00 00 00 00... and     r4, r1, r3
0000AFD8  41 06 20 00 10 00 00 00... beq r4, r0, .kpfp_user_done
0000AFE0  01 17 00 00 55 00 00 00... move.q  r2, #'U'
                         .kpfp_user_done:
0000AFE8  01 46 10 00 00 00 00 00... move.q  r8, r2
0000AFF0  50 06 00 00 80 6A FF FF... jsr     kern_put_char
0000AFF8  01 17 00 00 2D 00 00 00... move.q  r2, #'-'
0000B000  01 1D 00 00 40 00 00 00... move.l  r3, #PTE_D
0000B008  30 26 08 18 00 00 00 00... and     r4, r1, r3
0000B010  41 06 20 00 10 00 00 00... beq r4, r0, .kpfp_dirty_done
0000B018  01 17 00 00 44 00 00 00... move.q  r2, #'D'
                         .kpfp_dirty_done:
0000B020  01 46 10 00 00 00 00 00... move.q  r8, r2
0000B028  50 06 00 00 48 6A FF FF... jsr     kern_put_char
0000B030  51 00 00 00 00 00 00 00... rts
                         kern_put_fault_pte_for_addr:
0000B038  35 17 08 00 0C 00 00 00... lsr     r2, r1, #12
0000B040  01 1D 00 00 00 20 00 00... move.l  r3, #MMU_NUM_PAGES
0000B048  44 06 10 18 40 00 00 00... bge     r2, r3, .kpfpte_none
0000B050  E7 18 00 00 00 00 00 00... mfcr    r3, cr0
0000B058  34 17 10 00 03 00 00 00... lsl     r2, r2, #3
0000B060  20 16 10 18 00 00 00 00... add     r2, r2, r3
0000B068  10 0E 10 00 00 00 00 00... load.q  r1, (r2)
0000B070  30 0F 08 00 7F 00 00 00... and     r1, r1, #0x7F
0000B078  50 06 00 00 68 FE FF FF... jsr     kern_put_fault_pte_flags
0000B080  51 00 00 00 00 00 00 00... rts
                         .kpfpte_none:
0000B088  01 0F 00 00 00 00 00 00... move.q  r1, #0
0000B090  50 06 00 00 50 FE FF FF... jsr     kern_put_fault_pte_flags
0000B098  51 00 00 00 00 00 00 00... rts
                         trap_handler:
0000B0A0  E7 50 10 00 00 00 00 00... mfcr    r10, cr2
0000B0A8  01 5D 00 00 06 00 00 00... move.l  r11, #FAULT_SYSCALL
0000B0B0  41 06 50 58 D0 02 00 00... beq     r10, r11, .syscall_dispatch
0000B0B8  01 A6 50 00 00 00 00 00... move.q  r20, r10
0000B0C0  E7 A8 68 00 00 00 00 00... mfcr    r21, cr13
0000B0C8  E7 B0 18 00 00 00 00 00... mfcr    r22, cr3
0000B0D0  E7 B8 08 00 00 00 00 00... mfcr    r23, cr1
0000B0D8  42 06 A8 00 90 01 00 00... bne r21, r0, .fault_supervisor
0000B0E0  04 47 00 00 A4 48 01 00... lea r8, fault_msg_prefix(r0)
0000B0E8  50 06 00 00 A0 69 FF FF... jsr     kern_puts
0000B0F0  01 46 A0 00 00 00 00 00... move.q  r8, r20
0000B0F8  50 06 00 00 D8 69 FF FF... jsr     kern_put_hex
0000B100  04 47 00 00 BC 48 01 00... lea r8, fault_msg_pc(r0)
0000B108  50 06 00 00 80 69 FF FF... jsr     kern_puts
0000B110  01 46 B0 00 00 00 00 00... move.q  r8, r22
0000B118  50 06 00 00 B8 69 FF FF... jsr     kern_put_hex
0000B120  04 47 00 00 C4 48 01 00... lea r8, fault_msg_addr(r0)
0000B128  50 06 00 00 60 69 FF FF... jsr     kern_puts
0000B130  01 46 B8 00 00 00 00 00... move.q  r8, r23
0000B138  50 06 00 00 98 69 FF FF... jsr     kern_put_hex
0000B140  04 47 00 00 EC 48 01 00... lea r8, fault_msg_task(r0)
0000B148  50 06 00 00 40 69 FF FF... jsr     kern_puts
0000B150  01 65 00 00 00 D0 08 00... move.l  r12, #KERN_DATA_BASE
0000B158  10 46 60 00 00 00 00 00... load.q  r8, (r12)
0000B160  50 06 00 00 70 69 FF FF... jsr     kern_put_hex
0000B168  04 47 00 00 F4 48 01 00... lea r8, fault_msg_access(r0)
0000B170  50 06 00 00 18 69 FF FF... jsr     kern_puts
0000B178  01 0E A0 00 00 00 00 00... move.q  r1, r20
0000B180  50 06 00 00 50 FB FF FF... jsr     kern_put_fault_access
0000B188  04 47 00 00 00 49 01 00... lea r8, fault_msg_mode(r0)
0000B190  50 06 00 00 F8 68 FF FF... jsr     kern_puts
0000B198  01 0E A8 00 00 00 00 00... move.q  r1, r21
0000B1A0  50 06 00 00 F8 FA FF FF... jsr     kern_put_fault_mode
0000B1A8  04 47 00 00 08 49 01 00... lea r8, fault_msg_class(r0)
0000B1B0  50 06 00 00 D8 68 FF FF... jsr     kern_puts
0000B1B8  01 0E A0 00 00 00 00 00... move.q  r1, r20
0000B1C0  50 06 00 00 A0 FB FF FF... jsr     kern_put_fault_class
0000B1C8  04 47 00 00 10 49 01 00... lea r8, fault_msg_pte(r0)
0000B1D0  50 06 00 00 B8 68 FF FF... jsr     kern_puts
0000B1D8  01 0E B8 00 00 00 00 00... move.q  r1, r23
0000B1E0  50 06 00 00 58 FE FF FF... jsr     kern_put_fault_pte_for_addr
0000B1E8  01 47 00 00 0D 00 00 00... move.q  r8, #0x0D
0000B1F0  50 06 00 00 80 68 FF FF... jsr     kern_put_char
0000B1F8  01 47 00 00 0A 00 00 00... move.q  r8, #0x0A
0000B200  50 06 00 00 70 68 FF FF... jsr     kern_put_char
0000B208  10 6E 60 00 00 00 00 00... load.q  r13, (r12)
0000B210  E7 98 00 00 00 00 00 00... mfcr    r19, cr0
0000B218  01 5D 00 00 00 D0 07 00... move.l  r11, #KERN_PAGE_TABLE
0000B220  E6 00 58 00 00 00 00 00... mtcr    cr0, r11
0000B228  E9 00 00 00 00 00 00 00... tlbflush
0000B230  01 75 00 00 02 00 00 00... move.l  r14, #TASK_EXIT_REASON_FAULT
0000B238  50 06 00 00 A8 84 00 00... jsr     kill_task_cleanup
0000B240  E6 00 98 00 00 00 00 00... mtcr    cr0, r19
0000B248  E9 00 00 00 00 00 00 00... tlbflush
0000B250  50 06 00 00 28 69 FF FF... jsr     find_next_runnable
0000B258  11 6E 60 00 00 00 00 00... store.q r13, (r12)
0000B260  40 06 00 00 80 8D 00 00... bra     restore_task
                         .fault_supervisor:
0000B268  04 47 00 00 C0 49 01 00... lea r8, panic_msg(r0)
0000B270  50 06 00 00 18 68 FF FF... jsr     kern_puts
0000B278  04 47 00 00 A4 48 01 00... lea r8, fault_msg_prefix(r0)
0000B280  50 06 00 00 08 68 FF FF... jsr     kern_puts
0000B288  01 46 A0 00 00 00 00 00... move.q  r8, r20
0000B290  50 06 00 00 40 68 FF FF... jsr     kern_put_hex
0000B298  04 47 00 00 BC 48 01 00... lea r8, fault_msg_pc(r0)
0000B2A0  50 06 00 00 E8 67 FF FF... jsr     kern_puts
0000B2A8  01 46 B0 00 00 00 00 00... move.q  r8, r22
0000B2B0  50 06 00 00 20 68 FF FF... jsr     kern_put_hex
0000B2B8  04 47 00 00 C4 48 01 00... lea r8, fault_msg_addr(r0)
0000B2C0  50 06 00 00 C8 67 FF FF... jsr     kern_puts
0000B2C8  01 46 B8 00 00 00 00 00... move.q  r8, r23
0000B2D0  50 06 00 00 00 68 FF FF... jsr     kern_put_hex
0000B2D8  04 47 00 00 F4 48 01 00... lea r8, fault_msg_access(r0)
0000B2E0  50 06 00 00 A8 67 FF FF... jsr     kern_puts
0000B2E8  01 0E A0 00 00 00 00 00... move.q  r1, r20
0000B2F0  50 06 00 00 E0 F9 FF FF... jsr     kern_put_fault_access
0000B2F8  04 47 00 00 00 49 01 00... lea r8, fault_msg_mode(r0)
0000B300  50 06 00 00 88 67 FF FF... jsr     kern_puts
0000B308  01 0E A8 00 00 00 00 00... move.q  r1, r21
0000B310  50 06 00 00 88 F9 FF FF... jsr     kern_put_fault_mode
0000B318  04 47 00 00 08 49 01 00... lea r8, fault_msg_class(r0)
0000B320  50 06 00 00 68 67 FF FF... jsr     kern_puts
0000B328  01 0E A0 00 00 00 00 00... move.q  r1, r20
0000B330  50 06 00 00 30 FA FF FF... jsr     kern_put_fault_class
0000B338  04 47 00 00 10 49 01 00... lea r8, fault_msg_pte(r0)
0000B340  50 06 00 00 48 67 FF FF... jsr     kern_puts
0000B348  01 0E B8 00 00 00 00 00... move.q  r1, r23
0000B350  50 06 00 00 E8 FC FF FF... jsr     kern_put_fault_pte_for_addr
0000B358  01 47 00 00 0D 00 00 00... move.q  r8, #0x0D
0000B360  50 06 00 00 10 67 FF FF... jsr     kern_put_char
0000B368  01 47 00 00 0A 00 00 00... move.q  r8, #0x0A
0000B370  50 06 00 00 00 67 FF FF... jsr     kern_put_char
0000B378  E1 00 00 00 00 00 00 00... halt
                         .syscall_dispatch:
0000B380  E7 50 08 00 00 00 00 00... mfcr    r10, cr1
0000B388  01 5D 00 00 1A 00 00 00... move.l  r11, #SYS_YIELD
0000B390  41 06 50 58 68 02 00 00... beq     r10, r11, .do_yield
0000B398  01 5D 00 00 1B 00 00 00... move.l  r11, #SYS_GET_SYS_INFO
0000B3A0  41 06 50 58 E0 02 00 00... beq     r10, r11, .do_getsysinfo
0000B3A8  01 5D 00 00 21 00 00 00... move.l  r11, #SYS_DEBUG_PUTCHAR
0000B3B0  41 06 50 58 28 02 00 00... beq     r10, r11, .do_debug_putchar
0000B3B8  01 5D 00 00 0B 00 00 00... move.l  r11, #SYS_ALLOC_SIGNAL
0000B3C0  41 06 50 58 08 08 00 00... beq     r10, r11, .do_alloc_signal
0000B3C8  01 5D 00 00 0C 00 00 00... move.l  r11, #SYS_FREE_SIGNAL
0000B3D0  41 06 50 58 30 09 00 00... beq     r10, r11, .do_free_signal
0000B3D8  01 5D 00 00 0D 00 00 00... move.l  r11, #SYS_SIGNAL
0000B3E0  41 06 50 58 C8 09 00 00... beq     r10, r11, .do_signal
0000B3E8  01 5D 00 00 0E 00 00 00... move.l  r11, #SYS_WAIT
0000B3F0  41 06 50 58 68 0A 00 00... beq     r10, r11, .do_wait
0000B3F8  01 5D 00 00 0F 00 00 00... move.l  r11, #SYS_CREATE_PORT
0000B400  41 06 50 58 90 0B 00 00... beq     r10, r11, .do_create_port
0000B408  01 5D 00 00 10 00 00 00... move.l  r11, #SYS_FIND_PORT
0000B410  41 06 50 58 B0 0E 00 00... beq     r10, r11, .do_find_port
0000B418  01 5D 00 00 11 00 00 00... move.l  r11, #SYS_PUT_MSG
0000B420  41 06 50 58 28 0F 00 00... beq     r10, r11, .do_put_msg
0000B428  01 5D 00 00 12 00 00 00... move.l  r11, #SYS_GET_MSG
0000B430  41 06 50 58 18 19 00 00... beq     r10, r11, .do_get_msg
0000B438  01 5D 00 00 13 00 00 00... move.l  r11, #SYS_WAIT_PORT
0000B440  41 06 50 58 20 1A 00 00... beq     r10, r11, .do_wait_port
0000B448  01 5D 00 00 14 00 00 00... move.l  r11, #SYS_REPLY_MSG
0000B450  41 06 50 58 E8 0E 00 00... beq     r10, r11, .do_reply_msg
0000B458  01 5D 00 00 05 00 00 00... move.l  r11, #SYS_CREATE_TASK
0000B460  41 06 50 58 40 1C 00 00... beq     r10, r11, .do_create_task
0000B468  01 5D 00 00 22 00 00 00... move.l  r11, #SYS_EXIT_TASK
0000B470  41 06 50 58 28 22 00 00... beq     r10, r11, .do_exit_task
0000B478  01 5D 00 00 01 00 00 00... move.l  r11, #SYS_ALLOC_MEM
0000B480  41 06 50 58 80 22 00 00... beq     r10, r11, .do_alloc_mem
0000B488  01 5D 00 00 02 00 00 00... move.l  r11, #SYS_FREE_MEM
0000B490  41 06 50 58 98 27 00 00... beq     r10, r11, .do_free_mem
0000B498  01 5D 00 00 04 00 00 00... move.l  r11, #SYS_MAP_SHARED
0000B4A0  41 06 50 58 E0 2A 00 00... beq     r10, r11, .do_map_shared
0000B4A8  01 5D 00 00 23 00 00 00... move.l  r11, #SYS_EXEC_PROGRAM
0000B4B0  41 06 50 58 08 51 00 00... beq     r10, r11, .do_exec_program
0000B4B8  01 5D 00 00 24 00 00 00... move.l  r11, #SYS_OPEN_LIBRARY
0000B4C0  41 06 50 58 30 2F 00 00... beq     r10, r11, .do_open_library
0000B4C8  01 5D 00 00 1C 00 00 00... move.l  r11, #SYS_MAP_IO
0000B4D0  41 06 50 58 28 40 00 00... beq     r10, r11, .do_map_io
0000B4D8  01 5D 00 00 26 00 00 00... move.l  r11, #SYS_HWRES_OP
0000B4E0  41 06 50 58 B0 42 00 00... beq     r10, r11, .do_hwres_op
0000B4E8  01 5D 00 00 27 00 00 00... move.l  r11, #SYS_BOOT_MANIFEST
0000B4F0  41 06 50 58 D8 4C 00 00... beq     r10, r11, .do_boot_manifest_launch
0000B4F8  01 5D 00 00 28 00 00 00... move.l  r11, #SYS_BOOT_HOSTFS
0000B500  41 06 50 58 C8 45 00 00... beq     r10, r11, .do_boot_hostfs
0000B508  01 5D 00 00 29 00 00 00... move.l  r11, #SYS_BOOT_ELF_EXEC
0000B510  41 06 50 58 F0 46 00 00... beq     r10, r11, .do_boot_elf_exec
0000B518  01 5D 00 00 2A 00 00 00... move.l  r11, #SYS_QUOTA_SET_LIMIT
0000B520  41 06 50 58 38 06 00 00... beq     r10, r11, .do_quota_set_limit
0000B528  01 5D 00 00 2B 00 00 00... move.l  r11, #SYS_CLOSE_LIBRARY
0000B530  41 06 50 58 20 34 00 00... beq     r10, r11, .do_close_library
0000B538  01 5D 00 00 2C 00 00 00... move.l  r11, #SYS_ADD_LIBRARY
0000B540  41 06 50 58 D0 35 00 00... beq     r10, r11, .do_add_library
0000B548  01 5D 00 00 2D 00 00 00... move.l  r11, #SYS_OPEN_LIBRARY_EX
0000B550  41 06 50 58 A8 2E 00 00... beq     r10, r11, .do_open_library_ex
0000B558  01 5D 00 00 2E 00 00 00... move.l  r11, #SYS_M16_COPY_MODULE_NAME
0000B560  41 06 50 58 F0 39 00 00... beq     r10, r11, .do_m16_copy_module_name
0000B568  01 5D 00 00 2F 00 00 00... move.l  r11, #SYS_M16_LIBRARY_LOAD_RESULT
0000B570  41 06 50 58 30 3B 00 00... beq     r10, r11, .do_m16_library_load_result
0000B578  01 5D 00 00 30 00 00 00... move.l  r11, #SYS_SET_RESIDENT
0000B580  41 06 50 58 48 3C 00 00... beq     r10, r11, .do_set_resident
0000B588  01 5D 00 00 31 00 00 00... move.l  r11, #SYS_M16_EXPUNGE_RESULT
0000B590  41 06 50 58 58 3E 00 00... beq     r10, r11, .do_m16_expunge_result
0000B598  01 5D 00 00 32 00 00 00... move.l  r11, #SYS_ADD_HANDLER
0000B5A0  41 06 50 58 80 35 00 00... beq     r10, r11, .do_add_handler
0000B5A8  01 5D 00 00 33 00 00 00... move.l  r11, #SYS_ADD_DEVICE
0000B5B0  41 06 50 58 80 35 00 00... beq     r10, r11, .do_add_device
0000B5B8  01 5D 00 00 34 00 00 00... move.l  r11, #SYS_ADD_RESOURCE
0000B5C0  41 06 50 58 80 35 00 00... beq     r10, r11, .do_add_resource
0000B5C8  01 17 00 00 03 00 00 00... move.q  r2, #ERR_BADARG
0000B5D0  E8 00 00 00 00 00 00 00... eret
                         .do_debug_putchar:
0000B5D8  04 E7 00 00 00 07 0F 00... lea r28, TERM_OUT(r0)
0000B5E0  11 08 E0 00 00 00 00 00... store.b r1, (r28)
0000B5E8  01 17 00 00 00 00 00 00... move.q  r2, #ERR_OK
0000B5F0  E8 00 00 00 00 00 00 00... eret
                         .do_yield:
0000B5F8  01 65 00 00 00 D0 08 00... move.l  r12, #KERN_DATA_BASE
0000B600  10 6E 60 00 00 00 00 00... load.q  r13, (r12)
0000B608  34 7F 68 00 05 00 00 00... lsl     r15, r13, #5
0000B610  20 7F 78 00 40 00 00 00... add     r15, r15, #KD_TASK_BASE
0000B618  20 7E 78 60 00 00 00 00... add     r15, r15, r12
0000B620  E7 70 18 00 00 00 00 00... mfcr    r14, cr3
0000B628  11 76 78 00 00 00 00 00... store.q r14, KD_TASK_PC(r15)
0000B630  E7 70 60 00 00 00 00 00... mfcr    r14, cr12
0000B638  11 77 78 00 08 00 00 00... store.q r14, KD_TASK_USP(r15)
0000B640  11 01 78 00 1E 00 00 00... store.b r0, KD_TASK_GPR_SAVED(r15)
0000B648  50 06 00 00 30 65 FF FF... jsr     find_next_runnable
0000B650  01 65 00 00 00 D0 08 00... move.l  r12, #KERN_DATA_BASE
0000B658  10 86 60 00 00 00 00 00... load.q  r16, (r12)
0000B660  41 06 68 80 18 00 00 00... beq     r13, r16, .yield_stay
0000B668  11 6E 60 00 00 00 00 00... store.q r13, (r12)
0000B670  40 06 00 00 70 89 00 00... bra     restore_task
                         .yield_stay:
0000B678  E8 00 00 00 00 00 00 00... eret
                         .do_getsysinfo:
0000B680  01 5D 00 00 00 00 00 00... move.l  r11, #SYSINFO_TOTAL_PAGES
0000B688  41 06 08 58 90 00 00 00... beq     r1, r11, .info_total_pages
0000B690  01 5D 00 00 01 00 00 00... move.l  r11, #SYSINFO_FREE_PAGES
0000B698  41 06 08 58 98 00 00 00... beq     r1, r11, .info_free_pages
0000B6A0  01 5D 00 00 02 00 00 00... move.l  r11, #SYSINFO_TICK_COUNT
0000B6A8  41 06 08 58 B8 00 00 00... beq     r1, r11, .info_ticks
0000B6B0  01 5D 00 00 03 00 00 00... move.l  r11, #SYSINFO_CURRENT_TASK
0000B6B8  41 06 08 58 90 00 00 00... beq     r1, r11, .info_current_task
0000B6C0  01 5D 00 00 04 00 00 00... move.l  r11, #SYSINFO_QUOTA_CURRENT
0000B6C8  41 06 08 58 10 01 00 00... beq     r1, r11, .info_quota_current
0000B6D0  01 5D 00 00 05 00 00 00... move.l  r11, #SYSINFO_QUOTA_LIMIT
0000B6D8  41 06 08 58 60 01 00 00... beq     r1, r11, .info_quota_limit
0000B6E0  01 5D 00 00 06 00 00 00... move.l  r11, #SYSINFO_PORT_NAME_BY_INDEX
0000B6E8  41 06 08 58 98 01 00 00... beq     r1, r11, .info_port_name_by_index
0000B6F0  01 5D 00 00 07 00 00 00... move.l  r11, #SYSINFO_ASLR_IMAGE_BASE
0000B6F8  41 06 08 58 88 00 00 00... beq     r1, r11, .info_aslr_image_base
0000B700  01 0F 00 00 00 00 00 00... move.q  r1, #0
0000B708  01 17 00 00 00 00 00 00... move.q  r2, #ERR_OK
0000B710  E8 00 00 00 00 00 00 00... eret
                         .info_total_pages:
0000B718  01 0D 00 00 00 0E 00 00... move.l  r1, #ALLOC_POOL_PAGES
0000B720  01 17 00 00 00 00 00 00... move.q  r2, #ERR_OK
0000B728  E8 00 00 00 00 00 00 00... eret
                         .info_free_pages:
0000B730  50 06 00 00 18 D1 FF FF... jsr     count_free_pages
0000B738  01 17 00 00 00 00 00 00... move.q  r2, #ERR_OK
0000B740  E8 00 00 00 00 00 00 00... eret
                         .info_current_task:
0000B748  50 06 00 00 68 69 FF FF... jsr     kern_current_public_task_id
0000B750  01 17 00 00 00 00 00 00... move.q  r2, #ERR_OK
0000B758  E8 00 00 00 00 00 00 00... eret
                         .info_ticks:
0000B760  01 5D 00 00 00 D0 08 00... move.l  r11, #KERN_DATA_BASE
0000B768  10 0F 58 00 08 00 00 00... load.q  r1, KD_TICK_COUNT(r11)
0000B770  01 17 00 00 00 00 00 00... move.q  r2, #ERR_OK
0000B778  E8 00 00 00 00 00 00 00... eret
                         .info_aslr_image_base:
0000B780  01 6E 10 00 00 00 00 00... move.q  r13, r2
0000B788  50 06 00 00 28 69 FF FF... jsr     kern_current_public_task_id
0000B790  01 5D 00 00 00 D0 08 00... move.l  r11, #KERN_DATA_BASE
0000B798  10 65 58 00 BC C0 00 00... load.l  r12, KD_DOSLIB_PUBID(r11)
0000B7A0  42 06 08 60 20 00 00 00... bne     r1, r12, .info_aslr_denied
0000B7A8  01 0E 68 00 00 00 00 00... move.q  r1, r13
0000B7B0  50 06 00 00 48 6A FF FF... jsr     kern_aslr_choose_image_base
0000B7B8  E8 00 00 00 00 00 00 00... eret
                         .info_aslr_denied:
0000B7C0  01 0F 00 00 00 00 00 00... move.q  r1, #0
0000B7C8  01 17 00 00 05 00 00 00... move.q  r2, #ERR_PERM
0000B7D0  E8 00 00 00 00 00 00 00... eret
                         .info_quota_current:
0000B7D8  01 5D 00 00 04 00 00 00... move.l  r11, #(QUOTA_KIND_COUNT - 1)
0000B7E0  47 06 10 58 88 00 00 00... bhi     r2, r11, .info_quota_bad
0000B7E8  01 5D 00 00 FF FF FF FF... move.l  r11, #0xFFFFFFFF
0000B7F0  42 06 18 58 18 00 00 00... bne     r3, r11, .iqc_got_slot
0000B7F8  01 65 00 00 00 D0 08 00... move.l  r12, #KERN_DATA_BASE
0000B800  10 1E 60 00 00 00 00 00... load.q  r3, (r12)
                         .iqc_got_slot:
0000B808  01 5D 00 00 FE 00 00 00... move.l  r11, #(MAX_TASKS - 1)
0000B810  47 06 18 58 58 00 00 00... bhi     r3, r11, .info_quota_bad
0000B818  01 0E 18 00 00 00 00 00... move.q  r1, r3
0000B820  50 06 00 00 70 57 00 00... jsr     quota_get_current
0000B828  01 17 00 00 00 00 00 00... move.q  r2, #ERR_OK
0000B830  E8 00 00 00 00 00 00 00... eret
                         .info_quota_limit:
0000B838  01 5D 00 00 04 00 00 00... move.l  r11, #(QUOTA_KIND_COUNT - 1)
0000B840  47 06 10 58 28 00 00 00... bhi     r2, r11, .info_quota_bad
0000B848  01 0E 10 00 00 00 00 00... move.q  r1, r2
0000B850  50 06 00 00 98 56 00 00... jsr     quota_get_limit
0000B858  01 17 00 00 00 00 00 00... move.q  r2, #ERR_OK
0000B860  E8 00 00 00 00 00 00 00... eret
                         .info_quota_bad:
0000B868  01 0F 00 00 00 00 00 00... move.q  r1, #0
0000B870  01 17 00 00 03 00 00 00... move.q  r2, #ERR_BADARG
0000B878  E8 00 00 00 00 00 00 00... eret
                         .info_port_name_by_index:
0000B880  01 C6 10 00 00 00 00 00... move.q  r24, r2
0000B888  01 CE 18 00 00 00 00 00... move.q  r25, r3
0000B890  E7 B8 00 00 00 00 00 00... mfcr    r23, cr0
0000B898  01 0E C8 00 00 00 00 00... move.q  r1, r25
0000B8A0  01 15 00 00 20 00 00 00... move.l  r2, #PORT_NAME_LEN
0000B8A8  01 1E B8 00 00 00 00 00... move.q  r3, r23
0000B8B0  50 06 00 00 00 51 00 00... jsr     validate_user_write_range
0000B8B8  42 06 08 00 88 02 00 00... bne r1, r0, .info_port_name_badarg
0000B8C0  01 65 00 00 00 D0 08 00... move.l  r12, #KERN_DATA_BASE
0000B8C8  20 67 60 00 20 00 00 00... add     r12, r12, #KD_NAME_SCRATCH
0000B8D0  11 06 60 00 00 00 00 00... store.q r0, (r12)
0000B8D8  20 67 60 00 08 00 00 00... add     r12, r12, #8
0000B8E0  11 06 60 00 00 00 00 00... store.q r0, (r12)
0000B8E8  20 67 60 00 08 00 00 00... add     r12, r12, #8
0000B8F0  11 06 60 00 00 00 00 00... store.q r0, (r12)
0000B8F8  20 67 60 00 08 00 00 00... add     r12, r12, #8
0000B900  11 06 60 00 00 00 00 00... store.q r0, (r12)
0000B908  01 D5 00 00 00 00 00 00... move.l  r26, #0
0000B910  01 65 00 00 00 D0 08 00... move.l  r12, #KERN_DATA_BASE
0000B918  20 67 60 00 18 28 00 00... add     r12, r12, #KD_PORT_BASE
0000B920  01 6D 00 00 00 00 00 00... move.l  r13, #0
                         .ipn_inline_loop:
0000B928  01 5D 00 00 20 00 00 00... move.l  r11, #KD_PORT_INLINE_MAX
0000B930  44 06 68 58 68 00 00 00... bge     r13, r11, .ipn_overflow_start
0000B938  01 75 00 00 A8 00 00 00... move.l  r14, #KD_PORT_STRIDE
0000B940  22 76 68 70 00 00 00 00... mulu    r14, r13, r14
0000B948  20 7E 60 70 00 00 00 00... add     r15, r12, r14
0000B950  10 80 78 00 00 00 00 00... load.b  r16, KD_PORT_VALID(r15)
0000B958  41 06 80 00 30 00 00 00... beq r16, r0, .ipn_inline_next
0000B960  10 81 78 00 05 00 00 00... load.b  r16, KD_PORT_FLAGS(r15)
0000B968  30 87 80 00 01 00 00 00... and     r16, r16, #PF_PUBLIC
0000B970  41 06 80 00 18 00 00 00... beq r16, r0, .ipn_inline_next
0000B978  41 06 D0 C0 D8 00 00 00... beq     r26, r24, .ipn_found
0000B980  20 D7 D0 00 01 00 00 00... add     r26, r26, #1
                         .ipn_inline_next:
0000B988  20 6F 68 00 01 00 00 00... add     r13, r13, #1
0000B990  40 06 00 00 98 FF FF FF... bra     .ipn_inline_loop
                         .ipn_overflow_start:
0000B998  01 65 00 00 00 D0 08 00... move.l  r12, #KERN_DATA_BASE
0000B9A0  20 67 60 00 C8 C8 00 00... add     r12, r12, #KD_PORT_OFLOW_HDR
0000B9A8  10 6A 60 00 00 00 00 00... load.w  r13, KD_PORT_OFLOW_FIRST_PPN(r12)
0000B9B0  41 06 68 00 40 01 00 00... beq r13, r0, .ipn_sentinel
                         .ipn_overflow_page:
0000B9B8  34 77 68 00 0C 00 00 00... lsl     r14, r13, #12
0000B9C0  01 8E 70 00 00 00 00 00... move.q  r17, r14
0000B9C8  20 7F 70 00 10 00 00 00... add     r15, r14, #KD_PORT_PAGE_HDR_SZ
0000B9D0  01 95 00 00 00 00 00 00... move.l  r18, #0
                         .ipn_overflow_row:
0000B9D8  01 5D 00 00 18 00 00 00... move.l  r11, #KD_PORT_ROWS_PER_PG
0000B9E0  44 06 90 58 58 00 00 00... bge     r18, r11, .ipn_overflow_next_page
0000B9E8  10 80 78 00 00 00 00 00... load.b  r16, KD_PORT_VALID(r15)
0000B9F0  41 06 80 00 30 00 00 00... beq r16, r0, .ipn_overflow_next_row
0000B9F8  10 81 78 00 05 00 00 00... load.b  r16, KD_PORT_FLAGS(r15)
0000BA00  30 87 80 00 01 00 00 00... and     r16, r16, #PF_PUBLIC
0000BA08  41 06 80 00 18 00 00 00... beq r16, r0, .ipn_overflow_next_row
0000BA10  41 06 D0 C0 40 00 00 00... beq     r26, r24, .ipn_found
0000BA18  20 D7 D0 00 01 00 00 00... add     r26, r26, #1
                         .ipn_overflow_next_row:
0000BA20  20 7F 78 00 A8 00 00 00... add     r15, r15, #KD_PORT_STRIDE
0000BA28  20 97 90 00 01 00 00 00... add     r18, r18, #1
0000BA30  40 06 00 00 A8 FF FF FF... bra     .ipn_overflow_row
                         .ipn_overflow_next_page:
0000BA38  10 6A 88 00 00 00 00 00... load.w  r13, KD_PORT_PAGE_NEXT(r17)
0000BA40  42 06 68 00 78 FF FF FF... bne r13, r0, .ipn_overflow_page
0000BA48  40 06 00 00 A8 00 00 00... bra     .ipn_sentinel
                         .ipn_found:
0000BA50  01 0E C8 00 00 00 00 00... move.q  r1, r25
0000BA58  20 17 78 00 08 00 00 00... add     r2, r15, #KD_PORT_NAME
0000BA60  01 1D 00 00 20 00 00 00... move.l  r3, #PORT_NAME_LEN
0000BA68  01 26 B8 00 00 00 00 00... move.q  r4, r23
0000BA70  50 06 00 00 E8 50 00 00... jsr     copy_to_user
0000BA78  42 06 08 00 C8 00 00 00... bne r1, r0, .info_port_name_badarg
0000BA80  10 69 78 00 01 00 00 00... load.b  r13, KD_PORT_OWNER(r15)
0000BA88  01 5D 00 00 FF 00 00 00... move.l  r11, #0xFF
0000BA90  41 06 68 58 48 00 00 00... beq     r13, r11, .ipn_kernel_owner
0000BA98  34 77 68 00 02 00 00 00... lsl     r14, r13, #2
0000BAA0  01 65 00 00 00 D0 08 00... move.l  r12, #KERN_DATA_BASE
0000BAA8  20 67 60 00 18 01 01 00... add     r12, r12, #KD_TASK_PUBID_BASE
0000BAB0  20 66 60 70 00 00 00 00... add     r12, r12, r14
0000BAB8  10 0C 60 00 00 00 00 00... load.l  r1, (r12)
0000BAC0  20 0F 08 00 01 00 00 00... add     r1, r1, #1
0000BAC8  01 17 00 00 00 00 00 00... move.q  r2, #ERR_OK
0000BAD0  E8 00 00 00 00 00 00 00... eret
                         .ipn_kernel_owner:
0000BAD8  01 0F 00 00 01 00 00 00... move.q  r1, #1
0000BAE0  01 17 00 00 00 00 00 00... move.q  r2, #ERR_OK
0000BAE8  E8 00 00 00 00 00 00 00... eret
                         .ipn_sentinel:
0000BAF0  01 0E C8 00 00 00 00 00... move.q  r1, r25
0000BAF8  01 15 00 00 00 D0 08 00... move.l  r2, #KERN_DATA_BASE
0000BB00  20 17 10 00 20 00 00 00... add     r2, r2, #KD_NAME_SCRATCH
0000BB08  01 1D 00 00 20 00 00 00... move.l  r3, #PORT_NAME_LEN
0000BB10  01 26 B8 00 00 00 00 00... move.q  r4, r23
0000BB18  50 06 00 00 40 50 00 00... jsr     copy_to_user
0000BB20  42 06 08 00 20 00 00 00... bne r1, r0, .info_port_name_badarg
0000BB28  01 0F 00 00 00 00 00 00... move.q  r1, #0
0000BB30  01 17 00 00 00 00 00 00... move.q  r2, #ERR_OK
0000BB38  E8 00 00 00 00 00 00 00... eret
                         .info_port_name_badarg:
0000BB40  01 0F 00 00 00 00 00 00... move.q  r1, #0
0000BB48  01 17 00 00 03 00 00 00... move.q  r2, #ERR_BADARG
0000BB50  E8 00 00 00 00 00 00 00... eret
                         .do_quota_set_limit:
0000BB58  52 06 08 00 00 00 00 00... push    r1
0000BB60  52 06 10 00 00 00 00 00... push    r2
0000BB68  50 06 00 00 48 65 FF FF... jsr     kern_current_public_task_id
0000BB70  01 5E 08 00 00 00 00 00... move.q  r11, r1
0000BB78  53 16 00 00 00 00 00 00... pop     r2
0000BB80  53 0E 00 00 00 00 00 00... pop     r1
0000BB88  42 06 58 00 28 00 00 00... bne r11, r0, .dqsl_perm
0000BB90  50 06 00 00 A8 53 00 00... jsr     quota_set_limit
0000BB98  01 16 08 00 00 00 00 00... move.q  r2, r1
0000BBA0  01 0F 00 00 00 00 00 00... move.q  r1, #0
0000BBA8  E8 00 00 00 00 00 00 00... eret
                         .dqsl_perm:
0000BBB0  01 0F 00 00 00 00 00 00... move.q  r1, #0
0000BBB8  01 17 00 00 05 00 00 00... move.q  r2, #ERR_PERM
0000BBC0  E8 00 00 00 00 00 00 00... eret
                         .do_alloc_signal:
0000BBC8  01 65 00 00 00 D0 08 00... move.l  r12, #KERN_DATA_BASE
0000BBD0  10 6E 60 00 00 00 00 00... load.q  r13, (r12)
0000BBD8  34 7F 68 00 05 00 00 00... lsl     r15, r13, #5
0000BBE0  20 7F 78 00 40 00 00 00... add     r15, r15, #KD_TASK_BASE
0000BBE8  20 7E 78 60 00 00 00 00... add     r15, r15, r12
0000BBF0  10 A5 78 00 10 00 00 00... load.l  r20, KD_TASK_SIG_ALLOC(r15)
0000BBF8  01 AD 00 00 FF FF FF FF... move.l  r21, #0xFFFFFFFF
0000BC00  42 06 08 A8 90 00 00 00... bne     r1, r21, .alloc_specific
0000BC08  01 B5 00 00 10 00 00 00... move.l  r22, #16
                         .alloc_scan:
0000BC10  01 BD 00 00 20 00 00 00... move.l  r23, #32
0000BC18  44 06 B0 B8 60 00 00 00... bge     r22, r23, .alloc_exhausted
0000BC20  01 BF 00 00 01 00 00 00... move.q  r23, #1
0000BC28  34 BE B8 B0 00 00 00 00... lsl     r23, r23, r22
0000BC30  30 C6 A0 B8 00 00 00 00... and     r24, r20, r23
0000BC38  42 06 C0 00 30 00 00 00... bne r24, r0, .alloc_next
0000BC40  31 A6 A0 B8 00 00 00 00... or      r20, r20, r23
0000BC48  11 A5 78 00 10 00 00 00... store.l r20, KD_TASK_SIG_ALLOC(r15)
0000BC50  01 0E B0 00 00 00 00 00... move.q  r1, r22
0000BC58  01 17 00 00 00 00 00 00... move.q  r2, #ERR_OK
0000BC60  E8 00 00 00 00 00 00 00... eret
                         .alloc_next:
0000BC68  20 B7 B0 00 01 00 00 00... add     r22, r22, #1
0000BC70  40 06 00 00 A0 FF FF FF... bra     .alloc_scan
                         .alloc_exhausted:
0000BC78  01 0F 00 00 FF FF FF FF... move.q  r1, #0xFFFFFFFF
0000BC80  01 17 00 00 01 00 00 00... move.q  r2, #ERR_NOMEM
0000BC88  E8 00 00 00 00 00 00 00... eret
                         .alloc_specific:
0000BC90  01 B5 00 00 10 00 00 00... move.l  r22, #16
0000BC98  43 06 08 B0 58 00 00 00... blt     r1, r22, .alloc_badarg
0000BCA0  01 B5 00 00 20 00 00 00... move.l  r22, #32
0000BCA8  44 06 08 B0 48 00 00 00... bge     r1, r22, .alloc_badarg
0000BCB0  01 BF 00 00 01 00 00 00... move.q  r23, #1
0000BCB8  34 BE B8 08 00 00 00 00... lsl     r23, r23, r1
0000BCC0  30 C6 A0 B8 00 00 00 00... and     r24, r20, r23
0000BCC8  42 06 C0 00 28 00 00 00... bne r24, r0, .alloc_badarg
0000BCD0  31 A6 A0 B8 00 00 00 00... or      r20, r20, r23
0000BCD8  11 A5 78 00 10 00 00 00... store.l r20, KD_TASK_SIG_ALLOC(r15)
0000BCE0  01 17 00 00 00 00 00 00... move.q  r2, #ERR_OK
0000BCE8  E8 00 00 00 00 00 00 00... eret
                         .alloc_badarg:
0000BCF0  01 17 00 00 03 00 00 00... move.q  r2, #ERR_BADARG
0000BCF8  E8 00 00 00 00 00 00 00... eret
                         .do_free_signal:
0000BD00  01 65 00 00 00 D0 08 00... move.l  r12, #KERN_DATA_BASE
0000BD08  10 6E 60 00 00 00 00 00... load.q  r13, (r12)
0000BD10  34 7F 68 00 05 00 00 00... lsl     r15, r13, #5
0000BD18  20 7F 78 00 40 00 00 00... add     r15, r15, #KD_TASK_BASE
0000BD20  20 7E 78 60 00 00 00 00... add     r15, r15, r12
0000BD28  01 B5 00 00 10 00 00 00... move.l  r22, #16
0000BD30  43 06 08 B0 68 00 00 00... blt     r1, r22, .free_badarg
0000BD38  01 B5 00 00 20 00 00 00... move.l  r22, #32
0000BD40  44 06 08 B0 58 00 00 00... bge     r1, r22, .free_badarg
0000BD48  10 A5 78 00 10 00 00 00... load.l  r20, KD_TASK_SIG_ALLOC(r15)
0000BD50  01 BF 00 00 01 00 00 00... move.q  r23, #1
0000BD58  34 BE B8 08 00 00 00 00... lsl     r23, r23, r1
0000BD60  30 C6 A0 B8 00 00 00 00... and     r24, r20, r23
0000BD68  41 06 C0 00 30 00 00 00... beq r24, r0, .free_badarg
0000BD70  33 BE B8 00 00 00 00 00... not     r23, r23
0000BD78  30 A6 A0 B8 00 00 00 00... and     r20, r20, r23
0000BD80  11 A5 78 00 10 00 00 00... store.l r20, KD_TASK_SIG_ALLOC(r15)
0000BD88  01 17 00 00 00 00 00 00... move.q  r2, #ERR_OK
0000BD90  E8 00 00 00 00 00 00 00... eret
                         .free_badarg:
0000BD98  01 17 00 00 03 00 00 00... move.q  r2, #ERR_BADARG
0000BDA0  E8 00 00 00 00 00 00 00... eret
                         .do_signal:
0000BDA8  01 CE 10 00 00 00 00 00... move.q  r25, r2
0000BDB0  50 06 00 00 28 63 FF FF... jsr     kern_find_slot_for_public_id
0000BDB8  41 06 10 00 90 00 00 00... beq r2, r0, .signal_badarg
0000BDC0  01 65 00 00 00 D0 08 00... move.l  r12, #KERN_DATA_BASE
0000BDC8  34 7F 08 00 05 00 00 00... lsl     r15, r1, #5
0000BDD0  20 7F 78 00 40 00 00 00... add     r15, r15, #KD_TASK_BASE
0000BDD8  20 7E 78 60 00 00 00 00... add     r15, r15, r12
0000BDE0  10 A5 78 00 18 00 00 00... load.l  r20, KD_TASK_SIG_RECV(r15)
0000BDE8  31 A6 A0 C8 00 00 00 00... or      r20, r20, r25
0000BDF0  11 A5 78 00 18 00 00 00... store.l r20, KD_TASK_SIG_RECV(r15)
0000BDF8  10 A9 78 00 1C 00 00 00... load.b  r21, KD_TASK_STATE(r15)
0000BE00  01 B5 00 00 02 00 00 00... move.l  r22, #TASK_WAITING
0000BE08  42 06 A8 B0 30 00 00 00... bne     r21, r22, .signal_done
0000BE10  10 BD 78 00 14 00 00 00... load.l  r23, KD_TASK_SIG_WAIT(r15)
0000BE18  30 C6 A0 B8 00 00 00 00... and     r24, r20, r23
0000BE20  41 06 C0 00 18 00 00 00... beq r24, r0, .signal_done
0000BE28  01 A9 00 00 00 00 00 00... move.b  r21, #TASK_READY
0000BE30  11 A9 78 00 1C 00 00 00... store.b r21, KD_TASK_STATE(r15)
                         .signal_done:
0000BE38  01 17 00 00 00 00 00 00... move.q  r2, #ERR_OK
0000BE40  E8 00 00 00 00 00 00 00... eret
                         .signal_badarg:
0000BE48  01 17 00 00 03 00 00 00... move.q  r2, #ERR_BADARG
0000BE50  E8 00 00 00 00 00 00 00... eret
                         .do_wait:
0000BE58  01 65 00 00 00 D0 08 00... move.l  r12, #KERN_DATA_BASE
0000BE60  10 6E 60 00 00 00 00 00... load.q  r13, (r12)
0000BE68  34 7F 68 00 05 00 00 00... lsl     r15, r13, #5
0000BE70  20 7F 78 00 40 00 00 00... add     r15, r15, #KD_TASK_BASE
0000BE78  20 7E 78 60 00 00 00 00... add     r15, r15, r12
0000BE80  10 A5 78 00 18 00 00 00... load.l  r20, KD_TASK_SIG_RECV(r15)
0000BE88  30 AE A0 08 00 00 00 00... and     r21, r20, r1
0000BE90  41 06 A8 00 38 00 00 00... beq r21, r0, .wait_block
0000BE98  33 B6 A8 00 00 00 00 00... not     r22, r21
0000BEA0  30 A6 A0 B0 00 00 00 00... and     r20, r20, r22
0000BEA8  11 A5 78 00 18 00 00 00... store.l r20, KD_TASK_SIG_RECV(r15)
0000BEB0  01 0E A8 00 00 00 00 00... move.q  r1, r21
0000BEB8  01 17 00 00 00 00 00 00... move.q  r2, #ERR_OK
0000BEC0  E8 00 00 00 00 00 00 00... eret
                         .wait_block:
0000BEC8  52 06 08 00 00 00 00 00... push    r1
0000BED0  52 06 78 00 00 00 00 00... push    r15
0000BED8  01 65 00 00 00 D0 08 00... move.l  r12, #KERN_DATA_BASE
0000BEE0  10 0E 60 00 00 00 00 00... load.q  r1, (r12)
0000BEE8  01 15 00 00 02 00 00 00... move.l  r2, #QUOTA_KIND_WAITERS
0000BEF0  01 1D 00 00 01 00 00 00... move.l  r3, #1
0000BEF8  50 06 00 00 C8 50 00 00... jsr     quota_check_and_charge
0000BF00  53 7E 00 00 00 00 00 00... pop     r15
0000BF08  01 BE 08 00 00 00 00 00... move.q  r23, r1
0000BF10  53 0E 00 00 00 00 00 00... pop     r1
0000BF18  41 06 B8 00 20 00 00 00... beq r23, r0, .wait_charge_ok
0000BF20  01 0F 00 00 00 00 00 00... move.q  r1, #0
0000BF28  01 17 00 00 0A 00 00 00... move.q  r2, #ERR_QUOTA
0000BF30  E8 00 00 00 00 00 00 00... eret
                         .wait_charge_ok:
0000BF38  11 0D 78 00 14 00 00 00... store.l r1, KD_TASK_SIG_WAIT(r15)
0000BF40  01 B1 00 00 02 00 00 00... move.b  r22, #TASK_WAITING
0000BF48  11 B1 78 00 1C 00 00 00... store.b r22, KD_TASK_STATE(r15)
0000BF50  E7 70 18 00 00 00 00 00... mfcr    r14, cr3
0000BF58  11 76 78 00 00 00 00 00... store.q r14, KD_TASK_PC(r15)
0000BF60  E7 70 60 00 00 00 00 00... mfcr    r14, cr12
0000BF68  11 77 78 00 08 00 00 00... store.q r14, KD_TASK_USP(r15)
0000BF70  11 01 78 00 1E 00 00 00... store.b r0, KD_TASK_GPR_SAVED(r15)
0000BF78  50 06 00 00 00 5C FF FF... jsr     find_next_runnable
0000BF80  11 6E 60 00 00 00 00 00... store.q r13, (r12)
0000BF88  40 06 00 00 58 80 00 00... bra     restore_task
                         .do_create_port:
0000BF90  01 65 00 00 00 D0 08 00... move.l  r12, #KERN_DATA_BASE
0000BF98  10 6E 60 00 00 00 00 00... load.q  r13, (r12)
0000BFA0  01 3E 08 00 00 00 00 00... move.q  r7, r1
0000BFA8  01 46 10 00 00 00 00 00... move.q  r8, r2
0000BFB0  52 06 68 00 00 00 00 00... push    r13
0000BFB8  52 06 38 00 00 00 00 00... push    r7
0000BFC0  52 06 40 00 00 00 00 00... push    r8
0000BFC8  50 06 00 00 38 E1 FF FF... jsr     kern_port_alloc_slot
0000BFD0  53 46 00 00 00 00 00 00... pop     r8
0000BFD8  53 3E 00 00 00 00 00 00... pop     r7
0000BFE0  53 6E 00 00 00 00 00 00... pop     r13
0000BFE8  41 06 08 00 A8 02 00 00... beq r1, r0, .create_full
0000BFF0  01 AE 08 00 00 00 00 00... move.q  r21, r1
0000BFF8  01 A6 10 00 00 00 00 00... move.q  r20, r2
                         .create_slot_found:
0000C000  42 06 38 00 28 00 00 00... bne r7, r0, .create_named
0000C008  01 BD 00 00 01 00 00 00... move.l  r23, #PF_PUBLIC
0000C010  33 BE B8 00 00 00 00 00... not     r23, r23
0000C018  30 46 40 B8 00 00 00 00... and     r8, r8, r23
0000C020  40 06 00 00 D0 00 00 00... bra     .create_commit
                         .create_named:
0000C028  01 0E 38 00 00 00 00 00... move.q  r1, r7
0000C030  52 06 38 00 00 00 00 00... push    r7
0000C038  52 06 A0 00 00 00 00 00... push    r20
0000C040  52 06 A8 00 00 00 00 00... push    r21
0000C048  52 06 40 00 00 00 00 00... push    r8
0000C050  50 06 00 00 A0 E9 FF FF... jsr     safe_copy_user_name
0000C058  53 46 00 00 00 00 00 00... pop     r8
0000C060  53 AE 00 00 00 00 00 00... pop     r21
0000C068  53 A6 00 00 00 00 00 00... pop     r20
0000C070  53 3E 00 00 00 00 00 00... pop     r7
0000C078  42 06 B8 00 28 02 00 00... bne r23, r0, .create_badarg
0000C080  30 BF 40 00 01 00 00 00... and     r23, r8, #PF_PUBLIC
0000C088  41 06 B8 00 68 00 00 00... beq r23, r0, .create_commit
0000C090  52 06 A0 00 00 00 00 00... push    r20
0000C098  52 06 A8 00 00 00 00 00... push    r21
0000C0A0  52 06 40 00 00 00 00 00... push    r8
0000C0A8  52 06 68 00 00 00 00 00... push    r13
0000C0B0  52 06 38 00 00 00 00 00... push    r7
0000C0B8  50 06 00 00 80 EB FF FF... jsr     check_name_unique
0000C0C0  53 3E 00 00 00 00 00 00... pop     r7
0000C0C8  53 6E 00 00 00 00 00 00... pop     r13
0000C0D0  53 46 00 00 00 00 00 00... pop     r8
0000C0D8  53 AE 00 00 00 00 00 00... pop     r21
0000C0E0  53 A6 00 00 00 00 00 00... pop     r20
0000C0E8  42 06 B8 00 C8 01 00 00... bne r23, r0, .create_exists
                         .create_commit:
0000C0F0  52 06 38 00 00 00 00 00... push    r7
0000C0F8  52 06 40 00 00 00 00 00... push    r8
0000C100  52 06 A0 00 00 00 00 00... push    r20
0000C108  52 06 A8 00 00 00 00 00... push    r21
0000C110  01 0E 68 00 00 00 00 00... move.q  r1, r13
0000C118  01 15 00 00 01 00 00 00... move.l  r2, #QUOTA_KIND_PORTS
0000C120  01 1D 00 00 01 00 00 00... move.l  r3, #1
0000C128  50 06 00 00 98 4E 00 00... jsr     quota_check_and_charge
0000C130  53 AE 00 00 00 00 00 00... pop     r21
0000C138  53 A6 00 00 00 00 00 00... pop     r20
0000C140  53 46 00 00 00 00 00 00... pop     r8
0000C148  53 3E 00 00 00 00 00 00... pop     r7
0000C150  41 06 08 00 20 00 00 00... beq r1, r0, .create_do_commit
0000C158  01 0F 00 00 00 00 00 00... move.q  r1, #0
0000C160  01 17 00 00 0A 00 00 00... move.q  r2, #ERR_QUOTA
0000C168  E8 00 00 00 00 00 00 00... eret
                         .create_do_commit:
0000C170  01 B9 00 00 01 00 00 00... move.b  r23, #1
0000C178  11 B8 A8 00 00 00 00 00... store.b r23, KD_PORT_VALID(r21)
0000C180  11 69 A8 00 01 00 00 00... store.b r13, KD_PORT_OWNER(r21)
0000C188  11 01 A8 00 02 00 00 00... store.b r0, KD_PORT_COUNT(r21)
0000C190  11 01 A8 00 03 00 00 00... store.b r0, KD_PORT_HEAD(r21)
0000C198  11 01 A8 00 04 00 00 00... store.b r0, KD_PORT_TAIL(r21)
0000C1A0  11 41 A8 00 05 00 00 00... store.b r8, KD_PORT_FLAGS(r21)
0000C1A8  11 07 A8 00 08 00 00 00... store.q r0, KD_PORT_NAME(r21)
0000C1B0  20 BF A8 00 08 00 00 00... add     r23, r21, #KD_PORT_NAME
0000C1B8  20 BF B8 00 08 00 00 00... add     r23, r23, #8
0000C1C0  11 06 B8 00 00 00 00 00... store.q r0, (r23)
0000C1C8  20 BF B8 00 08 00 00 00... add     r23, r23, #8
0000C1D0  11 06 B8 00 00 00 00 00... store.q r0, (r23)
0000C1D8  20 BF B8 00 08 00 00 00... add     r23, r23, #8
0000C1E0  11 06 B8 00 00 00 00 00... store.q r0, (r23)
0000C1E8  41 06 38 00 90 00 00 00... beq r7, r0, .create_done
0000C1F0  01 75 00 00 00 D0 08 00... move.l  r14, #KERN_DATA_BASE
0000C1F8  20 77 70 00 20 00 00 00... add     r14, r14, #KD_NAME_SCRATCH
0000C200  20 87 A8 00 08 00 00 00... add     r16, r21, #KD_PORT_NAME
0000C208  10 8E 70 00 00 00 00 00... load.q  r17, (r14)
0000C210  11 8E 80 00 00 00 00 00... store.q r17, (r16)
0000C218  20 77 70 00 08 00 00 00... add     r14, r14, #8
0000C220  20 87 80 00 08 00 00 00... add     r16, r16, #8
0000C228  10 8E 70 00 00 00 00 00... load.q  r17, (r14)
0000C230  11 8E 80 00 00 00 00 00... store.q r17, (r16)
0000C238  20 77 70 00 08 00 00 00... add     r14, r14, #8
0000C240  20 87 80 00 08 00 00 00... add     r16, r16, #8
0000C248  10 8E 70 00 00 00 00 00... load.q  r17, (r14)
0000C250  11 8E 80 00 00 00 00 00... store.q r17, (r16)
0000C258  20 77 70 00 08 00 00 00... add     r14, r14, #8
0000C260  20 87 80 00 08 00 00 00... add     r16, r16, #8
0000C268  10 8E 70 00 00 00 00 00... load.q  r17, (r14)
0000C270  11 8E 80 00 00 00 00 00... store.q r17, (r16)
                         .create_done:
0000C278  01 0E A0 00 00 00 00 00... move.q  r1, r20
0000C280  01 17 00 00 00 00 00 00... move.q  r2, #ERR_OK
0000C288  E8 00 00 00 00 00 00 00... eret
                         .create_full:
0000C290  01 17 00 00 01 00 00 00... move.q  r2, #ERR_NOMEM
0000C298  E8 00 00 00 00 00 00 00... eret
                         .create_badarg:
0000C2A0  01 17 00 00 03 00 00 00... move.q  r2, #ERR_BADARG
0000C2A8  E8 00 00 00 00 00 00 00... eret
                         .create_exists:
0000C2B0  01 17 00 00 08 00 00 00... move.q  r2, #ERR_EXISTS
0000C2B8  E8 00 00 00 00 00 00 00... eret
                         .do_find_port:
0000C2C0  01 65 00 00 00 D0 08 00... move.l  r12, #KERN_DATA_BASE
0000C2C8  10 6E 60 00 00 00 00 00... load.q  r13, (r12)
0000C2D0  52 06 08 00 00 00 00 00... push    r1
0000C2D8  50 06 00 00 18 E7 FF FF... jsr     safe_copy_user_name
0000C2E0  53 0E 00 00 00 00 00 00... pop     r1
0000C2E8  42 06 B8 00 40 00 00 00... bne r23, r0, .findport_badarg
0000C2F0  50 06 00 00 80 E1 FF FF... jsr     kern_port_find_public
0000C2F8  41 06 08 00 20 00 00 00... beq r1, r0, .findport_notfound
0000C300  01 0E 10 00 00 00 00 00... move.q  r1, r2
0000C308  01 17 00 00 00 00 00 00... move.q  r2, #ERR_OK
0000C310  E8 00 00 00 00 00 00 00... eret
                         .findport_notfound:
0000C318  01 17 00 00 04 00 00 00... move.q  r2, #ERR_NOTFOUND
0000C320  E8 00 00 00 00 00 00 00... eret
                         .findport_badarg:
0000C328  01 17 00 00 03 00 00 00... move.q  r2, #ERR_BADARG
0000C330  E8 00 00 00 00 00 00 00... eret
                         .do_reply_msg:
0000C338  01 36 28 00 00 00 00 00... move.q  r6, r5
0000C340  01 2D 00 00 FF FF 00 00... move.l  r5, #REPLY_PORT_NONE
                         .do_put_msg:
0000C348  52 06 10 00 00 00 00 00... push    r2
0000C350  52 06 18 00 00 00 00 00... push    r3
0000C358  52 06 20 00 00 00 00 00... push    r4
0000C360  52 06 28 00 00 00 00 00... push    r5
0000C368  52 06 30 00 00 00 00 00... push    r6
0000C370  50 06 00 00 00 E0 FF FF... jsr     kern_port_addr_for_id
0000C378  53 36 00 00 00 00 00 00... pop     r6
0000C380  53 2E 00 00 00 00 00 00... pop     r5
0000C388  53 26 00 00 00 00 00 00... pop     r4
0000C390  53 1E 00 00 00 00 00 00... pop     r3
0000C398  53 16 00 00 00 00 00 00... pop     r2
0000C3A0  41 06 08 00 50 02 00 00... beq r1, r0, .putmsg_badarg
0000C3A8  01 AE 08 00 00 00 00 00... move.q  r21, r1
0000C3B0  01 65 00 00 00 D0 08 00... move.l  r12, #KERN_DATA_BASE
0000C3B8  10 6E 60 00 00 00 00 00... load.q  r13, (r12)
0000C3C0  10 B8 A8 00 00 00 00 00... load.b  r23, KD_PORT_VALID(r21)
0000C3C8  41 06 B8 00 28 02 00 00... beq r23, r0, .putmsg_badarg
0000C3D0  52 06 10 00 00 00 00 00... push    r2
0000C3D8  52 06 18 00 00 00 00 00... push    r3
0000C3E0  52 06 20 00 00 00 00 00... push    r4
0000C3E8  52 06 28 00 00 00 00 00... push    r5
0000C3F0  52 06 30 00 00 00 00 00... push    r6
0000C3F8  52 06 A8 00 00 00 00 00... push    r21
0000C400  01 0E A8 00 00 00 00 00... move.q  r1, r21
0000C408  50 06 00 00 A0 D6 FF FF... jsr     kern_port_is_exec_library
0000C410  53 AE 00 00 00 00 00 00... pop     r21
0000C418  53 36 00 00 00 00 00 00... pop     r6
0000C420  53 2E 00 00 00 00 00 00... pop     r5
0000C428  53 26 00 00 00 00 00 00... pop     r4
0000C430  53 1E 00 00 00 00 00 00... pop     r3
0000C438  53 16 00 00 00 00 00 00... pop     r2
0000C440  42 06 08 00 D0 01 00 00... bne r1, r0, .putmsg_exec_library
0000C448  10 C1 A8 00 02 00 00 00... load.b  r24, KD_PORT_COUNT(r21)
0000C450  01 CD 00 00 04 00 00 00... move.l  r25, #KD_PORT_FIFO_SIZE
0000C458  44 06 C0 C8 A8 01 00 00... bge     r24, r25, .putmsg_full
0000C460  10 C9 A8 00 04 00 00 00... load.b  r25, KD_PORT_TAIL(r21)
0000C468  01 D5 00 00 20 00 00 00... move.l  r26, #KD_MSG_SIZE
0000C470  22 D6 C8 D0 00 00 00 00... mulu    r26, r25, r26
0000C478  20 D6 D0 A8 00 00 00 00... add     r26, r26, r21
0000C480  20 D7 D0 00 28 00 00 00... add     r26, r26, #KD_PORT_MSGS
0000C488  11 14 D0 00 00 00 00 00... store.l r2, KD_MSG_TYPE(r26)
0000C490  52 06 10 00 00 00 00 00... push    r2
0000C498  52 06 18 00 00 00 00 00... push    r3
0000C4A0  52 06 20 00 00 00 00 00... push    r4
0000C4A8  52 06 28 00 00 00 00 00... push    r5
0000C4B0  52 06 30 00 00 00 00 00... push    r6
0000C4B8  52 06 A8 00 00 00 00 00... push    r21
0000C4C0  52 06 C0 00 00 00 00 00... push    r24
0000C4C8  52 06 C8 00 00 00 00 00... push    r25
0000C4D0  50 06 00 00 E0 5B FF FF... jsr     kern_current_public_task_id
0000C4D8  53 CE 00 00 00 00 00 00... pop     r25
0000C4E0  53 C6 00 00 00 00 00 00... pop     r24
0000C4E8  53 AE 00 00 00 00 00 00... pop     r21
0000C4F0  53 36 00 00 00 00 00 00... pop     r6
0000C4F8  53 2E 00 00 00 00 00 00... pop     r5
0000C500  53 26 00 00 00 00 00 00... pop     r4
0000C508  53 1E 00 00 00 00 00 00... pop     r3
0000C510  53 16 00 00 00 00 00 00... pop     r2
0000C518  11 0D D0 00 04 00 00 00... store.l r1, KD_MSG_SRC(r26)
0000C520  11 1F D0 00 08 00 00 00... store.q r3, KD_MSG_DATA0(r26)
0000C528  11 27 D0 00 10 00 00 00... store.q r4, KD_MSG_DATA1(r26)
0000C530  11 2B D0 00 18 00 00 00... store.w r5, KD_MSG_REPLY_PORT(r26)
0000C538  11 35 D0 00 1A 00 00 00... store.l r6, KD_MSG_SHARE_HDL(r26)
0000C540  20 CF C8 00 01 00 00 00... add     r25, r25, #1
0000C548  30 CF C8 00 03 00 00 00... and     r25, r25, #3
0000C550  11 C9 A8 00 04 00 00 00... store.b r25, KD_PORT_TAIL(r21)
0000C558  20 C7 C0 00 01 00 00 00... add     r24, r24, #1
0000C560  11 C1 A8 00 02 00 00 00... store.b r24, KD_PORT_COUNT(r21)
0000C568  10 D9 A8 00 01 00 00 00... load.b  r27, KD_PORT_OWNER(r21)
0000C570  34 E7 D8 00 05 00 00 00... lsl     r28, r27, #5
0000C578  20 E7 E0 00 40 00 00 00... add     r28, r28, #KD_TASK_BASE
0000C580  20 E6 E0 60 00 00 00 00... add     r28, r28, r12
0000C588  10 ED E0 00 18 00 00 00... load.l  r29, KD_TASK_SIG_RECV(r28)
0000C590  31 EF E8 00 01 00 00 00... or      r29, r29, #SIGF_PORT
0000C598  11 ED E0 00 18 00 00 00... store.l r29, KD_TASK_SIG_RECV(r28)
0000C5A0  10 F1 E0 00 1C 00 00 00... load.b  r30, KD_TASK_STATE(r28)
0000C5A8  01 A5 00 00 02 00 00 00... move.l  r20, #TASK_WAITING
0000C5B0  42 06 F0 A0 30 00 00 00... bne     r30, r20, .putmsg_done
0000C5B8  10 A5 E0 00 14 00 00 00... load.l  r20, KD_TASK_SIG_WAIT(r28)
0000C5C0  30 A7 A0 00 01 00 00 00... and     r20, r20, #SIGF_PORT
0000C5C8  41 06 A0 00 18 00 00 00... beq r20, r0, .putmsg_done
0000C5D0  01 F1 00 00 00 00 00 00... move.b  r30, #TASK_READY
0000C5D8  11 F1 E0 00 1C 00 00 00... store.b r30, KD_TASK_STATE(r28)
                         .putmsg_done:
0000C5E0  01 17 00 00 00 00 00 00... move.q  r2, #ERR_OK
0000C5E8  E8 00 00 00 00 00 00 00... eret
                         .putmsg_badarg:
0000C5F0  01 17 00 00 03 00 00 00... move.q  r2, #ERR_BADARG
0000C5F8  E8 00 00 00 00 00 00 00... eret
                         .putmsg_full:
0000C600  01 17 00 00 09 00 00 00... move.q  r2, #ERR_FULL
0000C608  E8 00 00 00 00 00 00 00... eret
                         .putmsg_exec_library:
0000C610  01 5D 00 00 FF FF 00 00... move.l  r11, #REPLY_PORT_NONE
0000C618  41 06 28 58 D8 FF FF FF... beq     r5, r11, .putmsg_badarg
0000C620  01 5D 00 00 20 01 00 00... move.l  r11, #MSG_GET_IOSM
0000C628  41 06 10 58 B8 00 00 00... beq     r2, r11, .putmsg_exec_get_iosm
0000C630  01 5D 00 00 21 01 00 00... move.l  r11, #MSG_LIST_RESIDENTS
0000C638  41 06 10 58 38 01 00 00... beq     r2, r11, .putmsg_exec_list_residents
0000C640  01 5D 00 00 22 01 00 00... move.l  r11, #EXEC_MSG_ATTACH_HANDLER
0000C648  41 06 10 58 B8 02 00 00... beq     r2, r11, .putmsg_exec_attach_handler
0000C650  01 5D 00 00 23 01 00 00... move.l  r11, #EXEC_MSG_DETACH_HANDLER
0000C658  41 06 10 58 10 05 00 00... beq     r2, r11, .putmsg_exec_detach_handler
0000C660  01 5D 00 00 24 01 00 00... move.l  r11, #EXEC_MSG_OPEN_DEVICE
0000C668  41 06 10 58 68 03 00 00... beq     r2, r11, .putmsg_exec_open_device
0000C670  01 5D 00 00 25 01 00 00... move.l  r11, #EXEC_MSG_CLOSE_DEVICE
0000C678  41 06 10 58 60 05 00 00... beq     r2, r11, .putmsg_exec_close_device
0000C680  01 5D 00 00 26 01 00 00... move.l  r11, #EXEC_MSG_OPEN_RESOURCE
0000C688  41 06 10 58 18 04 00 00... beq     r2, r11, .putmsg_exec_open_resource
0000C690  01 5D 00 00 27 01 00 00... move.l  r11, #EXEC_MSG_CLOSE_RESOURCE
0000C698  41 06 10 58 B0 05 00 00... beq     r2, r11, .putmsg_exec_close_resource
0000C6A0  01 5D 00 00 28 01 00 00... move.l  r11, #EXEC_MSG_LIST_RESIDENT_INVENTORY
0000C6A8  41 06 10 58 58 01 00 00... beq     r2, r11, .putmsg_exec_list_resident_inventory
0000C6B0  01 1F 00 00 03 00 00 00... move.q  r3, #ERR_BADARG
0000C6B8  01 26 00 00 00 00 00 00... move.q  r4, r0
0000C6C0  01 0E 28 00 00 00 00 00... move.q  r1, r5
0000C6C8  01 17 00 00 03 00 00 00... move.q  r2, #ERR_BADARG
0000C6D0  01 2E 00 00 00 00 00 00... move.q  r5, r0
0000C6D8  40 06 00 00 60 FC FF FF... bra     .do_reply_msg
                         .putmsg_exec_get_iosm:
0000C6E0  52 06 10 00 00 00 00 00... push    r2
0000C6E8  52 06 28 00 00 00 00 00... push    r5
0000C6F0  01 0E 30 00 00 00 00 00... move.q  r1, r6
0000C6F8  01 15 00 00 01 00 00 00... move.l  r2, #1
0000C700  50 06 00 00 40 D4 FF FF... jsr     kern_share_backing_for_handle
0000C708  01 A6 08 00 00 00 00 00... move.q  r20, r1
0000C710  01 AE 10 00 00 00 00 00... move.q  r21, r2
0000C718  53 2E 00 00 00 00 00 00... pop     r5
0000C720  53 16 00 00 00 00 00 00... pop     r2
0000C728  42 06 A8 00 F0 05 00 00... bne r21, r0, .putmsg_exec_reply_err
0000C730  01 0E A0 00 00 00 00 00... move.q  r1, r20
0000C738  50 06 00 00 F8 D4 FF FF... jsr     kern_copy_exec_iosm
0000C740  01 1E 00 00 00 00 00 00... move.q  r3, r0
0000C748  01 26 00 00 00 00 00 00... move.q  r4, r0
0000C750  01 0E 28 00 00 00 00 00... move.q  r1, r5
0000C758  01 17 00 00 00 00 00 00... move.q  r2, #ERR_OK
0000C760  01 2E 00 00 00 00 00 00... move.q  r5, r0
0000C768  40 06 00 00 D0 FB FF FF... bra     .do_reply_msg
                         .putmsg_exec_list_residents:
0000C770  52 06 10 00 00 00 00 00... push    r2
0000C778  52 06 28 00 00 00 00 00... push    r5
0000C780  01 0E 30 00 00 00 00 00... move.q  r1, r6
0000C788  01 15 00 00 01 00 00 00... move.l  r2, #1
0000C790  50 06 00 00 B0 D3 FF FF... jsr     kern_share_backing_for_handle
0000C798  01 A6 08 00 00 00 00 00... move.q  r20, r1
0000C7A0  01 AE 10 00 00 00 00 00... move.q  r21, r2
0000C7A8  53 2E 00 00 00 00 00 00... pop     r5
0000C7B0  53 16 00 00 00 00 00 00... pop     r2
0000C7B8  42 06 A8 00 60 05 00 00... bne r21, r0, .putmsg_exec_reply_err
0000C7C0  01 0E A0 00 00 00 00 00... move.q  r1, r20
0000C7C8  50 06 00 00 C8 D4 FF FF... jsr     kern_write_resident_list
0000C7D0  01 1E 08 00 00 00 00 00... move.q  r3, r1
0000C7D8  01 26 10 00 00 00 00 00... move.q  r4, r2
0000C7E0  01 0E 28 00 00 00 00 00... move.q  r1, r5
0000C7E8  01 15 00 00 21 01 00 00... move.l  r2, #MSG_LIST_RESIDENTS
0000C7F0  01 2E 00 00 00 00 00 00... move.q  r5, r0
0000C7F8  40 06 00 00 40 FB FF FF... bra     .do_reply_msg
                         .putmsg_exec_list_resident_inventory:
0000C800  01 A6 10 00 00 00 00 00... move.q  r20, r2
0000C808  01 BE 28 00 00 00 00 00... move.q  r23, r5
0000C810  01 0E 30 00 00 00 00 00... move.q  r1, r6
0000C818  01 15 00 00 01 00 00 00... move.l  r2, #1
0000C820  52 06 A0 00 00 00 00 00... push    r20
0000C828  52 06 B8 00 00 00 00 00... push    r23
0000C830  50 06 00 00 10 D3 FF FF... jsr     kern_share_backing_for_handle
0000C838  01 AE 08 00 00 00 00 00... move.q  r21, r1
0000C840  01 B6 10 00 00 00 00 00... move.q  r22, r2
0000C848  53 BE 00 00 00 00 00 00... pop     r23
0000C850  53 A6 00 00 00 00 00 00... pop     r20
0000C858  42 06 B0 00 70 00 00 00... bne r22, r0, .putmsg_exec_inventory_reply_err
0000C860  01 0E A8 00 00 00 00 00... move.q  r1, r21
0000C868  52 06 A0 00 00 00 00 00... push    r20
0000C870  52 06 B8 00 00 00 00 00... push    r23
0000C878  50 06 00 00 08 D6 FF FF... jsr     kern_write_resident_inventory
0000C880  53 BE 00 00 00 00 00 00... pop     r23
0000C888  53 A6 00 00 00 00 00 00... pop     r20
0000C890  01 1E 08 00 00 00 00 00... move.q  r3, r1
0000C898  01 27 00 00 00 00 00 00... move.q  r4, #ERR_OK
0000C8A0  01 0E B8 00 00 00 00 00... move.q  r1, r23
0000C8A8  01 16 A0 00 00 00 00 00... move.q  r2, r20
0000C8B0  31 17 10 00 00 00 00 80... or      r2, r2, #EXEC_REPLY_FLAG
0000C8B8  01 2E 00 00 00 00 00 00... move.q  r5, r0
0000C8C0  40 06 00 00 78 FA FF FF... bra     .do_reply_msg
                         .putmsg_exec_inventory_reply_err:
0000C8C8  01 1E 00 00 00 00 00 00... move.q  r3, r0
0000C8D0  01 26 B0 00 00 00 00 00... move.q  r4, r22
0000C8D8  01 0E B8 00 00 00 00 00... move.q  r1, r23
0000C8E0  01 16 A0 00 00 00 00 00... move.q  r2, r20
0000C8E8  31 17 10 00 00 00 00 80... or      r2, r2, #EXEC_REPLY_FLAG
0000C8F0  01 2E 00 00 00 00 00 00... move.q  r5, r0
0000C8F8  40 06 00 00 40 FA FF FF... bra     .do_reply_msg
                         .putmsg_exec_attach_handler:
0000C900  01 A6 10 00 00 00 00 00... move.q  r20, r2
0000C908  01 AE 18 00 00 00 00 00... move.q  r21, r3
0000C910  01 B6 20 00 00 00 00 00... move.q  r22, r4
0000C918  01 BE 28 00 00 00 00 00... move.q  r23, r5
0000C920  01 0E 30 00 00 00 00 00... move.q  r1, r6
0000C928  01 15 00 00 01 00 00 00... move.l  r2, #1
0000C930  52 06 A0 00 00 00 00 00... push    r20
0000C938  52 06 A8 00 00 00 00 00... push    r21
0000C940  52 06 B0 00 00 00 00 00... push    r22
0000C948  52 06 B8 00 00 00 00 00... push    r23
0000C950  50 06 00 00 48 67 00 00... jsr     m1621_parse_module_request
0000C958  53 BE 00 00 00 00 00 00... pop     r23
0000C960  53 B6 00 00 00 00 00 00... pop     r22
0000C968  53 AE 00 00 00 00 00 00... pop     r21
0000C970  53 A6 00 00 00 00 00 00... pop     r20
0000C978  42 06 10 00 68 03 00 00... bne r2, r0, .putmsg_exec_module_reply_saved
0000C980  42 06 B0 00 38 03 00 00... bne r22, r0, .putmsg_exec_badarg_saved
0000C988  42 06 A8 00 48 03 00 00... bne r21, r0, .putmsg_exec_unsupported_saved
0000C990  01 0D 00 00 03 00 00 00... move.l  r1, #MODCLASS_HANDLER
0000C998  01 17 00 00 00 00 00 00... move.q  r2, #0
0000C9A0  52 06 A0 00 00 00 00 00... push    r20
0000C9A8  52 06 B8 00 00 00 00 00... push    r23
0000C9B0  50 06 00 00 68 68 00 00... jsr     m1621_acquire_module_handle
0000C9B8  53 BE 00 00 00 00 00 00... pop     r23
0000C9C0  53 A6 00 00 00 00 00 00... pop     r20
0000C9C8  40 06 00 00 18 03 00 00... bra     .putmsg_exec_module_reply_saved
                         .putmsg_exec_open_device:
0000C9D0  01 A6 10 00 00 00 00 00... move.q  r20, r2
0000C9D8  01 AE 18 00 00 00 00 00... move.q  r21, r3
0000C9E0  01 B6 20 00 00 00 00 00... move.q  r22, r4
0000C9E8  01 BE 28 00 00 00 00 00... move.q  r23, r5
0000C9F0  01 0E 30 00 00 00 00 00... move.q  r1, r6
0000C9F8  01 15 00 00 01 00 00 00... move.l  r2, #1
0000CA00  52 06 A0 00 00 00 00 00... push    r20
0000CA08  52 06 A8 00 00 00 00 00... push    r21
0000CA10  52 06 B0 00 00 00 00 00... push    r22
0000CA18  52 06 B8 00 00 00 00 00... push    r23
0000CA20  50 06 00 00 78 66 00 00... jsr     m1621_parse_module_request
0000CA28  53 BE 00 00 00 00 00 00... pop     r23
0000CA30  53 B6 00 00 00 00 00 00... pop     r22
0000CA38  53 AE 00 00 00 00 00 00... pop     r21
0000CA40  53 A6 00 00 00 00 00 00... pop     r20
0000CA48  42 06 10 00 98 02 00 00... bne r2, r0, .putmsg_exec_module_reply_saved
0000CA50  42 06 A8 00 80 02 00 00... bne r21, r0, .putmsg_exec_unsupported_saved
0000CA58  42 06 B0 00 78 02 00 00... bne r22, r0, .putmsg_exec_unsupported_saved
0000CA60  01 0D 00 00 02 00 00 00... move.l  r1, #MODCLASS_DEVICE
0000CA68  01 17 00 00 00 00 00 00... move.q  r2, #0
0000CA70  52 06 A0 00 00 00 00 00... push    r20
0000CA78  52 06 B8 00 00 00 00 00... push    r23
0000CA80  50 06 00 00 98 67 00 00... jsr     m1621_acquire_module_handle
0000CA88  53 BE 00 00 00 00 00 00... pop     r23
0000CA90  53 A6 00 00 00 00 00 00... pop     r20
0000CA98  40 06 00 00 48 02 00 00... bra     .putmsg_exec_module_reply_saved
                         .putmsg_exec_open_resource:
0000CAA0  01 A6 10 00 00 00 00 00... move.q  r20, r2
0000CAA8  01 AE 18 00 00 00 00 00... move.q  r21, r3
0000CAB0  01 B6 20 00 00 00 00 00... move.q  r22, r4
0000CAB8  01 BE 28 00 00 00 00 00... move.q  r23, r5
0000CAC0  01 0E 30 00 00 00 00 00... move.q  r1, r6
0000CAC8  01 15 00 00 01 00 00 00... move.l  r2, #1
0000CAD0  52 06 A0 00 00 00 00 00... push    r20
0000CAD8  52 06 A8 00 00 00 00 00... push    r21
0000CAE0  52 06 B0 00 00 00 00 00... push    r22
0000CAE8  52 06 B8 00 00 00 00 00... push    r23
0000CAF0  50 06 00 00 A8 65 00 00... jsr     m1621_parse_module_request
0000CAF8  53 BE 00 00 00 00 00 00... pop     r23
0000CB00  53 B6 00 00 00 00 00 00... pop     r22
0000CB08  53 AE 00 00 00 00 00 00... pop     r21
0000CB10  53 A6 00 00 00 00 00 00... pop     r20
0000CB18  42 06 10 00 C8 01 00 00... bne r2, r0, .putmsg_exec_module_reply_saved
0000CB20  42 06 B0 00 98 01 00 00... bne r22, r0, .putmsg_exec_badarg_saved
0000CB28  01 0D 00 00 04 00 00 00... move.l  r1, #MODCLASS_RESOURCE
0000CB30  01 16 A8 00 00 00 00 00... move.q  r2, r21
0000CB38  52 06 A0 00 00 00 00 00... push    r20
0000CB40  52 06 B8 00 00 00 00 00... push    r23
0000CB48  50 06 00 00 D0 66 00 00... jsr     m1621_acquire_module_handle
0000CB50  53 BE 00 00 00 00 00 00... pop     r23
0000CB58  53 A6 00 00 00 00 00 00... pop     r20
0000CB60  40 06 00 00 80 01 00 00... bra     .putmsg_exec_module_reply_saved
                         .putmsg_exec_detach_handler:
0000CB68  01 A6 10 00 00 00 00 00... move.q  r20, r2
0000CB70  01 AE 18 00 00 00 00 00... move.q  r21, r3
0000CB78  01 B6 20 00 00 00 00 00... move.q  r22, r4
0000CB80  01 BE 28 00 00 00 00 00... move.q  r23, r5
0000CB88  42 06 B0 00 30 01 00 00... bne r22, r0, .putmsg_exec_badarg_saved
0000CB90  42 06 30 00 28 01 00 00... bne r6, r0, .putmsg_exec_badarg_saved
0000CB98  01 0E A8 00 00 00 00 00... move.q  r1, r21
0000CBA0  01 15 00 00 03 00 00 00... move.l  r2, #MODCLASS_HANDLER
0000CBA8  52 06 A0 00 00 00 00 00... push    r20
0000CBB0  52 06 B8 00 00 00 00 00... push    r23
0000CBB8  50 06 00 00 A0 68 00 00... jsr     m1621_release_module_handle
0000CBC0  53 BE 00 00 00 00 00 00... pop     r23
0000CBC8  53 A6 00 00 00 00 00 00... pop     r20
0000CBD0  40 06 00 00 10 01 00 00... bra     .putmsg_exec_module_reply_saved
                         .putmsg_exec_close_device:
0000CBD8  01 A6 10 00 00 00 00 00... move.q  r20, r2
0000CBE0  01 AE 18 00 00 00 00 00... move.q  r21, r3
0000CBE8  01 B6 20 00 00 00 00 00... move.q  r22, r4
0000CBF0  01 BE 28 00 00 00 00 00... move.q  r23, r5
0000CBF8  42 06 B0 00 C0 00 00 00... bne r22, r0, .putmsg_exec_badarg_saved
0000CC00  42 06 30 00 B8 00 00 00... bne r6, r0, .putmsg_exec_badarg_saved
0000CC08  01 0E A8 00 00 00 00 00... move.q  r1, r21
0000CC10  01 15 00 00 02 00 00 00... move.l  r2, #MODCLASS_DEVICE
0000CC18  52 06 A0 00 00 00 00 00... push    r20
0000CC20  52 06 B8 00 00 00 00 00... push    r23
0000CC28  50 06 00 00 30 68 00 00... jsr     m1621_release_module_handle
0000CC30  53 BE 00 00 00 00 00 00... pop     r23
0000CC38  53 A6 00 00 00 00 00 00... pop     r20
0000CC40  40 06 00 00 A0 00 00 00... bra     .putmsg_exec_module_reply_saved
                         .putmsg_exec_close_resource:
0000CC48  01 A6 10 00 00 00 00 00... move.q  r20, r2
0000CC50  01 AE 18 00 00 00 00 00... move.q  r21, r3
0000CC58  01 B6 20 00 00 00 00 00... move.q  r22, r4
0000CC60  01 BE 28 00 00 00 00 00... move.q  r23, r5
0000CC68  42 06 B0 00 50 00 00 00... bne r22, r0, .putmsg_exec_badarg_saved
0000CC70  42 06 30 00 48 00 00 00... bne r6, r0, .putmsg_exec_badarg_saved
0000CC78  01 0E A8 00 00 00 00 00... move.q  r1, r21
0000CC80  01 15 00 00 04 00 00 00... move.l  r2, #MODCLASS_RESOURCE
0000CC88  52 06 A0 00 00 00 00 00... push    r20
0000CC90  52 06 B8 00 00 00 00 00... push    r23
0000CC98  50 06 00 00 C0 67 00 00... jsr     m1621_release_module_handle
0000CCA0  53 BE 00 00 00 00 00 00... pop     r23
0000CCA8  53 A6 00 00 00 00 00 00... pop     r20
0000CCB0  40 06 00 00 30 00 00 00... bra     .putmsg_exec_module_reply_saved
                         .putmsg_exec_badarg_saved:
0000CCB8  01 0F 00 00 00 00 00 00... move.q  r1, #0
0000CCC0  01 17 00 00 03 00 00 00... move.q  r2, #ERR_BADARG
0000CCC8  40 06 00 00 18 00 00 00... bra     .putmsg_exec_module_reply_saved
                         .putmsg_exec_unsupported_saved:
0000CCD0  01 0F 00 00 00 00 00 00... move.q  r1, #0
0000CCD8  01 17 00 00 0C 00 00 00... move.q  r2, #ERR_UNSUPPORTED
                         .putmsg_exec_module_reply_saved:
0000CCE0  01 1E 08 00 00 00 00 00... move.q  r3, r1
0000CCE8  01 26 10 00 00 00 00 00... move.q  r4, r2
0000CCF0  01 0E B8 00 00 00 00 00... move.q  r1, r23
0000CCF8  01 16 A0 00 00 00 00 00... move.q  r2, r20
0000CD00  31 17 10 00 00 00 00 80... or      r2, r2, #EXEC_REPLY_FLAG
0000CD08  01 2E 00 00 00 00 00 00... move.q  r5, r0
0000CD10  40 06 00 00 28 F6 FF FF... bra     .do_reply_msg
                         .putmsg_exec_reply_err:
0000CD18  01 16 A8 00 00 00 00 00... move.q  r2, r21
0000CD20  01 1E A8 00 00 00 00 00... move.q  r3, r21
0000CD28  01 26 00 00 00 00 00 00... move.q  r4, r0
0000CD30  01 0E 28 00 00 00 00 00... move.q  r1, r5
0000CD38  01 2E 00 00 00 00 00 00... move.q  r5, r0
0000CD40  40 06 00 00 F8 F5 FF FF... bra     .do_reply_msg
                         .do_get_msg:
0000CD48  50 06 00 00 28 D6 FF FF... jsr     kern_port_addr_for_id
0000CD50  41 06 08 00 E0 00 00 00... beq r1, r0, .getmsg_badarg
0000CD58  01 AE 08 00 00 00 00 00... move.q  r21, r1
0000CD60  01 65 00 00 00 D0 08 00... move.l  r12, #KERN_DATA_BASE
0000CD68  10 6E 60 00 00 00 00 00... load.q  r13, (r12)
0000CD70  10 B8 A8 00 00 00 00 00... load.b  r23, KD_PORT_VALID(r21)
0000CD78  41 06 B8 00 B8 00 00 00... beq r23, r0, .getmsg_badarg
0000CD80  10 C1 A8 00 01 00 00 00... load.b  r24, KD_PORT_OWNER(r21)
0000CD88  42 06 68 C0 B8 00 00 00... bne     r13, r24, .getmsg_perm
0000CD90  10 C9 A8 00 02 00 00 00... load.b  r25, KD_PORT_COUNT(r21)
0000CD98  41 06 C8 00 B8 00 00 00... beq r25, r0, .getmsg_empty
0000CDA0  10 D1 A8 00 03 00 00 00... load.b  r26, KD_PORT_HEAD(r21)
0000CDA8  01 DD 00 00 20 00 00 00... move.l  r27, #KD_MSG_SIZE
0000CDB0  22 DE D0 D8 00 00 00 00... mulu    r27, r26, r27
0000CDB8  20 DE D8 A8 00 00 00 00... add     r27, r27, r21
0000CDC0  20 DF D8 00 28 00 00 00... add     r27, r27, #KD_PORT_MSGS
0000CDC8  10 0C D8 00 00 00 00 00... load.l  r1, KD_MSG_TYPE(r27)
0000CDD0  10 17 D8 00 08 00 00 00... load.q  r2, KD_MSG_DATA0(r27)
0000CDD8  10 27 D8 00 10 00 00 00... load.q  r4, KD_MSG_DATA1(r27)
0000CDE0  10 2B D8 00 18 00 00 00... load.w  r5, KD_MSG_REPLY_PORT(r27)
0000CDE8  10 35 D8 00 1A 00 00 00... load.l  r6, KD_MSG_SHARE_HDL(r27)
0000CDF0  10 3D D8 00 04 00 00 00... load.l  r7, KD_MSG_SRC(r27)
0000CDF8  20 D7 D0 00 01 00 00 00... add     r26, r26, #1
0000CE00  30 D7 D0 00 03 00 00 00... and     r26, r26, #3
0000CE08  11 D1 A8 00 03 00 00 00... store.b r26, KD_PORT_HEAD(r21)
0000CE10  21 CF C8 00 01 00 00 00... sub     r25, r25, #1
0000CE18  11 C9 A8 00 02 00 00 00... store.b r25, KD_PORT_COUNT(r21)
0000CE20  01 1F 00 00 00 00 00 00... move.q  r3, #ERR_OK
0000CE28  E8 00 00 00 00 00 00 00... eret
                         .getmsg_badarg:
0000CE30  01 1F 00 00 03 00 00 00... move.q  r3, #ERR_BADARG
0000CE38  E8 00 00 00 00 00 00 00... eret
                         .getmsg_perm:
0000CE40  01 1F 00 00 05 00 00 00... move.q  r3, #ERR_PERM
0000CE48  E8 00 00 00 00 00 00 00... eret
                         .getmsg_empty:
0000CE50  01 1F 00 00 06 00 00 00... move.q  r3, #ERR_AGAIN
0000CE58  E8 00 00 00 00 00 00 00... eret
                         .do_wait_port:
0000CE60  01 2E 08 00 00 00 00 00... move.q  r5, r1
                         .waitport_loop:
0000CE68  01 0E 28 00 00 00 00 00... move.q  r1, r5
0000CE70  50 06 00 00 00 D5 FF FF... jsr     kern_port_addr_for_id
0000CE78  41 06 08 00 08 02 00 00... beq r1, r0, .waitport_badarg
0000CE80  01 AE 08 00 00 00 00 00... move.q  r21, r1
0000CE88  01 65 00 00 00 D0 08 00... move.l  r12, #KERN_DATA_BASE
0000CE90  10 6E 60 00 00 00 00 00... load.q  r13, (r12)
0000CE98  10 B8 A8 00 00 00 00 00... load.b  r23, KD_PORT_VALID(r21)
0000CEA0  41 06 B8 00 E0 01 00 00... beq r23, r0, .waitport_badarg
0000CEA8  10 C1 A8 00 01 00 00 00... load.b  r24, KD_PORT_OWNER(r21)
0000CEB0  42 06 68 C0 E0 01 00 00... bne     r13, r24, .waitport_perm
0000CEB8  10 C9 A8 00 02 00 00 00... load.b  r25, KD_PORT_COUNT(r21)
0000CEC0  42 06 C8 00 28 01 00 00... bne r25, r0, .waitport_dequeue
0000CEC8  52 06 28 00 00 00 00 00... push    r5
0000CED0  52 06 38 00 00 00 00 00... push    r7
0000CED8  01 0E 68 00 00 00 00 00... move.q  r1, r13
0000CEE0  01 15 00 00 02 00 00 00... move.l  r2, #QUOTA_KIND_WAITERS
0000CEE8  01 1D 00 00 01 00 00 00... move.l  r3, #1
0000CEF0  50 06 00 00 D0 40 00 00... jsr     quota_check_and_charge
0000CEF8  53 3E 00 00 00 00 00 00... pop     r7
0000CF00  53 2E 00 00 00 00 00 00... pop     r5
0000CF08  41 06 08 00 20 00 00 00... beq r1, r0, .waitport_charge_ok
0000CF10  01 0F 00 00 00 00 00 00... move.q  r1, #0
0000CF18  01 1F 00 00 0A 00 00 00... move.q  r3, #ERR_QUOTA
0000CF20  E8 00 00 00 00 00 00 00... eret
                         .waitport_charge_ok:
0000CF28  34 7F 68 00 05 00 00 00... lsl     r15, r13, #5
0000CF30  20 7F 78 00 40 00 00 00... add     r15, r15, #KD_TASK_BASE
0000CF38  20 7E 78 60 00 00 00 00... add     r15, r15, r12
0000CF40  01 B5 00 00 01 00 00 00... move.l  r22, #SIGF_PORT
0000CF48  11 B5 78 00 14 00 00 00... store.l r22, KD_TASK_SIG_WAIT(r15)
0000CF50  01 0E 68 00 00 00 00 00... move.q  r1, r13
0000CF58  50 06 00 00 F8 50 FF FF... jsr     kern_task_layout_addr
0000CF60  10 85 08 00 24 00 00 00... load.l  r16, KD_TASK_LAYOUT_FLAGS(r1)
0000CF68  30 87 80 00 FF FF 00 00... and     r16, r16, #0x0000FFFF
0000CF70  01 8E 28 00 00 00 00 00... move.q  r17, r5
0000CF78  34 8F 88 00 10 00 00 00... lsl     r17, r17, #16
0000CF80  31 86 80 88 00 00 00 00... or      r16, r16, r17
0000CF88  11 85 08 00 24 00 00 00... store.l r16, KD_TASK_LAYOUT_FLAGS(r1)
0000CF90  11 01 78 00 1D 00 00 00... store.b r0, KD_TASK_WAITPORT(r15)
0000CF98  01 B1 00 00 02 00 00 00... move.b  r22, #TASK_WAITING
0000CFA0  11 B1 78 00 1C 00 00 00... store.b r22, KD_TASK_STATE(r15)
0000CFA8  E7 70 18 00 00 00 00 00... mfcr    r14, cr3
0000CFB0  11 76 78 00 00 00 00 00... store.q r14, KD_TASK_PC(r15)
0000CFB8  E7 70 60 00 00 00 00 00... mfcr    r14, cr12
0000CFC0  11 77 78 00 08 00 00 00... store.q r14, KD_TASK_USP(r15)
0000CFC8  11 01 78 00 1E 00 00 00... store.b r0, KD_TASK_GPR_SAVED(r15)
0000CFD0  50 06 00 00 A8 4B FF FF... jsr     find_next_runnable
0000CFD8  11 6E 60 00 00 00 00 00... store.q r13, (r12)
0000CFE0  40 06 00 00 00 70 00 00... bra     restore_task
                         .waitport_dequeue:
0000CFE8  10 D1 A8 00 03 00 00 00... load.b  r26, KD_PORT_HEAD(r21)
0000CFF0  01 DD 00 00 20 00 00 00... move.l  r27, #KD_MSG_SIZE
0000CFF8  22 DE D0 D8 00 00 00 00... mulu    r27, r26, r27
0000D000  20 DE D8 A8 00 00 00 00... add     r27, r27, r21
0000D008  20 DF D8 00 28 00 00 00... add     r27, r27, #KD_PORT_MSGS
0000D010  10 0C D8 00 00 00 00 00... load.l  r1, KD_MSG_TYPE(r27)
0000D018  10 17 D8 00 08 00 00 00... load.q  r2, KD_MSG_DATA0(r27)
0000D020  10 27 D8 00 10 00 00 00... load.q  r4, KD_MSG_DATA1(r27)
0000D028  10 2B D8 00 18 00 00 00... load.w  r5, KD_MSG_REPLY_PORT(r27)
0000D030  10 35 D8 00 1A 00 00 00... load.l  r6, KD_MSG_SHARE_HDL(r27)
0000D038  10 3D D8 00 04 00 00 00... load.l  r7, KD_MSG_SRC(r27)
0000D040  20 D7 D0 00 01 00 00 00... add     r26, r26, #1
0000D048  30 D7 D0 00 03 00 00 00... and     r26, r26, #3
0000D050  11 D1 A8 00 03 00 00 00... store.b r26, KD_PORT_HEAD(r21)
0000D058  10 C9 A8 00 02 00 00 00... load.b  r25, KD_PORT_COUNT(r21)
0000D060  21 CF C8 00 01 00 00 00... sub     r25, r25, #1
0000D068  11 C9 A8 00 02 00 00 00... store.b r25, KD_PORT_COUNT(r21)
0000D070  01 1F 00 00 00 00 00 00... move.q  r3, #ERR_OK
0000D078  E8 00 00 00 00 00 00 00... eret
                         .waitport_badarg:
0000D080  01 1F 00 00 03 00 00 00... move.q  r3, #ERR_BADARG
0000D088  E8 00 00 00 00 00 00 00... eret
                         .waitport_perm:
0000D090  01 1F 00 00 05 00 00 00... move.q  r3, #ERR_PERM
0000D098  E8 00 00 00 00 00 00 00... eret
                         .do_create_task:
0000D0A0  01 C6 08 00 00 00 00 00... move.q  r24, r1
0000D0A8  01 CE 10 00 00 00 00 00... move.q  r25, r2
0000D0B0  01 D6 18 00 00 00 00 00... move.q  r26, r3
0000D0B8  41 06 C8 00 78 04 00 00... beq r25, r0, .ct_badarg
0000D0C0  01 5D 00 00 00 10 00 00... move.l  r11, #MMU_PAGE_SIZE
0000D0C8  45 06 C8 58 68 04 00 00... bgt     r25, r11, .ct_badarg
0000D0D0  20 CF C8 00 07 00 00 00... add     r25, r25, #7
0000D0D8  30 CF C8 00 F8 FF FF FF... and     r25, r25, #0xFFFFFFF8
0000D0E0  01 5D 00 00 00 00 00 02... move.l  r11, #0x2000000
0000D0E8  44 06 C0 58 48 04 00 00... bge     r24, r11, .ct_badarg
0000D0F0  E7 E0 00 00 00 00 00 00... mfcr    r28, cr0
0000D0F8  01 0E C0 00 00 00 00 00... move.q  r1, r24
0000D100  01 16 C8 00 00 00 00 00... move.q  r2, r25
0000D108  01 1E E0 00 00 00 00 00... move.q  r3, r28
0000D110  50 06 00 00 90 38 00 00... jsr     validate_user_read_range
0000D118  42 06 08 00 18 04 00 00... bne r1, r0, .ct_badarg
0000D120  01 65 00 00 00 D0 08 00... move.l  r12, #KERN_DATA_BASE
0000D128  10 6E 60 00 00 00 00 00... load.q  r13, (r12)
0000D130  01 A5 00 00 00 00 00 00... move.l  r20, #0
                         .ct_scan:
0000D138  01 5D 00 00 FF 00 00 00... move.l  r11, #MAX_TASKS
0000D140  44 06 A0 58 00 04 00 00... bge     r20, r11, .ct_nomem_nopub
0000D148  34 7F A0 00 05 00 00 00... lsl     r15, r20, #5
0000D150  20 7F 78 00 40 00 00 00... add     r15, r15, #KD_TASK_BASE
0000D158  20 7E 78 60 00 00 00 00... add     r15, r15, r12
0000D160  10 81 78 00 1C 00 00 00... load.b  r16, KD_TASK_STATE(r15)
0000D168  01 5D 00 00 03 00 00 00... move.l  r11, #TASK_FREE
0000D170  41 06 80 58 18 00 00 00... beq     r16, r11, .ct_found
0000D178  20 A7 A0 00 01 00 00 00... add     r20, r20, #1
0000D180  40 06 00 00 B8 FF FF FF... bra     .ct_scan
                         .ct_found:
0000D188  01 0D 00 00 01 00 00 00... move.l  r1, #1
0000D190  50 06 00 00 78 51 FF FF... jsr     alloc_task_image_pages
0000D198  42 06 10 00 A8 03 00 00... bne r2, r0, .ct_nomem_nopub
0000D1A0  01 AE 08 00 00 00 00 00... move.q  r21, r1
0000D1A8  01 0D 00 00 02 00 00 00... move.l  r1, #(1 + STACK_GUARD_PAGES)
0000D1B0  50 06 00 00 58 51 FF FF... jsr     alloc_task_image_pages
0000D1B8  42 06 10 00 B8 04 00 00... bne r2, r0, .ct_fail_free_code
0000D1C0  20 BF 08 00 00 10 00 00... add     r23, r1, #MMU_PAGE_SIZE
0000D1C8  01 0D 00 00 01 00 00 00... move.l  r1, #1
0000D1D0  50 06 00 00 38 51 FF FF... jsr     alloc_task_image_pages
0000D1D8  42 06 10 00 78 04 00 00... bne r2, r0, .ct_fail_free_stack
0000D1E0  01 B6 08 00 00 00 00 00... move.q  r22, r1
0000D1E8  01 0D 00 00 01 00 00 00... move.l  r1, #1
0000D1F0  50 06 00 00 18 51 FF FF... jsr     alloc_task_image_pages
0000D1F8  42 06 10 00 40 04 00 00... bne r2, r0, .ct_fail_free_data
0000D200  01 DE 08 00 00 00 00 00... move.q  r27, r1
0000D208  50 06 00 00 78 55 FF FF... jsr     alloc_task_pt_block
0000D210  42 06 10 00 10 04 00 00... bne r2, r0, .ct_fail_free_startup
0000D218  01 EE 08 00 00 00 00 00... move.q  r29, r1
0000D220  01 65 00 00 00 D0 08 00... move.l  r12, #KERN_DATA_BASE
0000D228  10 97 60 00 18 05 01 00... load.q  r18, KD_TASKID_NEXT(r12)
0000D230  01 76 90 00 00 00 00 00... move.q  r14, r18
0000D238  20 77 70 00 01 00 00 00... add     r14, r14, #1
0000D240  11 77 60 00 18 05 01 00... store.q r14, KD_TASKID_NEXT(r12)
0000D248  34 87 A0 00 02 00 00 00... lsl     r16, r20, #2
0000D250  20 87 80 00 18 01 01 00... add     r16, r16, #KD_TASK_PUBID_BASE
0000D258  20 86 80 60 00 00 00 00... add     r16, r16, r12
0000D260  11 94 80 00 00 00 00 00... store.l r18, (r16)
0000D268  01 25 00 00 00 00 00 00... move.l  r4, #0
0000D270  01 35 00 00 00 10 00 00... move.l  r6, #MMU_PAGE_SIZE
                         .ct_zero:
0000D278  44 06 20 30 28 00 00 00... bge     r4, r6, .ct_zero_done
0000D280  20 2E A8 20 00 00 00 00... add     r5, r21, r4
0000D288  11 06 28 00 00 00 00 00... store.q r0, (r5)
0000D290  20 27 20 00 08 00 00 00... add     r4, r4, #8
0000D298  40 06 00 00 E0 FF FF FF... bra     .ct_zero
                         .ct_zero_done:
0000D2A0  01 0E A8 00 00 00 00 00... move.q  r1, r21
0000D2A8  01 16 C0 00 00 00 00 00... move.q  r2, r24
0000D2B0  01 1E C8 00 00 00 00 00... move.q  r3, r25
0000D2B8  E7 20 00 00 00 00 00 00... mfcr    r4, cr0
0000D2C0  50 06 00 00 E0 37 00 00... jsr     copy_from_user
0000D2C8  42 06 08 00 88 02 00 00... bne r1, r0, .ct_copy_fail
0000D2D0  11 D6 B0 00 00 00 00 00... store.q r26, (r22)
0000D2D8  01 0E E8 00 00 00 00 00... move.q  r1, r29
0000D2E0  01 16 A8 00 00 00 00 00... move.q  r2, r21
0000D2E8  01 1D 00 00 01 00 00 00... move.l  r3, #1
0000D2F0  01 26 B8 00 00 00 00 00... move.q  r4, r23
0000D2F8  01 2D 00 00 01 00 00 00... move.l  r5, #1
0000D300  01 36 B0 00 00 00 00 00... move.q  r6, r22
0000D308  01 3D 00 00 01 00 00 00... move.l  r7, #1
0000D310  01 46 D8 00 00 00 00 00... move.q  r8, r27
0000D318  52 06 A0 00 00 00 00 00... push    r20
0000D320  50 06 00 00 20 57 FF FF... jsr     build_user_pt_dynamic
0000D328  53 A6 00 00 00 00 00 00... pop     r20
0000D330  01 0E D8 00 00 00 00 00... move.q  r1, r27
0000D338  01 85 00 00 00 D0 08 00... move.l  r16, #KERN_DATA_BASE
0000D340  10 17 80 00 18 05 01 00... load.q  r2, KD_TASKID_NEXT(r16)
0000D348  21 17 10 00 01 00 00 00... sub     r2, r2, #1
0000D350  01 1D 00 00 01 00 00 00... move.l  r3, #TASK_STARTUP_FLAG_CREATE
0000D358  01 26 A8 00 00 00 00 00... move.q  r4, r21
0000D360  01 2D 00 00 01 00 00 00... move.l  r5, #1
0000D368  01 36 B8 00 00 00 00 00... move.q  r6, r23
0000D370  01 3D 00 00 01 00 00 00... move.l  r7, #1
0000D378  01 46 B0 00 00 00 00 00... move.q  r8, r22
0000D380  01 4D 00 00 01 00 00 00... move.l  r9, #1
0000D388  50 06 00 00 00 4C FF FF... jsr     write_startup_block
0000D390  01 76 B8 00 00 00 00 00... move.q  r14, r23
0000D398  20 77 70 00 00 10 00 00... add     r14, r14, #MMU_PAGE_SIZE
0000D3A0  21 77 70 00 10 00 00 00... sub     r14, r14, #16
0000D3A8  11 DE 70 00 00 00 00 00... store.q r27, (r14)
0000D3B0  20 77 70 00 08 00 00 00... add     r14, r14, #8
0000D3B8  11 B6 70 00 00 00 00 00... store.q r22, (r14)
0000D3C0  01 65 00 00 00 D0 08 00... move.l  r12, #KERN_DATA_BASE
0000D3C8  34 7F A0 00 05 00 00 00... lsl     r15, r20, #5
0000D3D0  20 7F 78 00 40 00 00 00... add     r15, r15, #KD_TASK_BASE
0000D3D8  20 7E 78 60 00 00 00 00... add     r15, r15, r12
0000D3E0  11 AE 78 00 00 00 00 00... store.q r21, KD_TASK_PC(r15)
0000D3E8  01 76 B8 00 00 00 00 00... move.q  r14, r23
0000D3F0  20 77 70 00 00 10 00 00... add     r14, r14, #MMU_PAGE_SIZE
0000D3F8  11 77 78 00 08 00 00 00... store.q r14, KD_TASK_USP(r15)
0000D400  01 75 00 00 FF FF 00 00... move.l  r14, #SIG_SYSTEM_MASK
0000D408  11 75 78 00 10 00 00 00... store.l r14, KD_TASK_SIG_ALLOC(r15)
0000D410  11 05 78 00 14 00 00 00... store.l r0, KD_TASK_SIG_WAIT(r15)
0000D418  11 05 78 00 18 00 00 00... store.l r0, KD_TASK_SIG_RECV(r15)
0000D420  11 01 78 00 1C 00 00 00... store.b r0, KD_TASK_STATE(r15)
0000D428  01 71 00 00 FF 00 00 00... move.b  r14, #WAITPORT_NONE
0000D430  11 71 78 00 1D 00 00 00... store.b r14, KD_TASK_WAITPORT(r15)
0000D438  11 01 78 00 1E 00 00 00... store.b r0, KD_TASK_GPR_SAVED(r15)
0000D440  11 01 78 00 1F 00 00 00... store.b r0, KD_TASK_TEARFLAGS(r15)
0000D448  34 87 A0 00 03 00 00 00... lsl     r16, r20, #3
0000D450  20 87 80 00 20 20 00 00... add     r16, r16, #KD_PTBR_BASE
0000D458  20 86 80 60 00 00 00 00... add     r16, r16, r12
0000D460  11 EE 80 00 00 00 00 00... store.q r29, (r16)
0000D468  01 0E A0 00 00 00 00 00... move.q  r1, r20
0000D470  50 06 00 00 E0 4B FF FF... jsr     kern_task_layout_addr
0000D478  11 AE 08 00 00 00 00 00... store.q r21, KD_TASK_CODE_BASE(r1)
0000D480  11 BF 08 00 08 00 00 00... store.q r23, KD_TASK_STACK_BASE(r1)
0000D488  11 B7 08 00 10 00 00 00... store.q r22, KD_TASK_DATA_BASE(r1)
0000D490  01 75 00 00 01 00 00 00... move.l  r14, #1
0000D498  11 75 08 00 18 00 00 00... store.l r14, KD_TASK_CODE_PAGES(r1)
0000D4A0  11 75 08 00 1C 00 00 00... store.l r14, KD_TASK_STACK_PAGES(r1)
0000D4A8  11 75 08 00 20 00 00 00... store.l r14, KD_TASK_DATA_PAGES(r1)
0000D4B0  01 75 00 00 01 00 00 00... move.l  r14, #TASK_LAYOUT_FLAG_STACK_GUARD
0000D4B8  11 75 08 00 24 00 00 00... store.l r14, KD_TASK_LAYOUT_FLAGS(r1)
0000D4C0  11 DF 08 00 28 00 00 00... store.q r27, KD_TASK_LAYOUT_STARTUP(r1)
0000D4C8  11 EF 08 00 30 00 00 00... store.q r29, KD_TASK_LAYOUT_PT_BASE(r1)
0000D4D0  01 0E A0 00 00 00 00 00... move.q  r1, r20
0000D4D8  50 06 00 00 A8 4B FF FF... jsr     kern_task_pubid_addr
0000D4E0  01 85 00 00 00 D0 08 00... move.l  r16, #KERN_DATA_BASE
0000D4E8  10 97 80 00 18 05 01 00... load.q  r18, KD_TASKID_NEXT(r16)
0000D4F0  21 97 90 00 01 00 00 00... sub     r18, r18, #1
0000D4F8  11 94 08 00 00 00 00 00... store.l r18, (r1)
0000D500  01 85 00 00 00 D0 08 00... move.l  r16, #KERN_DATA_BASE
0000D508  10 97 80 00 18 05 01 00... load.q  r18, KD_TASKID_NEXT(r16)
0000D510  21 97 90 00 01 00 00 00... sub     r18, r18, #1
0000D518  01 0E 90 00 00 00 00 00... move.q  r1, r18
0000D520  01 17 00 00 00 00 00 00... move.q  r2, #ERR_OK
0000D528  E8 00 00 00 00 00 00 00... eret
                         .ct_badarg:
0000D530  01 17 00 00 03 00 00 00... move.q  r2, #ERR_BADARG
0000D538  E8 00 00 00 00 00 00 00... eret
                         .ct_nomem_nopub:
0000D540  01 17 00 00 01 00 00 00... move.q  r2, #ERR_NOMEM
0000D548  E8 00 00 00 00 00 00 00... eret
                         .ct_copy_fail:
0000D550  01 0E E8 00 00 00 00 00... move.q  r1, r29
0000D558  50 06 00 00 00 54 FF FF... jsr     free_task_pt_block
0000D560  01 0E D8 00 00 00 00 00... move.q  r1, r27
0000D568  01 15 00 00 01 00 00 00... move.l  r2, #1
0000D570  50 06 00 00 30 51 FF FF... jsr     free_task_image_pages
0000D578  01 0E B0 00 00 00 00 00... move.q  r1, r22
0000D580  01 15 00 00 01 00 00 00... move.l  r2, #1
0000D588  50 06 00 00 18 51 FF FF... jsr     free_task_image_pages
0000D590  01 0E B8 00 00 00 00 00... move.q  r1, r23
0000D598  21 0F 08 00 00 10 00 00... sub     r1, r1, #MMU_PAGE_SIZE
0000D5A0  01 15 00 00 02 00 00 00... move.l  r2, #(1 + STACK_GUARD_PAGES)
0000D5A8  50 06 00 00 F8 50 FF FF... jsr     free_task_image_pages
0000D5B0  01 0E A8 00 00 00 00 00... move.q  r1, r21
0000D5B8  01 15 00 00 01 00 00 00... move.l  r2, #1
0000D5C0  50 06 00 00 E0 50 FF FF... jsr     free_task_image_pages
0000D5C8  01 65 00 00 00 D0 08 00... move.l  r12, #KERN_DATA_BASE
0000D5D0  10 77 60 00 18 05 01 00... load.q  r14, KD_TASKID_NEXT(r12)
0000D5D8  21 77 70 00 01 00 00 00... sub     r14, r14, #1
0000D5E0  11 77 60 00 18 05 01 00... store.q r14, KD_TASKID_NEXT(r12)
0000D5E8  34 87 A0 00 02 00 00 00... lsl     r16, r20, #2
0000D5F0  20 87 80 00 18 01 01 00... add     r16, r16, #KD_TASK_PUBID_BASE
0000D5F8  20 86 80 60 00 00 00 00... add     r16, r16, r12
0000D600  01 95 00 00 FF FF FF FF... move.l  r18, #TASK_PUBID_FREE
0000D608  11 94 80 00 00 00 00 00... store.l r18, (r16)
0000D610  01 17 00 00 03 00 00 00... move.q  r2, #ERR_BADARG
0000D618  E8 00 00 00 00 00 00 00... eret
                         .ct_fail_free_startup:
0000D620  01 0E D8 00 00 00 00 00... move.q  r1, r27
0000D628  01 15 00 00 01 00 00 00... move.l  r2, #1
0000D630  50 06 00 00 70 50 FF FF... jsr     free_task_image_pages
                         .ct_fail_free_data:
0000D638  01 0E B0 00 00 00 00 00... move.q  r1, r22
0000D640  01 15 00 00 01 00 00 00... move.l  r2, #1
0000D648  50 06 00 00 58 50 FF FF... jsr     free_task_image_pages
                         .ct_fail_free_stack:
0000D650  01 0E B8 00 00 00 00 00... move.q  r1, r23
0000D658  21 0F 08 00 00 10 00 00... sub     r1, r1, #MMU_PAGE_SIZE
0000D660  01 15 00 00 02 00 00 00... move.l  r2, #(1 + STACK_GUARD_PAGES)
0000D668  50 06 00 00 38 50 FF FF... jsr     free_task_image_pages
                         .ct_fail_free_code:
0000D670  01 0E A8 00 00 00 00 00... move.q  r1, r21
0000D678  01 15 00 00 01 00 00 00... move.l  r2, #1
0000D680  50 06 00 00 20 50 FF FF... jsr     free_task_image_pages
0000D688  01 17 00 00 01 00 00 00... move.q  r2, #ERR_NOMEM
0000D690  E8 00 00 00 00 00 00 00... eret
                         .do_exit_task:
0000D698  01 65 00 00 00 D0 08 00... move.l  r12, #KERN_DATA_BASE
0000D6A0  10 6E 60 00 00 00 00 00... load.q  r13, (r12)
0000D6A8  E7 98 00 00 00 00 00 00... mfcr    r19, cr0
0000D6B0  01 5D 00 00 00 D0 07 00... move.l  r11, #KERN_PAGE_TABLE
0000D6B8  E6 00 58 00 00 00 00 00... mtcr    cr0, r11
0000D6C0  E9 00 00 00 00 00 00 00... tlbflush
0000D6C8  01 75 00 00 01 00 00 00... move.l  r14, #TASK_EXIT_REASON_NORMAL
0000D6D0  50 06 00 00 10 60 00 00... jsr     kill_task_cleanup
0000D6D8  E6 00 98 00 00 00 00 00... mtcr    cr0, r19
0000D6E0  E9 00 00 00 00 00 00 00... tlbflush
0000D6E8  50 06 00 00 90 44 FF FF... jsr     find_next_runnable
0000D6F0  11 6E 60 00 00 00 00 00... store.q r13, (r12)
0000D6F8  40 06 00 00 E8 68 00 00... bra     restore_task
                         .do_alloc_mem:
0000D700  01 C6 08 00 00 00 00 00... move.q  r24, r1
0000D708  01 CE 10 00 00 00 00 00... move.q  r25, r2
0000D710  E7 98 00 00 00 00 00 00... mfcr    r19, cr0
0000D718  01 5D 00 00 00 D0 07 00... move.l  r11, #KERN_PAGE_TABLE
0000D720  E6 00 58 00 00 00 00 00... mtcr    cr0, r11
0000D728  E9 00 00 00 00 00 00 00... tlbflush
0000D730  41 06 C0 00 38 04 00 00... beq r24, r0, .am_badarg
0000D738  01 5D 00 00 00 03 00 00... move.l  r11, #USER_DYN_PAGES
0000D740  34 5F 58 00 0C 00 00 00... lsl     r11, r11, #12
0000D748  45 06 C0 58 50 04 00 00... bgt     r24, r11, .am_toolarge
0000D750  20 A7 C0 00 FF 0F 00 00... add     r20, r24, #0xFFF
0000D758  35 A7 A0 00 0C 00 00 00... lsr     r20, r20, #12
0000D760  01 5D 00 00 00 03 00 00... move.l  r11, #USER_DYN_PAGES
0000D768  45 06 A0 58 30 04 00 00... bgt     r20, r11, .am_toolarge
0000D770  01 65 00 00 00 D0 08 00... move.l  r12, #KERN_DATA_BASE
0000D778  10 6E 60 00 00 00 00 00... load.q  r13, (r12)
0000D780  01 0E 68 00 00 00 00 00... move.q  r1, r13
0000D788  30 27 C8 00 01 00 00 00... and     r4, r25, #1
0000D790  22 17 20 00 03 00 00 00... mulu    r2, r4, #3
0000D798  01 1E A0 00 00 00 00 00... move.q  r3, r20
0000D7A0  50 06 00 00 20 38 00 00... jsr     quota_check_and_charge
0000D7A8  41 06 08 00 38 00 00 00... beq r1, r0, .am_quota_ok
0000D7B0  E6 00 98 00 00 00 00 00... mtcr    cr0, r19
0000D7B8  E9 00 00 00 00 00 00 00... tlbflush
0000D7C0  01 0F 00 00 00 00 00 00... move.q  r1, #0
0000D7C8  01 17 00 00 0A 00 00 00... move.q  r2, #ERR_QUOTA
0000D7D0  01 1F 00 00 00 00 00 00... move.q  r3, #0
0000D7D8  E8 00 00 00 00 00 00 00... eret
                         .am_quota_ok:
0000D7E0  01 D7 00 00 00 00 00 00... move.q  r26, #0
0000D7E8  30 5F C8 00 01 00 00 00... and     r11, r25, #MEMF_PUBLIC
0000D7F0  41 06 58 00 28 00 00 00... beq r11, r0, .am_skip_shmem_check
0000D7F8  50 06 00 00 78 BE FF FF... jsr     kern_shmem_alloc_slot
0000D800  41 06 08 00 C8 03 00 00... beq r1, r0, .am_nomem
0000D808  01 D6 08 00 00 00 00 00... move.q  r26, r1
0000D810  01 DE 10 00 00 00 00 00... move.q  r27, r2
                         .am_skip_shmem_check:
0000D818  01 65 00 00 00 D0 08 00... move.l  r12, #KERN_DATA_BASE
0000D820  10 6E 60 00 00 00 00 00... load.q  r13, (r12)
0000D828  01 75 00 00 00 D0 08 00... move.l  r14, #KERN_DATA_BASE
0000D830  20 77 70 00 38 40 00 00... add     r14, r14, #KD_REGION_TABLE
0000D838  01 5D 00 00 80 00 00 00... move.l  r11, #KD_REGION_TASK_SZ
0000D840  22 5E 68 58 00 00 00 00... mulu    r11, r13, r11
0000D848  20 76 70 58 00 00 00 00... add     r14, r14, r11
0000D850  01 7D 00 00 00 00 00 00... move.l  r15, #0
                         .am_find_region:
0000D858  01 5D 00 00 08 00 00 00... move.l  r11, #KD_REGION_INLINE_MAX
0000D860  44 06 78 58 48 00 00 00... bge     r15, r11, .am_inline_full
0000D868  01 5D 00 00 10 00 00 00... move.l  r11, #KD_REGION_STRIDE
0000D870  22 5E 78 58 00 00 00 00... mulu    r11, r15, r11
0000D878  20 86 70 58 00 00 00 00... add     r16, r14, r11
0000D880  10 59 80 00 08 00 00 00... load.b  r11, KD_REG_TYPE(r16)
0000D888  42 06 58 00 10 00 00 00... bne r11, r0, .am_find_region_next
0000D890  40 06 00 00 38 00 00 00... bra     .am_found_region
                         .am_find_region_next:
0000D898  20 7F 78 00 01 00 00 00... add     r15, r15, #1
0000D8A0  40 06 00 00 B8 FF FF FF... bra     .am_find_region
                         .am_inline_full:
0000D8A8  01 0E 68 00 00 00 00 00... move.q  r1, r13
0000D8B0  50 06 00 00 C0 BB FF FF... jsr     kern_region_oflow_alloc_row
0000D8B8  42 06 10 00 10 03 00 00... bne r2, r0, .am_nomem
0000D8C0  01 86 08 00 00 00 00 00... move.q  r16, r1
                         .am_found_region:
0000D8C8  01 AE 80 00 00 00 00 00... move.q  r21, r16
0000D8D0  01 0E A0 00 00 00 00 00... move.q  r1, r20
0000D8D8  50 06 00 00 10 AD FF FF... jsr     alloc_pages
0000D8E0  42 06 10 00 E8 02 00 00... bne r2, r0, .am_nomem
0000D8E8  01 B6 08 00 00 00 00 00... move.q  r22, r1
0000D8F0  52 06 68 00 00 00 00 00... push    r13
0000D8F8  01 0E 68 00 00 00 00 00... move.q  r1, r13
0000D900  01 16 A0 00 00 00 00 00... move.q  r2, r20
0000D908  30 5F C8 00 02 00 00 00... and     r11, r25, #MEMF_GUARD
0000D910  41 06 58 00 10 00 00 00... beq r11, r0, .am_find_va_ready
0000D918  20 17 10 00 02 00 00 00... add     r2, r2, #2
                         .am_find_va_ready:
0000D920  50 06 00 00 60 CE FF FF... jsr     find_free_va
0000D928  53 6E 00 00 00 00 00 00... pop     r13
0000D930  42 06 10 00 18 02 00 00... bne r2, r0, .am_rollback_pages
0000D938  01 BE 08 00 00 00 00 00... move.q  r23, r1
0000D940  30 5F C8 00 02 00 00 00... and     r11, r25, #MEMF_GUARD
0000D948  41 06 58 00 10 00 00 00... beq r11, r0, .am_find_va_done
0000D950  20 BF B8 00 00 10 00 00... add     r23, r23, #MMU_PAGE_SIZE
                         .am_find_va_done:
0000D958  01 65 00 00 00 D0 08 00... move.l  r12, #KERN_DATA_BASE
0000D960  34 0F 68 00 03 00 00 00... lsl     r1, r13, #3
0000D968  20 0F 08 00 20 20 00 00... add     r1, r1, #KD_PTBR_BASE
0000D970  20 0E 08 60 00 00 00 00... add     r1, r1, r12
0000D978  10 0E 08 00 00 00 00 00... load.q  r1, (r1)
0000D980  01 16 B8 00 00 00 00 00... move.q  r2, r23
0000D988  01 1E B0 00 00 00 00 00... move.q  r3, r22
0000D990  01 26 A0 00 00 00 00 00... move.q  r4, r20
0000D998  01 2D 00 00 17 00 00 00... move.l  r5, #0x17
0000D9A0  50 06 00 00 28 CD FF FF... jsr     map_pages
0000D9A8  35 5F C8 00 10 00 00 00... lsr     r11, r25, #16
0000D9B0  30 5F 58 00 01 00 00 00... and     r11, r11, #1
0000D9B8  41 06 58 00 70 00 00 00... beq r11, r0, .am_skip_clear
0000D9C0  E7 E0 00 00 00 00 00 00... mfcr    r28, cr0
0000D9C8  01 0D 00 00 00 D0 07 00... move.l  r1, #KERN_PAGE_TABLE
0000D9D0  E6 00 08 00 00 00 00 00... mtcr    cr0, r1
0000D9D8  E9 00 00 00 00 00 00 00... tlbflush
0000D9E0  34 0F B0 00 0C 00 00 00... lsl     r1, r22, #12
0000D9E8  34 17 A0 00 0C 00 00 00... lsl     r2, r20, #12
0000D9F0  20 16 10 08 00 00 00 00... add     r2, r2, r1
                         .am_zero:
0000D9F8  44 06 08 10 20 00 00 00... bge     r1, r2, .am_zero_done
0000DA00  11 06 08 00 00 00 00 00... store.q r0, (r1)
0000DA08  20 0F 08 00 08 00 00 00... add     r1, r1, #8
0000DA10  40 06 00 00 E8 FF FF FF... bra     .am_zero
                         .am_zero_done:
0000DA18  E6 00 E0 00 00 00 00 00... mtcr    cr0, r28
0000DA20  E9 00 00 00 00 00 00 00... tlbflush
                         .am_skip_clear:
0000DA28  01 1F 00 00 00 00 00 00... move.q  r3, #0
0000DA30  30 5F C8 00 01 00 00 00... and     r11, r25, #MEMF_PUBLIC
0000DA38  41 06 58 00 88 00 00 00... beq r11, r0, .am_fill_region
0000DA40  01 65 00 00 00 D0 08 00... move.l  r12, #KERN_DATA_BASE
0000DA48  10 5F 60 00 18 00 00 00... load.q  r11, KD_NONCE_COUNTER(r12)
0000DA50  20 5F 58 00 01 00 00 00... add     r11, r11, #1
0000DA58  11 5F 60 00 18 00 00 00... store.q r11, KD_NONCE_COUNTER(r12)
0000DA60  32 5E 58 D8 00 00 00 00... eor     r11, r11, r27
0000DA68  30 5F 58 00 FF FF FF 00... and     r11, r11, #0xFFFFFF
0000DA70  01 49 00 00 01 00 00 00... move.b  r9, #1
0000DA78  11 48 D0 00 00 00 00 00... store.b r9, KD_SHM_VALID(r26)
0000DA80  11 49 D0 00 01 00 00 00... store.b r9, KD_SHM_REFCOUNT(r26)
0000DA88  11 69 D0 00 02 00 00 00... store.b r13, KD_SHM_CREATOR(r26)
0000DA90  11 C9 D0 00 03 00 00 00... store.b r25, KD_SHM_FLAGS(r26)
0000DA98  11 B3 D0 00 04 00 00 00... store.w r22, KD_SHM_PPN(r26)
0000DAA0  11 A3 D0 00 06 00 00 00... store.w r20, KD_SHM_PAGES(r26)
0000DAA8  11 5D D0 00 08 00 00 00... store.l r11, KD_SHM_NONCE(r26)
0000DAB0  34 1F 58 00 08 00 00 00... lsl     r3, r11, #8
0000DAB8  31 1E 18 D8 00 00 00 00... or      r3, r3, r27
                         .am_fill_region:
0000DAC0  11 BC A8 00 00 00 00 00... store.l r23, KD_REG_VA(r21)
0000DAC8  11 B3 A8 00 04 00 00 00... store.w r22, KD_REG_PPN(r21)
0000DAD0  11 A3 A8 00 06 00 00 00... store.w r20, KD_REG_PAGES(r21)
0000DAD8  30 5F C8 00 01 00 00 00... and     r11, r25, #MEMF_PUBLIC
0000DAE0  42 06 58 00 18 00 00 00... bne r11, r0, .am_type_shared
0000DAE8  01 59 00 00 01 00 00 00... move.b  r11, #REGION_PRIVATE
0000DAF0  40 06 00 00 18 00 00 00... bra     .am_store_type
                         .am_type_shared:
0000DAF8  01 59 00 00 02 00 00 00... move.b  r11, #REGION_SHARED
0000DB00  11 D9 A8 00 09 00 00 00... store.b r27, KD_REG_SHMID(r21)
                         .am_store_type:
0000DB08  11 59 A8 00 08 00 00 00... store.b r11, KD_REG_TYPE(r21)
0000DB10  11 C9 A8 00 0A 00 00 00... store.b r25, KD_REG_FLAGS(r21)
0000DB18  E9 00 00 00 00 00 00 00... tlbflush
0000DB20  E6 00 98 00 00 00 00 00... mtcr    cr0, r19
0000DB28  E9 00 00 00 00 00 00 00... tlbflush
0000DB30  01 0E B8 00 00 00 00 00... move.q  r1, r23
0000DB38  01 17 00 00 00 00 00 00... move.q  r2, #ERR_OK
0000DB40  E8 00 00 00 00 00 00 00... eret
                         .am_rollback_pages:
0000DB48  01 0E B0 00 00 00 00 00... move.q  r1, r22
0000DB50  01 16 A0 00 00 00 00 00... move.q  r2, r20
0000DB58  50 06 00 00 E8 AB FF FF... jsr     free_pages
0000DB60  40 06 00 00 68 00 00 00... bra     .am_nomem
                         .am_badarg:
0000DB68  E6 00 98 00 00 00 00 00... mtcr    cr0, r19
0000DB70  E9 00 00 00 00 00 00 00... tlbflush
0000DB78  01 0F 00 00 00 00 00 00... move.q  r1, #0
0000DB80  01 17 00 00 03 00 00 00... move.q  r2, #ERR_BADARG
0000DB88  01 1F 00 00 00 00 00 00... move.q  r3, #0
0000DB90  E8 00 00 00 00 00 00 00... eret
                         .am_toolarge:
0000DB98  E6 00 98 00 00 00 00 00... mtcr    cr0, r19
0000DBA0  E9 00 00 00 00 00 00 00... tlbflush
0000DBA8  01 0F 00 00 00 00 00 00... move.q  r1, #0
0000DBB0  01 17 00 00 07 00 00 00... move.q  r2, #ERR_TOOLARGE
0000DBB8  01 1F 00 00 00 00 00 00... move.q  r3, #0
0000DBC0  E8 00 00 00 00 00 00 00... eret
                         .am_nomem:
0000DBC8  01 65 00 00 00 D0 08 00... move.l  r12, #KERN_DATA_BASE
0000DBD0  10 0E 60 00 00 00 00 00... load.q  r1, (r12)
0000DBD8  30 27 C8 00 01 00 00 00... and     r4, r25, #1
0000DBE0  22 17 20 00 03 00 00 00... mulu    r2, r4, #3
0000DBE8  01 1E A0 00 00 00 00 00... move.q  r3, r20
0000DBF0  50 06 00 00 88 34 00 00... jsr     quota_return
0000DBF8  E6 00 98 00 00 00 00 00... mtcr    cr0, r19
0000DC00  E9 00 00 00 00 00 00 00... tlbflush
0000DC08  01 0F 00 00 00 00 00 00... move.q  r1, #0
0000DC10  01 17 00 00 01 00 00 00... move.q  r2, #ERR_NOMEM
0000DC18  01 1F 00 00 00 00 00 00... move.q  r3, #0
0000DC20  E8 00 00 00 00 00 00 00... eret
                         .do_free_mem:
0000DC28  01 C6 08 00 00 00 00 00... move.q  r24, r1
0000DC30  01 CE 10 00 00 00 00 00... move.q  r25, r2
0000DC38  E7 E8 00 00 00 00 00 00... mfcr    r29, cr0
0000DC40  01 5D 00 00 00 D0 07 00... move.l  r11, #KERN_PAGE_TABLE
0000DC48  E6 00 58 00 00 00 00 00... mtcr    cr0, r11
0000DC50  E9 00 00 00 00 00 00 00... tlbflush
0000DC58  20 A7 C8 00 FF 0F 00 00... add     r20, r25, #0xFFF
0000DC60  35 A7 A0 00 0C 00 00 00... lsr     r20, r20, #12
0000DC68  01 65 00 00 00 D0 08 00... move.l  r12, #KERN_DATA_BASE
0000DC70  10 6E 60 00 00 00 00 00... load.q  r13, (r12)
0000DC78  01 75 00 00 00 D0 08 00... move.l  r14, #KERN_DATA_BASE
0000DC80  20 77 70 00 38 40 00 00... add     r14, r14, #KD_REGION_TABLE
0000DC88  01 5D 00 00 80 00 00 00... move.l  r11, #KD_REGION_TASK_SZ
0000DC90  22 5E 68 58 00 00 00 00... mulu    r11, r13, r11
0000DC98  20 76 70 58 00 00 00 00... add     r14, r14, r11
0000DCA0  01 7D 00 00 00 00 00 00... move.l  r15, #0
                         .fm_find:
0000DCA8  01 5D 00 00 08 00 00 00... move.l  r11, #KD_REGION_INLINE_MAX
0000DCB0  44 06 78 58 50 00 00 00... bge     r15, r11, .fm_check_overflow
0000DCB8  01 5D 00 00 10 00 00 00... move.l  r11, #KD_REGION_STRIDE
0000DCC0  22 5E 78 58 00 00 00 00... mulu    r11, r15, r11
0000DCC8  20 86 70 58 00 00 00 00... add     r16, r14, r11
0000DCD0  10 59 80 00 08 00 00 00... load.b  r11, KD_REG_TYPE(r16)
0000DCD8  41 06 58 00 18 00 00 00... beq r11, r0, .fm_find_next
0000DCE0  10 8C 80 00 00 00 00 00... load.l  r17, KD_REG_VA(r16)
0000DCE8  41 06 88 C0 D0 00 00 00... beq     r17, r24, .fm_found
                         .fm_find_next:
0000DCF0  20 7F 78 00 01 00 00 00... add     r15, r15, #1
0000DCF8  40 06 00 00 B0 FF FF FF... bra     .fm_find
                         .fm_check_overflow:
0000DD00  01 5D 00 00 00 D0 08 00... move.l  r11, #KERN_DATA_BASE
0000DD08  20 5F 58 00 C8 C0 00 00... add     r11, r11, #KD_REGION_OVERFLOW_HEAD
0000DD10  01 65 00 00 08 00 00 00... move.l  r12, #KD_REGION_OFLOW_STRIDE
0000DD18  22 66 68 60 00 00 00 00... mulu    r12, r13, r12
0000DD20  20 5E 58 60 00 00 00 00... add     r11, r11, r12
0000DD28  10 62 58 00 00 00 00 00... load.w  r12, KD_REGION_OFLOW_FIRST_PPN(r11)
0000DD30  41 06 60 00 30 02 00 00... beq r12, r0, .fm_badarg
                         .fm_oflow_page:
0000DD38  34 77 60 00 0C 00 00 00... lsl     r14, r12, #12
0000DD40  01 86 70 00 00 00 00 00... move.q  r16, r14
0000DD48  20 87 80 00 10 00 00 00... add     r16, r16, #KD_REGION_PAGE_HDR_SZ
0000DD50  01 7D 00 00 00 00 00 00... move.l  r15, #0
                         .fm_oflow_row:
0000DD58  01 5D 00 00 FF 00 00 00... move.l  r11, #KD_REGION_ROWS_PER_PG
0000DD60  44 06 78 58 40 00 00 00... bge     r15, r11, .fm_oflow_next_page
0000DD68  10 59 80 00 08 00 00 00... load.b  r11, KD_REG_TYPE(r16)
0000DD70  41 06 58 00 18 00 00 00... beq r11, r0, .fm_oflow_skip
0000DD78  10 8C 80 00 00 00 00 00... load.l  r17, KD_REG_VA(r16)
0000DD80  41 06 88 C0 38 00 00 00... beq     r17, r24, .fm_found
                         .fm_oflow_skip:
0000DD88  20 87 80 00 10 00 00 00... add     r16, r16, #KD_REGION_STRIDE
0000DD90  20 7F 78 00 01 00 00 00... add     r15, r15, #1
0000DD98  40 06 00 00 C0 FF FF FF... bra     .fm_oflow_row
                         .fm_oflow_next_page:
0000DDA0  10 62 70 00 00 00 00 00... load.w  r12, KD_REGION_PAGE_NEXT(r14)
0000DDA8  42 06 60 00 90 FF FF FF... bne r12, r0, .fm_oflow_page
0000DDB0  40 06 00 00 B0 01 00 00... bra     .fm_badarg
                         .fm_found:
0000DDB8  10 93 80 00 06 00 00 00... load.w  r18, KD_REG_PAGES(r16)
0000DDC0  42 06 90 A0 A0 01 00 00... bne     r18, r20, .fm_badarg
0000DDC8  34 0F 68 00 03 00 00 00... lsl     r1, r13, #3
0000DDD0  20 0F 08 00 20 20 00 00... add     r1, r1, #KD_PTBR_BASE
0000DDD8  01 5D 00 00 00 D0 08 00... move.l  r11, #KERN_DATA_BASE
0000DDE0  20 0E 08 58 00 00 00 00... add     r1, r1, r11
0000DDE8  10 0E 08 00 00 00 00 00... load.q  r1, (r1)
0000DDF0  01 16 C0 00 00 00 00 00... move.q  r2, r24
0000DDF8  01 1E 90 00 00 00 00 00... move.q  r3, r18
0000DE00  50 06 00 00 30 C9 FF FF... jsr     unmap_pages
0000DE08  10 59 80 00 08 00 00 00... load.b  r11, KD_REG_TYPE(r16)
0000DE10  01 8D 00 00 03 00 00 00... move.l  r17, #REGION_IO
0000DE18  41 06 58 88 18 01 00 00... beq     r11, r17, .fm_cleanup_region
0000DE20  01 8D 00 00 02 00 00 00... move.l  r17, #REGION_SHARED
0000DE28  41 06 58 88 48 00 00 00... beq     r11, r17, .fm_shared
0000DE30  10 0B 80 00 04 00 00 00... load.w  r1, KD_REG_PPN(r16)
0000DE38  01 16 90 00 00 00 00 00... move.q  r2, r18
0000DE40  50 06 00 00 00 A9 FF FF... jsr     free_pages
0000DE48  01 0E 68 00 00 00 00 00... move.q  r1, r13
0000DE50  01 15 00 00 00 00 00 00... move.l  r2, #QUOTA_KIND_PAGES
0000DE58  01 1E 90 00 00 00 00 00... move.q  r3, r18
0000DE60  50 06 00 00 18 32 00 00... jsr     quota_return
0000DE68  40 06 00 00 C8 00 00 00... bra     .fm_cleanup_region
                         .fm_shared:
0000DE70  10 09 80 00 09 00 00 00... load.b  r1, KD_REG_SHMID(r16)
0000DE78  52 06 80 00 00 00 00 00... push    r16
0000DE80  50 06 00 00 60 BA FF FF... jsr     kern_shmem_addr_for_id
0000DE88  53 86 00 00 00 00 00 00... pop     r16
0000DE90  01 8E 08 00 00 00 00 00... move.q  r17, r1
0000DE98  41 06 88 00 98 00 00 00... beq r17, r0, .fm_cleanup_region
0000DEA0  52 06 88 00 00 00 00 00... push    r17
0000DEA8  52 06 80 00 00 00 00 00... push    r16
0000DEB0  01 0E 68 00 00 00 00 00... move.q  r1, r13
0000DEB8  01 15 00 00 03 00 00 00... move.l  r2, #QUOTA_KIND_SHMEM
0000DEC0  01 1E 90 00 00 00 00 00... move.q  r3, r18
0000DEC8  50 06 00 00 B0 31 00 00... jsr     quota_return
0000DED0  53 86 00 00 00 00 00 00... pop     r16
0000DED8  53 8E 00 00 00 00 00 00... pop     r17
0000DEE0  10 59 88 00 01 00 00 00... load.b  r11, KD_SHM_REFCOUNT(r17)
0000DEE8  21 5F 58 00 01 00 00 00... sub     r11, r11, #1
0000DEF0  11 59 88 00 01 00 00 00... store.b r11, KD_SHM_REFCOUNT(r17)
0000DEF8  42 06 58 00 38 00 00 00... bne r11, r0, .fm_cleanup_region
0000DF00  10 0B 88 00 04 00 00 00... load.w  r1, KD_SHM_PPN(r17)
0000DF08  10 13 88 00 06 00 00 00... load.w  r2, KD_SHM_PAGES(r17)
0000DF10  52 06 88 00 00 00 00 00... push    r17
0000DF18  50 06 00 00 28 A8 FF FF... jsr     free_pages
0000DF20  53 8E 00 00 00 00 00 00... pop     r17
0000DF28  11 00 88 00 00 00 00 00... store.b r0, KD_SHM_VALID(r17)
                         .fm_cleanup_region:
0000DF30  11 01 80 00 08 00 00 00... store.b r0, KD_REG_TYPE(r16)
0000DF38  E9 00 00 00 00 00 00 00... tlbflush
0000DF40  E6 00 E8 00 00 00 00 00... mtcr    cr0, r29
0000DF48  E9 00 00 00 00 00 00 00... tlbflush
0000DF50  01 17 00 00 00 00 00 00... move.q  r2, #ERR_OK
0000DF58  E8 00 00 00 00 00 00 00... eret
                         .fm_badarg:
0000DF60  E6 00 E8 00 00 00 00 00... mtcr    cr0, r29
0000DF68  E9 00 00 00 00 00 00 00... tlbflush
0000DF70  01 17 00 00 03 00 00 00... move.q  r2, #ERR_BADARG
0000DF78  E8 00 00 00 00 00 00 00... eret
                         .do_map_shared:
0000DF80  01 C6 08 00 00 00 00 00... move.q  r24, r1
0000DF88  E7 98 00 00 00 00 00 00... mfcr    r19, cr0
0000DF90  01 5D 00 00 00 D0 07 00... move.l  r11, #KERN_PAGE_TABLE
0000DF98  E6 00 58 00 00 00 00 00... mtcr    cr0, r11
0000DFA0  E9 00 00 00 00 00 00 00... tlbflush
0000DFA8  21 FF F8 00 10 00 00 00... sub     sp, sp, #16
0000DFB0  11 16 F8 00 00 00 00 00... store.q r2, 0(sp)
0000DFB8  30 5F 10 00 03 00 00 00... and     r11, r2, #(MAPF_READ | MAPF_WRITE)
0000DFC0  41 06 58 00 60 03 00 00... beq r11, r0, .ms_badarg
0000DFC8  42 06 58 10 58 03 00 00... bne     r11, r2, .ms_badarg
0000DFD0  30 A7 C0 00 FF 00 00 00... and     r20, r24, #0xFF
0000DFD8  35 AF C0 00 08 00 00 00... lsr     r21, r24, #8
0000DFE0  01 5D 00 00 FF 00 00 00... move.l  r11, #0xFF
0000DFE8  41 06 A0 58 70 03 00 00... beq     r20, r11, .ms_badhandle
0000DFF0  01 0E A0 00 00 00 00 00... move.q  r1, r20
0000DFF8  50 06 00 00 E8 B8 FF FF... jsr     kern_shmem_addr_for_id
0000E000  01 76 08 00 00 00 00 00... move.q  r14, r1
0000E008  41 06 70 00 50 03 00 00... beq r14, r0, .ms_badhandle
0000E010  10 58 70 00 00 00 00 00... load.b  r11, KD_SHM_VALID(r14)
0000E018  41 06 58 00 40 03 00 00... beq r11, r0, .ms_badhandle
0000E020  10 5D 70 00 08 00 00 00... load.l  r11, KD_SHM_NONCE(r14)
0000E028  30 5F 58 00 FF FF FF 00... and     r11, r11, #0xFFFFFF
0000E030  42 06 58 A8 28 03 00 00... bne     r11, r21, .ms_badhandle
0000E038  10 BB 70 00 06 00 00 00... load.w  r23, KD_SHM_PAGES(r14)
0000E040  01 65 00 00 00 D0 08 00... move.l  r12, #KERN_DATA_BASE
0000E048  10 6E 60 00 00 00 00 00... load.q  r13, (r12)
0000E050  01 0E 68 00 00 00 00 00... move.q  r1, r13
0000E058  01 15 00 00 03 00 00 00... move.l  r2, #QUOTA_KIND_SHMEM
0000E060  01 1E B8 00 00 00 00 00... move.q  r3, r23
0000E068  50 06 00 00 58 2F 00 00... jsr     quota_check_and_charge
0000E070  41 06 08 00 40 00 00 00... beq r1, r0, .ms_quota_ok
0000E078  E6 00 98 00 00 00 00 00... mtcr    cr0, r19
0000E080  E9 00 00 00 00 00 00 00... tlbflush
0000E088  20 FF F8 00 10 00 00 00... add     sp, sp, #16
0000E090  01 0F 00 00 00 00 00 00... move.q  r1, #0
0000E098  01 17 00 00 0A 00 00 00... move.q  r2, #ERR_QUOTA
0000E0A0  01 1F 00 00 00 00 00 00... move.q  r3, #0
0000E0A8  E8 00 00 00 00 00 00 00... eret
                         .ms_quota_ok:
0000E0B0  01 65 00 00 00 D0 08 00... move.l  r12, #KERN_DATA_BASE
0000E0B8  10 6E 60 00 00 00 00 00... load.q  r13, (r12)
0000E0C0  01 7D 00 00 00 D0 08 00... move.l  r15, #KERN_DATA_BASE
0000E0C8  20 7F 78 00 38 40 00 00... add     r15, r15, #KD_REGION_TABLE
0000E0D0  01 5D 00 00 80 00 00 00... move.l  r11, #KD_REGION_TASK_SZ
0000E0D8  22 5E 68 58 00 00 00 00... mulu    r11, r13, r11
0000E0E0  20 7E 78 58 00 00 00 00... add     r15, r15, r11
0000E0E8  01 85 00 00 00 00 00 00... move.l  r16, #0
                         .ms_find_region:
0000E0F0  01 5D 00 00 08 00 00 00... move.l  r11, #KD_REGION_INLINE_MAX
0000E0F8  44 06 80 58 40 00 00 00... bge     r16, r11, .ms_inline_full
0000E100  01 5D 00 00 10 00 00 00... move.l  r11, #KD_REGION_STRIDE
0000E108  22 5E 80 58 00 00 00 00... mulu    r11, r16, r11
0000E110  20 8E 78 58 00 00 00 00... add     r17, r15, r11
0000E118  10 59 88 00 08 00 00 00... load.b  r11, KD_REG_TYPE(r17)
0000E120  41 06 58 00 38 00 00 00... beq r11, r0, .ms_found_region
0000E128  20 87 80 00 01 00 00 00... add     r16, r16, #1
0000E130  40 06 00 00 C0 FF FF FF... bra     .ms_find_region
                         .ms_inline_full:
0000E138  01 0E 68 00 00 00 00 00... move.q  r1, r13
0000E140  50 06 00 00 30 B3 FF FF... jsr     kern_region_oflow_alloc_row
0000E148  42 06 10 00 48 02 00 00... bne r2, r0, .ms_nomem
0000E150  01 8E 08 00 00 00 00 00... move.q  r17, r1
                         .ms_found_region:
0000E158  01 B6 88 00 00 00 00 00... move.q  r22, r17
0000E160  01 E6 70 00 00 00 00 00... move.q  r28, r14
0000E168  01 EE 68 00 00 00 00 00... move.q  r29, r13
0000E170  01 0E 68 00 00 00 00 00... move.q  r1, r13
0000E178  10 BB 70 00 06 00 00 00... load.w  r23, KD_SHM_PAGES(r14)
0000E180  01 16 B8 00 00 00 00 00... move.q  r2, r23
0000E188  10 59 70 00 03 00 00 00... load.b  r11, KD_SHM_FLAGS(r14)
0000E190  30 5F 58 00 02 00 00 00... and     r11, r11, #MEMF_GUARD
0000E198  41 06 58 00 10 00 00 00... beq r11, r0, .ms_find_va_ready
0000E1A0  20 17 10 00 02 00 00 00... add     r2, r2, #2
                         .ms_find_va_ready:
0000E1A8  50 06 00 00 D8 C5 FF FF... jsr     find_free_va
0000E1B0  42 06 10 00 E0 01 00 00... bne r2, r0, .ms_nomem
0000E1B8  01 CE 08 00 00 00 00 00... move.q  r25, r1
0000E1C0  01 76 E0 00 00 00 00 00... move.q  r14, r28
0000E1C8  10 59 70 00 03 00 00 00... load.b  r11, KD_SHM_FLAGS(r14)
0000E1D0  30 5F 58 00 02 00 00 00... and     r11, r11, #MEMF_GUARD
0000E1D8  41 06 58 00 10 00 00 00... beq r11, r0, .ms_find_va_done
0000E1E0  20 CF C8 00 00 10 00 00... add     r25, r25, #MMU_PAGE_SIZE
                         .ms_find_va_done:
0000E1E8  01 6E E8 00 00 00 00 00... move.q  r13, r29
0000E1F0  34 0F 68 00 03 00 00 00... lsl     r1, r13, #3
0000E1F8  20 0F 08 00 20 20 00 00... add     r1, r1, #KD_PTBR_BASE
0000E200  01 5D 00 00 00 D0 08 00... move.l  r11, #KERN_DATA_BASE
0000E208  20 0E 08 58 00 00 00 00... add     r1, r1, r11
0000E210  10 0E 08 00 00 00 00 00... load.q  r1, (r1)
0000E218  01 16 C8 00 00 00 00 00... move.q  r2, r25
0000E220  10 1B 70 00 04 00 00 00... load.w  r3, KD_SHM_PPN(r14)
0000E228  01 26 B8 00 00 00 00 00... move.q  r4, r23
0000E230  01 2D 00 00 11 00 00 00... move.l  r5, #(PTE_P | PTE_U)
0000E238  10 5E F8 00 00 00 00 00... load.q  r11, 0(sp)
0000E240  30 5F 58 00 01 00 00 00... and     r11, r11, #MAPF_READ
0000E248  41 06 58 00 10 00 00 00... beq r11, r0, .ms_map_no_read
0000E250  31 2F 28 00 02 00 00 00... or      r5, r5, #PTE_R
                         .ms_map_no_read:
0000E258  10 5E F8 00 00 00 00 00... load.q  r11, 0(sp)
0000E260  30 5F 58 00 02 00 00 00... and     r11, r11, #MAPF_WRITE
0000E268  41 06 58 00 10 00 00 00... beq r11, r0, .ms_map_no_write
0000E270  31 2F 28 00 04 00 00 00... or      r5, r5, #PTE_W
                         .ms_map_no_write:
0000E278  50 06 00 00 50 C4 FF FF... jsr     map_pages
0000E280  10 59 70 00 01 00 00 00... load.b  r11, KD_SHM_REFCOUNT(r14)
0000E288  20 5F 58 00 01 00 00 00... add     r11, r11, #1
0000E290  11 59 70 00 01 00 00 00... store.b r11, KD_SHM_REFCOUNT(r14)
0000E298  11 CC B0 00 00 00 00 00... store.l r25, KD_REG_VA(r22)
0000E2A0  10 5B 70 00 04 00 00 00... load.w  r11, KD_SHM_PPN(r14)
0000E2A8  11 5B B0 00 04 00 00 00... store.w r11, KD_REG_PPN(r22)
0000E2B0  11 BB B0 00 06 00 00 00... store.w r23, KD_REG_PAGES(r22)
0000E2B8  01 59 00 00 02 00 00 00... move.b  r11, #REGION_SHARED
0000E2C0  11 59 B0 00 08 00 00 00... store.b r11, KD_REG_TYPE(r22)
0000E2C8  11 A1 B0 00 09 00 00 00... store.b r20, KD_REG_SHMID(r22)
0000E2D0  10 59 70 00 03 00 00 00... load.b  r11, KD_SHM_FLAGS(r14)
0000E2D8  11 59 B0 00 0A 00 00 00... store.b r11, KD_REG_FLAGS(r22)
0000E2E0  E9 00 00 00 00 00 00 00... tlbflush
0000E2E8  E6 00 98 00 00 00 00 00... mtcr    cr0, r19
0000E2F0  E9 00 00 00 00 00 00 00... tlbflush
0000E2F8  20 FF F8 00 10 00 00 00... add     sp, sp, #16
0000E300  01 0E C8 00 00 00 00 00... move.q  r1, r25
0000E308  01 17 00 00 00 00 00 00... move.q  r2, #ERR_OK
0000E310  01 1E B8 00 00 00 00 00... move.q  r3, r23
0000E318  E8 00 00 00 00 00 00 00... eret
                         .ms_badarg:
0000E320  E6 00 98 00 00 00 00 00... mtcr    cr0, r19
0000E328  E9 00 00 00 00 00 00 00... tlbflush
0000E330  20 FF F8 00 10 00 00 00... add     sp, sp, #16
0000E338  01 0F 00 00 00 00 00 00... move.q  r1, #0
0000E340  01 17 00 00 03 00 00 00... move.q  r2, #ERR_BADARG
0000E348  01 1F 00 00 00 00 00 00... move.q  r3, #0
0000E350  E8 00 00 00 00 00 00 00... eret
                         .ms_badhandle:
0000E358  E6 00 98 00 00 00 00 00... mtcr    cr0, r19
0000E360  E9 00 00 00 00 00 00 00... tlbflush
0000E368  20 FF F8 00 10 00 00 00... add     sp, sp, #16
0000E370  01 0F 00 00 00 00 00 00... move.q  r1, #0
0000E378  01 17 00 00 02 00 00 00... move.q  r2, #ERR_BADHANDLE
0000E380  01 1F 00 00 00 00 00 00... move.q  r3, #0
0000E388  E8 00 00 00 00 00 00 00... eret
                         .ms_nomem:
0000E390  01 65 00 00 00 D0 08 00... move.l  r12, #KERN_DATA_BASE
0000E398  10 0E 60 00 00 00 00 00... load.q  r1, (r12)
0000E3A0  01 15 00 00 03 00 00 00... move.l  r2, #QUOTA_KIND_SHMEM
0000E3A8  01 1E B8 00 00 00 00 00... move.q  r3, r23
0000E3B0  50 06 00 00 C8 2C 00 00... jsr     quota_return
0000E3B8  E6 00 98 00 00 00 00 00... mtcr    cr0, r19
0000E3C0  E9 00 00 00 00 00 00 00... tlbflush
0000E3C8  20 FF F8 00 10 00 00 00... add     sp, sp, #16
0000E3D0  01 0F 00 00 00 00 00 00... move.q  r1, #0
0000E3D8  01 17 00 00 01 00 00 00... move.q  r2, #ERR_NOMEM
0000E3E0  01 1F 00 00 00 00 00 00... move.q  r3, #0
0000E3E8  E8 00 00 00 00 00 00 00... eret
                         .do_open_library:
0000E3F0  40 06 00 00 D0 DE FF FF... bra     .do_find_port
                         .do_open_library_ex:
0000E3F8  01 65 00 00 00 D0 08 00... move.l  r12, #KERN_DATA_BASE
0000E400  10 6E 60 00 00 00 00 00... load.q  r13, (r12)
0000E408  01 C6 10 00 00 00 00 00... move.q  r24, r2
0000E410  01 CE 18 00 00 00 00 00... move.q  r25, r3
0000E418  01 D6 20 00 00 00 00 00... move.q  r26, r4
0000E420  52 06 D0 00 00 00 00 00... push    r26
0000E428  52 06 C8 00 00 00 00 00... push    r25
0000E430  52 06 C0 00 00 00 00 00... push    r24
0000E438  52 06 08 00 00 00 00 00... push    r1
0000E440  50 06 00 00 B0 C5 FF FF... jsr     safe_copy_user_name
0000E448  53 0E 00 00 00 00 00 00... pop     r1
0000E450  53 C6 00 00 00 00 00 00... pop     r24
0000E458  53 CE 00 00 00 00 00 00... pop     r25
0000E460  53 D6 00 00 00 00 00 00... pop     r26
0000E468  42 06 B8 00 68 02 00 00... bne r23, r0, .openlibex_badarg
0000E470  52 06 D0 00 00 00 00 00... push    r26
0000E478  52 06 C8 00 00 00 00 00... push    r25
0000E480  52 06 C0 00 00 00 00 00... push    r24
0000E488  50 06 00 00 C0 2D 00 00... jsr     m16_module_find_row_by_name
0000E490  53 C6 00 00 00 00 00 00... pop     r24
0000E498  53 CE 00 00 00 00 00 00... pop     r25
0000E4A0  53 D6 00 00 00 00 00 00... pop     r26
0000E4A8  41 06 08 00 40 02 00 00... beq r1, r0, .openlibex_begin_load
0000E4B0  01 AE 08 00 00 00 00 00... move.q  r21, r1
0000E4B8  01 B4 10 00 00 00 00 00... move.l  r22, r2
0000E4C0  10 BD A8 00 2C 00 00 00... load.l  r23, KD_MODULE_CLASS(r21)
0000E4C8  41 06 B8 00 18 00 00 00... beq r23, r0, .openlibex_class_ok
0000E4D0  01 5D 00 00 01 00 00 00... move.l  r11, #MODCLASS_LIBRARY
0000E4D8  42 06 B8 58 F8 01 00 00... bne     r23, r11, .openlibex_badarg
                         .openlibex_class_ok:
0000E4E0  10 BD A8 00 20 00 00 00... load.l  r23, KD_MODULE_STATE(r21)
0000E4E8  01 5D 00 00 02 00 00 00... move.l  r11, #M16_MODSTATE_ONLINE
0000E4F0  41 06 B8 58 20 01 00 00... beq     r23, r11, .openlibex_online
0000E4F8  01 5D 00 00 04 00 00 00... move.l  r11, #M16_MODSTATE_EXPUNGING
0000E500  42 06 B8 58 50 00 00 00... bne     r23, r11, .openlibex_not_expunging
0000E508  52 06 C0 00 00 00 00 00... push    r24
0000E510  52 06 C8 00 00 00 00 00... push    r25
0000E518  52 06 D0 00 00 00 00 00... push    r26
0000E520  01 0E A8 00 00 00 00 00... move.q  r1, r21
0000E528  50 06 00 00 30 33 00 00... jsr     m16_module_cancel_expunge
0000E530  53 D6 00 00 00 00 00 00... pop     r26
0000E538  53 CE 00 00 00 00 00 00... pop     r25
0000E540  53 C6 00 00 00 00 00 00... pop     r24
0000E548  40 06 00 00 C8 00 00 00... bra     .openlibex_online
                         .openlibex_not_expunging:
0000E550  52 06 D0 00 00 00 00 00... push    r26
0000E558  52 06 C8 00 00 00 00 00... push    r25
0000E560  52 06 C0 00 00 00 00 00... push    r24
0000E568  50 06 00 00 90 39 00 00... jsr     m16_openlibex_validate_waiter_args
0000E570  53 C6 00 00 00 00 00 00... pop     r24
0000E578  53 CE 00 00 00 00 00 00... pop     r25
0000E580  53 D6 00 00 00 00 00 00... pop     r26
0000E588  42 06 08 00 48 01 00 00... bne r1, r0, .openlibex_badarg
0000E590  10 BD A8 00 20 00 00 00... load.l  r23, KD_MODULE_STATE(r21)
0000E598  01 5D 00 00 01 00 00 00... move.l  r11, #M16_MODSTATE_LOADING
0000E5A0  41 06 B8 58 18 03 00 00... beq     r23, r11, .openlibex_queue_waiter_current
0000E5A8  52 06 D0 00 00 00 00 00... push    r26
0000E5B0  52 06 C8 00 00 00 00 00... push    r25
0000E5B8  52 06 C0 00 00 00 00 00... push    r24
0000E5C0  52 06 B0 00 00 00 00 00... push    r22
0000E5C8  01 0E A8 00 00 00 00 00... move.q  r1, r21
0000E5D0  01 16 B0 00 00 00 00 00... move.q  r2, r22
0000E5D8  50 06 00 00 78 2E 00 00... jsr     m16_module_prepare_loading_row
0000E5E0  01 AE 08 00 00 00 00 00... move.q  r21, r1
0000E5E8  53 B6 00 00 00 00 00 00... pop     r22
0000E5F0  53 C6 00 00 00 00 00 00... pop     r24
0000E5F8  53 CE 00 00 00 00 00 00... pop     r25
0000E600  53 D6 00 00 00 00 00 00... pop     r26
0000E608  40 06 00 00 D0 01 00 00... bra     .openlibex_queue_waiter_and_start
                         .openlibex_online:
0000E610  10 BB A8 00 28 00 00 00... load.w  r23, KD_MODULE_VERSION(r21)
0000E618  43 06 B8 C0 08 03 00 00... blt     r23, r24, .openlibex_version
0000E620  52 06 B0 00 00 00 00 00... push    r22
0000E628  50 06 00 00 88 3A FF FF... jsr     kern_current_public_task_id
0000E630  01 C6 08 00 00 00 00 00... move.q  r24, r1
0000E638  53 B6 00 00 00 00 00 00... pop     r22
0000E640  10 BD A8 00 24 00 00 00... load.l  r23, KD_MODULE_GENERATION(r21)
0000E648  01 0E C0 00 00 00 00 00... move.q  r1, r24
0000E650  01 16 B0 00 00 00 00 00... move.q  r2, r22
0000E658  01 1E B8 00 00 00 00 00... move.q  r3, r23
0000E660  50 06 00 00 38 42 00 00... jsr     m16_open_row_find_or_alloc
0000E668  41 06 08 00 D0 02 00 00... beq r1, r0, .openlibex_full
0000E670  01 C6 08 00 00 00 00 00... move.q  r24, r1
0000E678  10 CD C0 00 0C 00 00 00... load.l  r25, KD_MODULE_OPEN_ROW_COUNT(r24)
0000E680  20 CF C8 00 01 00 00 00... add     r25, r25, #1
0000E688  11 CD C0 00 0C 00 00 00... store.l r25, KD_MODULE_OPEN_ROW_COUNT(r24)
0000E690  10 CD A8 00 38 00 00 00... load.l  r25, KD_MODULE_OPEN_COUNT(r21)
0000E698  20 CF C8 00 01 00 00 00... add     r25, r25, #1
0000E6A0  11 CD A8 00 38 00 00 00... store.l r25, KD_MODULE_OPEN_COUNT(r21)
0000E6A8  01 0E B0 00 00 00 00 00... move.q  r1, r22
0000E6B0  01 16 B8 00 00 00 00 00... move.q  r2, r23
0000E6B8  50 06 00 00 F0 4F 00 00... jsr     m16_make_library_token
0000E6C0  01 17 00 00 00 00 00 00... move.q  r2, #ERR_OK
0000E6C8  E8 00 00 00 00 00 00 00... eret
                         .openlibex_badarg:
0000E6D0  01 0F 00 00 00 00 00 00... move.q  r1, #0
0000E6D8  01 17 00 00 03 00 00 00... move.q  r2, #ERR_BADARG
0000E6E0  E8 00 00 00 00 00 00 00... eret
                         .openlibex_begin_load:
0000E6E8  52 06 D0 00 00 00 00 00... push    r26
0000E6F0  52 06 C8 00 00 00 00 00... push    r25
0000E6F8  52 06 C0 00 00 00 00 00... push    r24
0000E700  50 06 00 00 F8 37 00 00... jsr     m16_openlibex_validate_waiter_args
0000E708  53 C6 00 00 00 00 00 00... pop     r24
0000E710  53 CE 00 00 00 00 00 00... pop     r25
0000E718  53 D6 00 00 00 00 00 00... pop     r26
0000E720  42 06 08 00 B0 FF FF FF... bne r1, r0, .openlibex_badarg
0000E728  52 06 D0 00 00 00 00 00... push    r26
0000E730  52 06 C8 00 00 00 00 00... push    r25
0000E738  52 06 C0 00 00 00 00 00... push    r24
0000E740  50 06 00 00 C0 2B 00 00... jsr     m16_module_find_or_alloc_row
0000E748  53 C6 00 00 00 00 00 00... pop     r24
0000E750  53 CE 00 00 00 00 00 00... pop     r25
0000E758  53 D6 00 00 00 00 00 00... pop     r26
0000E760  41 06 08 00 D8 01 00 00... beq r1, r0, .openlibex_full
0000E768  01 AE 08 00 00 00 00 00... move.q  r21, r1
0000E770  01 B4 10 00 00 00 00 00... move.l  r22, r2
0000E778  52 06 D0 00 00 00 00 00... push    r26
0000E780  52 06 C8 00 00 00 00 00... push    r25
0000E788  52 06 C0 00 00 00 00 00... push    r24
0000E790  52 06 B0 00 00 00 00 00... push    r22
0000E798  01 0E A8 00 00 00 00 00... move.q  r1, r21
0000E7A0  01 16 B0 00 00 00 00 00... move.q  r2, r22
0000E7A8  50 06 00 00 A8 2C 00 00... jsr     m16_module_prepare_loading_row
0000E7B0  01 AE 08 00 00 00 00 00... move.q  r21, r1
0000E7B8  53 B6 00 00 00 00 00 00... pop     r22
0000E7C0  53 C6 00 00 00 00 00 00... pop     r24
0000E7C8  53 CE 00 00 00 00 00 00... pop     r25
0000E7D0  53 D6 00 00 00 00 00 00... pop     r26
                         .openlibex_queue_waiter_and_start:
0000E7D8  50 06 00 00 D8 38 FF FF... jsr     kern_current_public_task_id
0000E7E0  01 DE 08 00 00 00 00 00... move.q  r27, r1
0000E7E8  01 0E A8 00 00 00 00 00... move.q  r1, r21
0000E7F0  01 16 B0 00 00 00 00 00... move.q  r2, r22
0000E7F8  01 1E D8 00 00 00 00 00... move.q  r3, r27
0000E800  01 26 C0 00 00 00 00 00... move.q  r4, r24
0000E808  01 2E C8 00 00 00 00 00... move.q  r5, r25
0000E810  01 36 D0 00 00 00 00 00... move.q  r6, r26
0000E818  52 06 A8 00 00 00 00 00... push    r21
0000E820  52 06 B0 00 00 00 00 00... push    r22
0000E828  50 06 00 00 50 34 00 00... jsr     m16_waiter_enqueue_on_row
0000E830  53 B6 00 00 00 00 00 00... pop     r22
0000E838  53 AE 00 00 00 00 00 00... pop     r21
0000E840  41 06 08 00 F8 00 00 00... beq r1, r0, .openlibex_full
0000E848  01 0E B0 00 00 00 00 00... move.q  r1, r22
0000E850  52 06 A8 00 00 00 00 00... push    r21
0000E858  52 06 B0 00 00 00 00 00... push    r22
0000E860  50 06 00 00 08 2D 00 00... jsr     m16_start_autoload_request
0000E868  53 B6 00 00 00 00 00 00... pop     r22
0000E870  53 AE 00 00 00 00 00 00... pop     r21
0000E878  41 06 10 00 28 00 00 00... beq r2, r0, .openlibex_waiting
0000E880  01 1E 10 00 00 00 00 00... move.q  r3, r2
0000E888  01 0E A8 00 00 00 00 00... move.q  r1, r21
0000E890  01 16 B0 00 00 00 00 00... move.q  r2, r22
0000E898  50 06 00 00 78 3D 00 00... jsr     m16_module_fail_to_unloaded
                         .openlibex_waiting:
0000E8A0  01 0F 00 00 00 00 00 00... move.q  r1, #0
0000E8A8  01 17 00 00 06 00 00 00... move.q  r2, #ERR_AGAIN
0000E8B0  E8 00 00 00 00 00 00 00... eret
                         .openlibex_queue_waiter_current:
0000E8B8  50 06 00 00 F8 37 FF FF... jsr     kern_current_public_task_id
0000E8C0  01 DE 08 00 00 00 00 00... move.q  r27, r1
0000E8C8  01 0E A8 00 00 00 00 00... move.q  r1, r21
0000E8D0  01 16 B0 00 00 00 00 00... move.q  r2, r22
0000E8D8  01 1E D8 00 00 00 00 00... move.q  r3, r27
0000E8E0  01 26 C0 00 00 00 00 00... move.q  r4, r24
0000E8E8  01 2E C8 00 00 00 00 00... move.q  r5, r25
0000E8F0  01 36 D0 00 00 00 00 00... move.q  r6, r26
0000E8F8  50 06 00 00 80 33 00 00... jsr     m16_waiter_enqueue_on_row
0000E900  41 06 08 00 38 00 00 00... beq r1, r0, .openlibex_full
0000E908  01 0F 00 00 00 00 00 00... move.q  r1, #0
0000E910  01 17 00 00 06 00 00 00... move.q  r2, #ERR_AGAIN
0000E918  E8 00 00 00 00 00 00 00... eret
                         .openlibex_version:
0000E920  01 0F 00 00 00 00 00 00... move.q  r1, #0
0000E928  01 17 00 00 0B 00 00 00... move.q  r2, #ERR_LIB_VERSION
0000E930  E8 00 00 00 00 00 00 00... eret
                         .openlibex_full:
0000E938  01 0F 00 00 00 00 00 00... move.q  r1, #0
0000E940  01 17 00 00 09 00 00 00... move.q  r2, #ERR_FULL
0000E948  E8 00 00 00 00 00 00 00... eret
                         .do_close_library:
0000E950  41 06 08 00 B0 01 00 00... beq r1, r0, .closelib_badhandle
0000E958  50 06 00 00 70 4D 00 00... jsr     m16_decode_library_token
0000E960  01 AE 08 00 00 00 00 00... move.q  r21, r1
0000E968  01 B6 10 00 00 00 00 00... move.q  r22, r2
0000E970  01 5D 00 00 10 00 00 00... move.l  r11, #KD_MODULE_MAX
0000E978  44 06 A8 58 88 01 00 00... bge     r21, r11, .closelib_badhandle
0000E980  01 0E A8 00 00 00 00 00... move.q  r1, r21
0000E988  50 06 00 00 70 28 00 00... jsr     m16_module_row_addr_for_index
0000E990  01 BE 08 00 00 00 00 00... move.q  r23, r1
0000E998  41 06 B8 00 68 01 00 00... beq r23, r0, .closelib_badhandle
0000E9A0  10 C5 B8 00 20 00 00 00... load.l  r24, KD_MODULE_STATE(r23)
0000E9A8  01 5D 00 00 02 00 00 00... move.l  r11, #M16_MODSTATE_ONLINE
0000E9B0  42 06 C0 58 50 01 00 00... bne     r24, r11, .closelib_badhandle
0000E9B8  10 C5 B8 00 24 00 00 00... load.l  r24, KD_MODULE_GENERATION(r23)
0000E9C0  42 06 C0 B0 40 01 00 00... bne     r24, r22, .closelib_badhandle
0000E9C8  52 06 A8 00 00 00 00 00... push    r21
0000E9D0  52 06 B0 00 00 00 00 00... push    r22
0000E9D8  50 06 00 00 D8 36 FF FF... jsr     kern_current_public_task_id
0000E9E0  01 C6 08 00 00 00 00 00... move.q  r24, r1
0000E9E8  53 B6 00 00 00 00 00 00... pop     r22
0000E9F0  53 AE 00 00 00 00 00 00... pop     r21
0000E9F8  01 0E C0 00 00 00 00 00... move.q  r1, r24
0000EA00  01 16 A8 00 00 00 00 00... move.q  r2, r21
0000EA08  01 1E B0 00 00 00 00 00... move.q  r3, r22
0000EA10  50 06 00 00 E8 3D 00 00... jsr     m16_open_row_find
0000EA18  41 06 08 00 E8 00 00 00... beq r1, r0, .closelib_badhandle
0000EA20  01 C6 08 00 00 00 00 00... move.q  r24, r1
0000EA28  10 CD C0 00 0C 00 00 00... load.l  r25, KD_MODULE_OPEN_ROW_COUNT(r24)
0000EA30  41 06 C8 00 D0 00 00 00... beq r25, r0, .closelib_badhandle
0000EA38  21 CF C8 00 01 00 00 00... sub     r25, r25, #1
0000EA40  11 CD C0 00 0C 00 00 00... store.l r25, KD_MODULE_OPEN_ROW_COUNT(r24)
0000EA48  10 D5 B8 00 38 00 00 00... load.l  r26, KD_MODULE_OPEN_COUNT(r23)
0000EA50  41 06 D0 00 B0 00 00 00... beq r26, r0, .closelib_badhandle
0000EA58  21 D7 D0 00 01 00 00 00... sub     r26, r26, #1
0000EA60  11 D5 B8 00 38 00 00 00... store.l r26, KD_MODULE_OPEN_COUNT(r23)
0000EA68  42 06 C8 00 48 00 00 00... bne r25, r0, .closelib_nonzero_open_row
0000EA70  10 5D B8 00 3C 00 00 00... load.l  r11, KD_MODULE_FLAGS(r23)
0000EA78  30 5F 58 00 01 00 00 00... and     r11, r11, #MODF_RESIDENT
0000EA80  41 06 58 00 20 00 00 00... beq r11, r0, .closelib_nonresident_last
0000EA88  01 D5 00 00 01 00 00 00... move.l  r26, #1
0000EA90  11 D5 B8 00 38 00 00 00... store.l r26, KD_MODULE_OPEN_COUNT(r23)
0000EA98  40 06 00 00 58 00 00 00... bra     .closelib_ok
                         .closelib_nonresident_last:
0000EAA0  41 06 D0 00 18 00 00 00... beq r26, r0, .closelib_begin_expunge
0000EAA8  40 06 00 00 48 00 00 00... bra     .closelib_ok
                         .closelib_nonzero_open_row:
0000EAB0  42 06 D0 00 40 00 00 00... bne r26, r0, .closelib_ok
                         .closelib_begin_expunge:
0000EAB8  01 0E B8 00 00 00 00 00... move.q  r1, r23
0000EAC0  01 16 A8 00 00 00 00 00... move.q  r2, r21
0000EAC8  50 06 00 00 C0 2D 00 00... jsr     m16_module_begin_expunge
0000EAD0  42 06 C8 00 20 00 00 00... bne r25, r0, .closelib_ok
0000EAD8  11 04 C0 00 00 00 00 00... store.l r0, KD_MODULE_OPEN_ROW_TASK(r24)
0000EAE0  11 05 C0 00 04 00 00 00... store.l r0, KD_MODULE_OPEN_ROW_INDEX(r24)
0000EAE8  11 05 C0 00 08 00 00 00... store.l r0, KD_MODULE_OPEN_ROW_GEN(r24)
                         .closelib_ok:
0000EAF0  01 17 00 00 00 00 00 00... move.q  r2, #ERR_OK
0000EAF8  E8 00 00 00 00 00 00 00... eret
                         .closelib_badhandle:
0000EB00  01 17 00 00 02 00 00 00... move.q  r2, #ERR_BADHANDLE
0000EB08  E8 00 00 00 00 00 00 00... eret
                         .do_add_library:
0000EB10  01 A5 00 00 01 00 00 00... move.l  r20, #MODCLASS_LIBRARY
0000EB18  40 06 00 00 38 00 00 00... bra     .do_add_module_common
                         .do_add_handler:
0000EB20  01 A5 00 00 03 00 00 00... move.l  r20, #MODCLASS_HANDLER
0000EB28  40 06 00 00 28 00 00 00... bra     .do_add_module_common
                         .do_add_device:
0000EB30  01 A5 00 00 02 00 00 00... move.l  r20, #MODCLASS_DEVICE
0000EB38  40 06 00 00 18 00 00 00... bra     .do_add_module_common
                         .do_add_resource:
0000EB40  01 A5 00 00 04 00 00 00... move.l  r20, #MODCLASS_RESOURCE
0000EB48  40 06 00 00 08 00 00 00... bra     .do_add_module_common
                         .do_add_module_common:
0000EB50  01 65 00 00 00 D0 08 00... move.l  r12, #KERN_DATA_BASE
0000EB58  11 A5 60 00 E8 0F 01 00... store.l r20, KD_MODULE_PATH_SCRATCH(r12)
0000EB60  10 6E 60 00 00 00 00 00... load.q  r13, (r12)
0000EB68  01 C6 10 00 00 00 00 00... move.q  r24, r2
0000EB70  01 CE 18 00 00 00 00 00... move.q  r25, r3
0000EB78  01 D6 20 00 00 00 00 00... move.q  r26, r4
0000EB80  52 06 D0 00 00 00 00 00... push    r26
0000EB88  52 06 C8 00 00 00 00 00... push    r25
0000EB90  52 06 C0 00 00 00 00 00... push    r24
0000EB98  52 06 08 00 00 00 00 00... push    r1
0000EBA0  50 06 00 00 50 BE FF FF... jsr     safe_copy_user_name
0000EBA8  53 0E 00 00 00 00 00 00... pop     r1
0000EBB0  53 C6 00 00 00 00 00 00... pop     r24
0000EBB8  53 CE 00 00 00 00 00 00... pop     r25
0000EBC0  53 D6 00 00 00 00 00 00... pop     r26
0000EBC8  42 06 B8 00 58 03 00 00... bne r23, r0, .addlib_badarg
0000EBD0  01 0E 68 00 00 00 00 00... move.q  r1, r13
0000EBD8  50 06 00 00 78 34 FF FF... jsr     kern_task_layout_addr
0000EBE0  10 BD 08 00 24 00 00 00... load.l  r23, KD_TASK_LAYOUT_FLAGS(r1)
0000EBE8  30 BF B8 00 02 00 00 00... and     r23, r23, #TASK_LAYOUT_FLAG_TRUSTED_INTERNAL
0000EBF0  41 06 B8 00 40 03 00 00... beq r23, r0, .addlib_perm
0000EBF8  01 0E D0 00 00 00 00 00... move.q  r1, r26
0000EC00  50 06 00 00 70 B7 FF FF... jsr     kern_port_addr_for_id
0000EC08  41 06 08 00 18 03 00 00... beq r1, r0, .addlib_badarg
0000EC10  01 AE 08 00 00 00 00 00... move.q  r21, r1
0000EC18  10 B8 A8 00 00 00 00 00... load.b  r23, KD_PORT_VALID(r21)
0000EC20  41 06 B8 00 00 03 00 00... beq r23, r0, .addlib_badarg
0000EC28  10 B9 A8 00 01 00 00 00... load.b  r23, KD_PORT_OWNER(r21)
0000EC30  42 06 B8 68 F0 02 00 00... bne     r23, r13, .addlib_badarg
0000EC38  10 B9 A8 00 05 00 00 00... load.b  r23, KD_PORT_FLAGS(r21)
0000EC40  30 BF B8 00 01 00 00 00... and     r23, r23, #PF_PUBLIC
0000EC48  41 06 B8 00 D8 02 00 00... beq r23, r0, .addlib_badarg
0000EC50  01 0E A8 00 00 00 00 00... move.q  r1, r21
0000EC58  20 0F 08 00 08 00 00 00... add     r1, r1, #KD_PORT_NAME
0000EC60  52 06 D0 00 00 00 00 00... push    r26
0000EC68  52 06 C8 00 00 00 00 00... push    r25
0000EC70  52 06 C0 00 00 00 00 00... push    r24
0000EC78  50 06 00 00 40 25 00 00... jsr     m16_name_matches_addr
0000EC80  53 C6 00 00 00 00 00 00... pop     r24
0000EC88  53 CE 00 00 00 00 00 00... pop     r25
0000EC90  53 D6 00 00 00 00 00 00... pop     r26
0000EC98  41 06 08 00 88 02 00 00... beq r1, r0, .addlib_badarg
0000ECA0  52 06 D0 00 00 00 00 00... push    r26
0000ECA8  52 06 C8 00 00 00 00 00... push    r25
0000ECB0  52 06 C0 00 00 00 00 00... push    r24
0000ECB8  50 06 00 00 48 26 00 00... jsr     m16_module_find_or_alloc_row
0000ECC0  53 C6 00 00 00 00 00 00... pop     r24
0000ECC8  53 CE 00 00 00 00 00 00... pop     r25
0000ECD0  53 D6 00 00 00 00 00 00... pop     r26
0000ECD8  41 06 08 00 68 02 00 00... beq r1, r0, .addlib_full
0000ECE0  01 AE 08 00 00 00 00 00... move.q  r21, r1
0000ECE8  01 B4 10 00 00 00 00 00... move.l  r22, r2
0000ECF0  01 5D 00 00 00 D0 08 00... move.l  r11, #KERN_DATA_BASE
0000ECF8  10 A5 58 00 E8 0F 01 00... load.l  r20, KD_MODULE_PATH_SCRATCH(r11)
0000ED00  10 5D A8 00 2C 00 00 00... load.l  r11, KD_MODULE_CLASS(r21)
0000ED08  41 06 58 00 10 00 00 00... beq r11, r0, .addlib_class_ok
0000ED10  42 06 58 A0 10 02 00 00... bne     r11, r20, .addlib_badarg
                         .addlib_class_ok:
0000ED18  10 DD A8 00 20 00 00 00... load.l  r27, KD_MODULE_STATE(r21)
0000ED20  01 5D 00 00 02 00 00 00... move.l  r11, #M16_MODSTATE_ONLINE
0000ED28  41 06 D8 58 F8 01 00 00... beq     r27, r11, .addlib_badarg
0000ED30  52 06 D0 00 00 00 00 00... push    r26
0000ED38  52 06 C8 00 00 00 00 00... push    r25
0000ED40  52 06 C0 00 00 00 00 00... push    r24
0000ED48  52 06 B0 00 00 00 00 00... push    r22
0000ED50  50 06 00 00 60 33 FF FF... jsr     kern_current_public_task_id
0000ED58  01 BE 08 00 00 00 00 00... move.q  r23, r1
0000ED60  53 B6 00 00 00 00 00 00... pop     r22
0000ED68  53 C6 00 00 00 00 00 00... pop     r24
0000ED70  53 CE 00 00 00 00 00 00... pop     r25
0000ED78  53 D6 00 00 00 00 00 00... pop     r26
0000ED80  01 5D 00 00 01 00 00 00... move.l  r11, #M16_MODSTATE_LOADING
0000ED88  42 06 D8 58 20 00 00 00... bne     r27, r11, .addlib_owner_ok
0000ED90  10 5D A8 00 30 00 00 00... load.l  r11, KD_MODULE_OWNING_TASK(r21)
0000ED98  41 06 58 00 10 00 00 00... beq r11, r0, .addlib_owner_ok
0000EDA0  42 06 58 B8 80 01 00 00... bne     r11, r23, .addlib_badarg
                         .addlib_owner_ok:
0000EDA8  10 DD A8 00 24 00 00 00... load.l  r27, KD_MODULE_GENERATION(r21)
0000EDB0  20 DF D8 00 01 00 00 00... add     r27, r27, #1
0000EDB8  11 DD A8 00 24 00 00 00... store.l r27, KD_MODULE_GENERATION(r21)
0000EDC0  11 C3 A8 00 28 00 00 00... store.w r24, KD_MODULE_VERSION(r21)
0000EDC8  11 CB A8 00 2A 00 00 00... store.w r25, KD_MODULE_REVISION(r21)
0000EDD0  11 A5 A8 00 2C 00 00 00... store.l r20, KD_MODULE_CLASS(r21)
0000EDD8  11 BD A8 00 30 00 00 00... store.l r23, KD_MODULE_OWNING_TASK(r21)
0000EDE0  11 D5 A8 00 34 00 00 00... store.l r26, KD_MODULE_PUBLIC_PORT(r21)
0000EDE8  11 05 A8 00 38 00 00 00... store.l r0, KD_MODULE_OPEN_COUNT(r21)
0000EDF0  01 5D 00 00 06 00 00 00... move.l  r11, #(MODF_COMPAT_PORT | MODF_ASLR_CAPABLE)
0000EDF8  11 5D A8 00 3C 00 00 00... store.l r11, KD_MODULE_FLAGS(r21)
0000EE00  11 05 A8 00 48 00 00 00... store.l r0, KD_MODULE_DEADLINE_TICK(r21)
0000EE08  01 5D 00 00 01 00 00 00... move.l  r11, #MODCLASS_LIBRARY
0000EE10  42 06 A0 58 38 00 00 00... bne     r20, r11, .addlib_nonlibrary_resident
0000EE18  01 5D 00 00 00 D0 08 00... move.l  r11, #KERN_DATA_BASE
0000EE20  10 65 58 00 BC C0 00 00... load.l  r12, KD_DOSLIB_PUBID(r11)
0000EE28  42 06 60 B8 30 00 00 00... bne     r12, r23, .addlib_runtime_flags_done
0000EE30  01 5D 00 00 07 00 00 00... move.l  r11, #(MODF_RESIDENT | MODF_COMPAT_PORT | MODF_ASLR_CAPABLE)
0000EE38  11 5D A8 00 3C 00 00 00... store.l r11, KD_MODULE_FLAGS(r21)
0000EE40  40 06 00 00 18 00 00 00... bra     .addlib_runtime_flags_done
                         .addlib_nonlibrary_resident:
0000EE48  01 5D 00 00 07 00 00 00... move.l  r11, #(MODF_RESIDENT | MODF_COMPAT_PORT | MODF_ASLR_CAPABLE)
0000EE50  11 5D A8 00 3C 00 00 00... store.l r11, KD_MODULE_FLAGS(r21)
                         .addlib_runtime_flags_done:
0000EE58  01 5D 00 00 02 00 00 00... move.l  r11, #M16_MODSTATE_ONLINE
0000EE60  11 5D A8 00 20 00 00 00... store.l r11, KD_MODULE_STATE(r21)
0000EE68  52 06 A8 00 00 00 00 00... push    r21
0000EE70  52 06 B0 00 00 00 00 00... push    r22
0000EE78  01 0E B0 00 00 00 00 00... move.q  r1, r22
0000EE80  50 06 00 00 18 3B 00 00... jsr     m16_clear_open_rows_for_module
0000EE88  53 B6 00 00 00 00 00 00... pop     r22
0000EE90  53 AE 00 00 00 00 00 00... pop     r21
0000EE98  52 06 A8 00 00 00 00 00... push    r21
0000EEA0  52 06 B0 00 00 00 00 00... push    r22
0000EEA8  01 0E A8 00 00 00 00 00... move.q  r1, r21
0000EEB0  01 16 B0 00 00 00 00 00... move.q  r2, r22
0000EEB8  50 06 00 00 10 31 00 00... jsr     m16_module_complete_waiters_online
0000EEC0  01 DE 08 00 00 00 00 00... move.q  r27, r1
0000EEC8  53 B6 00 00 00 00 00 00... pop     r22
0000EED0  53 AE 00 00 00 00 00 00... pop     r21
0000EED8  10 DD A8 00 38 00 00 00... load.l  r27, KD_MODULE_OPEN_COUNT(r21)
0000EEE0  10 5D A8 00 3C 00 00 00... load.l  r11, KD_MODULE_FLAGS(r21)
0000EEE8  30 5F 58 00 01 00 00 00... and     r11, r11, #MODF_RESIDENT
0000EEF0  41 06 58 00 20 00 00 00... beq r11, r0, .addlib_done
0000EEF8  42 06 D8 00 18 00 00 00... bne r27, r0, .addlib_done
0000EF00  01 5D 00 00 01 00 00 00... move.l  r11, #1
0000EF08  11 5D A8 00 38 00 00 00... store.l r11, KD_MODULE_OPEN_COUNT(r21)
                         .addlib_done:
0000EF10  01 17 00 00 00 00 00 00... move.q  r2, #ERR_OK
0000EF18  E8 00 00 00 00 00 00 00... eret
                         .addlib_badarg:
0000EF20  01 17 00 00 03 00 00 00... move.q  r2, #ERR_BADARG
0000EF28  E8 00 00 00 00 00 00 00... eret
                         .addlib_perm:
0000EF30  01 17 00 00 05 00 00 00... move.q  r2, #ERR_PERM
0000EF38  E8 00 00 00 00 00 00 00... eret
                         .addlib_full:
0000EF40  01 17 00 00 09 00 00 00... move.q  r2, #ERR_FULL
0000EF48  E8 00 00 00 00 00 00 00... eret
                         .do_m16_copy_module_name:
0000EF50  01 C6 08 00 00 00 00 00... move.q  r24, r1
0000EF58  01 CE 10 00 00 00 00 00... move.q  r25, r2
0000EF60  01 65 00 00 00 D0 08 00... move.l  r12, #KERN_DATA_BASE
0000EF68  10 6E 60 00 00 00 00 00... load.q  r13, KD_CURRENT_TASK(r12)
0000EF70  10 5D 60 00 BC C0 00 00... load.l  r11, KD_DOSLIB_PUBID(r12)
0000EF78  01 75 00 00 FF FF FF FF... move.l  r14, #TASK_PUBID_FREE
0000EF80  41 06 58 70 10 01 00 00... beq     r11, r14, .m16cmn_perm
0000EF88  01 0E 58 00 00 00 00 00... move.q  r1, r11
0000EF90  50 06 00 00 48 31 FF FF... jsr     kern_find_slot_for_public_id
0000EF98  41 06 10 00 F8 00 00 00... beq r2, r0, .m16cmn_perm
0000EFA0  42 06 08 68 F0 00 00 00... bne     r1, r13, .m16cmn_perm
0000EFA8  01 0E C0 00 00 00 00 00... move.q  r1, r24
0000EFB0  50 06 00 00 48 22 00 00... jsr     m16_module_row_addr_for_index
0000EFB8  41 06 08 00 C8 00 00 00... beq r1, r0, .m16cmn_badarg
0000EFC0  01 AE 08 00 00 00 00 00... move.q  r21, r1
0000EFC8  34 5F 68 00 03 00 00 00... lsl     r11, r13, #3
0000EFD0  20 5F 58 00 20 20 00 00... add     r11, r11, #KD_PTBR_BASE
0000EFD8  20 5E 58 60 00 00 00 00... add     r11, r11, r12
0000EFE0  10 26 58 00 00 00 00 00... load.q  r4, (r11)
0000EFE8  01 0E C8 00 00 00 00 00... move.q  r1, r25
0000EFF0  01 15 00 00 20 00 00 00... move.l  r2, #32
0000EFF8  01 1E 20 00 00 00 00 00... move.q  r3, r4
0000F000  50 06 00 00 B0 19 00 00... jsr     validate_user_write_range
0000F008  42 06 08 00 78 00 00 00... bne r1, r0, .m16cmn_badarg
0000F010  01 BE C8 00 00 00 00 00... move.q  r23, r25
0000F018  20 C7 A8 00 00 00 00 00... add     r24, r21, #KD_MODULE_NAME
0000F020  01 D5 00 00 20 00 00 00... move.l  r26, #32
                         .m16cmn_copy_loop:
0000F028  41 06 D0 00 48 00 00 00... beq r26, r0, .m16cmn_copy_done
0000F030  10 D8 C0 00 00 00 00 00... load.b  r27, (r24)
0000F038  F3 00 00 00 00 00 00 00... suaen
0000F040  11 D8 B8 00 00 00 00 00... store.b r27, (r23)
0000F048  F4 00 00 00 00 00 00 00... suadis
0000F050  20 C7 C0 00 01 00 00 00... add     r24, r24, #1
0000F058  20 BF B8 00 01 00 00 00... add     r23, r23, #1
0000F060  21 D7 D0 00 01 00 00 00... sub     r26, r26, #1
0000F068  40 06 00 00 C0 FF FF FF... bra     .m16cmn_copy_loop
                         .m16cmn_copy_done:
0000F070  01 17 00 00 00 00 00 00... move.q  r2, #ERR_OK
0000F078  E8 00 00 00 00 00 00 00... eret
                         .m16cmn_badarg:
0000F080  01 17 00 00 03 00 00 00... move.q  r2, #ERR_BADARG
0000F088  E8 00 00 00 00 00 00 00... eret
                         .m16cmn_perm:
0000F090  01 17 00 00 05 00 00 00... move.q  r2, #ERR_PERM
0000F098  E8 00 00 00 00 00 00 00... eret
                         .do_m16_library_load_result:
0000F0A0  01 C6 08 00 00 00 00 00... move.q  r24, r1
0000F0A8  01 CE 10 00 00 00 00 00... move.q  r25, r2
0000F0B0  01 D6 18 00 00 00 00 00... move.q  r26, r3
0000F0B8  01 65 00 00 00 D0 08 00... move.l  r12, #KERN_DATA_BASE
0000F0C0  10 6E 60 00 00 00 00 00... load.q  r13, KD_CURRENT_TASK(r12)
0000F0C8  10 5D 60 00 BC C0 00 00... load.l  r11, KD_DOSLIB_PUBID(r12)
0000F0D0  01 75 00 00 FF FF FF FF... move.l  r14, #TASK_PUBID_FREE
0000F0D8  41 06 58 70 E0 00 00 00... beq     r11, r14, .m16lr_perm
0000F0E0  01 0E 58 00 00 00 00 00... move.q  r1, r11
0000F0E8  50 06 00 00 F0 2F FF FF... jsr     kern_find_slot_for_public_id
0000F0F0  41 06 10 00 C8 00 00 00... beq r2, r0, .m16lr_perm
0000F0F8  42 06 08 68 C0 00 00 00... bne     r1, r13, .m16lr_perm
0000F100  01 0E C0 00 00 00 00 00... move.q  r1, r24
0000F108  50 06 00 00 F0 20 00 00... jsr     m16_module_row_addr_for_index
0000F110  41 06 08 00 98 00 00 00... beq r1, r0, .m16lr_badarg
0000F118  01 AE 08 00 00 00 00 00... move.q  r21, r1
0000F120  10 5D A8 00 20 00 00 00... load.l  r11, KD_MODULE_STATE(r21)
0000F128  01 75 00 00 01 00 00 00... move.l  r14, #M16_MODSTATE_LOADING
0000F130  42 06 58 70 78 00 00 00... bne     r11, r14, .m16lr_badarg
0000F138  41 06 C8 00 40 00 00 00... beq r25, r0, .m16lr_fail
0000F140  42 06 D0 00 38 00 00 00... bne r26, r0, .m16lr_fail
0000F148  10 5D A8 00 30 00 00 00... load.l  r11, KD_MODULE_OWNING_TASK(r21)
0000F150  41 06 58 00 10 00 00 00... beq r11, r0, .m16lr_stamp_owner
0000F158  42 06 58 C8 50 00 00 00... bne     r11, r25, .m16lr_badarg
                         .m16lr_stamp_owner:
0000F160  11 CD A8 00 30 00 00 00... store.l r25, KD_MODULE_OWNING_TASK(r21)
0000F168  01 17 00 00 00 00 00 00... move.q  r2, #ERR_OK
0000F170  E8 00 00 00 00 00 00 00... eret
                         .m16lr_fail:
0000F178  01 0E A8 00 00 00 00 00... move.q  r1, r21
0000F180  01 16 C0 00 00 00 00 00... move.q  r2, r24
0000F188  01 1E D0 00 00 00 00 00... move.q  r3, r26
0000F190  50 06 00 00 80 34 00 00... jsr     m16_module_fail_to_unloaded
0000F198  01 17 00 00 00 00 00 00... move.q  r2, #ERR_OK
0000F1A0  E8 00 00 00 00 00 00 00... eret
                         .m16lr_badarg:
0000F1A8  01 17 00 00 03 00 00 00... move.q  r2, #ERR_BADARG
0000F1B0  E8 00 00 00 00 00 00 00... eret
                         .m16lr_perm:
0000F1B8  01 17 00 00 05 00 00 00... move.q  r2, #ERR_PERM
0000F1C0  E8 00 00 00 00 00 00 00... eret
                         .do_set_resident:
0000F1C8  01 65 00 00 00 D0 08 00... move.l  r12, #KERN_DATA_BASE
0000F1D0  10 6E 60 00 00 00 00 00... load.q  r13, (r12)
0000F1D8  01 C6 10 00 00 00 00 00... move.q  r24, r2
0000F1E0  30 C7 C0 00 01 00 00 00... and     r24, r24, #1
0000F1E8  52 06 C0 00 00 00 00 00... push    r24
0000F1F0  52 06 08 00 00 00 00 00... push    r1
0000F1F8  50 06 00 00 F8 B7 FF FF... jsr     safe_copy_user_name
0000F200  53 0E 00 00 00 00 00 00... pop     r1
0000F208  53 C6 00 00 00 00 00 00... pop     r24
0000F210  42 06 B8 00 A8 01 00 00... bne r23, r0, .m16sr_badarg
0000F218  52 06 C0 00 00 00 00 00... push    r24
0000F220  50 06 00 00 28 20 00 00... jsr     m16_module_find_row_by_name
0000F228  53 C6 00 00 00 00 00 00... pop     r24
0000F230  41 06 08 00 98 01 00 00... beq r1, r0, .m16sr_notfound
0000F238  01 AE 08 00 00 00 00 00... move.q  r21, r1
0000F240  01 B6 10 00 00 00 00 00... move.q  r22, r2
0000F248  10 BD A8 00 2C 00 00 00... load.l  r23, KD_MODULE_CLASS(r21)
0000F250  01 5D 00 00 01 00 00 00... move.l  r11, #1
0000F258  42 06 B8 58 80 01 00 00... bne     r23, r11, .m16sr_unsupported
0000F260  10 BD A8 00 20 00 00 00... load.l  r23, KD_MODULE_STATE(r21)
0000F268  01 5D 00 00 00 00 00 00... move.l  r11, #M16_MODSTATE_UNLOADED
0000F270  41 06 B8 58 48 01 00 00... beq     r23, r11, .m16sr_badarg
0000F278  01 0E B0 00 00 00 00 00... move.q  r1, r22
0000F280  52 06 C0 00 00 00 00 00... push    r24
0000F288  52 06 A8 00 00 00 00 00... push    r21
0000F290  52 06 B0 00 00 00 00 00... push    r22
0000F298  50 06 00 00 48 22 00 00... jsr     m16_module_sum_open_rows
0000F2A0  53 B6 00 00 00 00 00 00... pop     r22
0000F2A8  53 AE 00 00 00 00 00 00... pop     r21
0000F2B0  53 C6 00 00 00 00 00 00... pop     r24
0000F2B8  01 BE 08 00 00 00 00 00... move.q  r23, r1
0000F2C0  42 06 C0 00 90 00 00 00... bne r24, r0, .m16sr_add
                         .m16sr_remove:
0000F2C8  01 5D 00 00 00 D0 08 00... move.l  r11, #KERN_DATA_BASE
0000F2D0  10 65 58 00 BC C0 00 00... load.l  r12, KD_DOSLIB_PUBID(r11)
0000F2D8  41 06 60 00 18 00 00 00... beq r12, r0, .m16sr_remove_mutate
0000F2E0  10 5D A8 00 30 00 00 00... load.l  r11, KD_MODULE_OWNING_TASK(r21)
0000F2E8  41 06 58 60 F0 00 00 00... beq     r11, r12, .m16sr_unsupported
                         .m16sr_remove_mutate:
0000F2F0  10 5D A8 00 3C 00 00 00... load.l  r11, KD_MODULE_FLAGS(r21)
0000F2F8  30 5F 58 00 FE FF FF FF... and     r11, r11, #0xFFFFFFFE
0000F300  11 5D A8 00 3C 00 00 00... store.l r11, KD_MODULE_FLAGS(r21)
0000F308  11 BD A8 00 38 00 00 00... store.l r23, KD_MODULE_OPEN_COUNT(r21)
0000F310  10 5D A8 00 20 00 00 00... load.l  r11, KD_MODULE_STATE(r21)
0000F318  01 75 00 00 02 00 00 00... move.l  r14, #M16_MODSTATE_ONLINE
0000F320  42 06 58 70 88 00 00 00... bne     r11, r14, .m16sr_ok
0000F328  42 06 B8 00 80 00 00 00... bne r23, r0, .m16sr_ok
0000F330  01 0E A8 00 00 00 00 00... move.q  r1, r21
0000F338  01 16 B0 00 00 00 00 00... move.q  r2, r22
0000F340  50 06 00 00 48 25 00 00... jsr     m16_module_begin_expunge
0000F348  40 06 00 00 60 00 00 00... bra     .m16sr_ok
                         .m16sr_add:
0000F350  10 5D A8 00 3C 00 00 00... load.l  r11, KD_MODULE_FLAGS(r21)
0000F358  31 5F 58 00 01 00 00 00... or      r11, r11, #MODF_RESIDENT
0000F360  11 5D A8 00 3C 00 00 00... store.l r11, KD_MODULE_FLAGS(r21)
0000F368  10 5D A8 00 20 00 00 00... load.l  r11, KD_MODULE_STATE(r21)
0000F370  01 75 00 00 04 00 00 00... move.l  r14, #M16_MODSTATE_EXPUNGING
0000F378  42 06 58 70 18 00 00 00... bne     r11, r14, .m16sr_add_floor
0000F380  01 0E A8 00 00 00 00 00... move.q  r1, r21
0000F388  50 06 00 00 D0 24 00 00... jsr     m16_module_cancel_expunge
                         .m16sr_add_floor:
0000F390  42 06 B8 00 18 00 00 00... bne r23, r0, .m16sr_ok
0000F398  01 5D 00 00 01 00 00 00... move.l  r11, #1
0000F3A0  11 5D A8 00 38 00 00 00... store.l r11, KD_MODULE_OPEN_COUNT(r21)
                         .m16sr_ok:
0000F3A8  01 17 00 00 00 00 00 00... move.q  r2, #ERR_OK
0000F3B0  E8 00 00 00 00 00 00 00... eret
                         .m16sr_badarg:
0000F3B8  01 17 00 00 03 00 00 00... move.q  r2, #ERR_BADARG
0000F3C0  E8 00 00 00 00 00 00 00... eret
                         .m16sr_notfound:
0000F3C8  01 17 00 00 04 00 00 00... move.q  r2, #ERR_NOTFOUND
0000F3D0  E8 00 00 00 00 00 00 00... eret
                         .m16sr_unsupported:
0000F3D8  01 17 00 00 0C 00 00 00... move.q  r2, #ERR_UNSUPPORTED
0000F3E0  E8 00 00 00 00 00 00 00... eret
                         .do_m16_expunge_result:
0000F3E8  01 C6 08 00 00 00 00 00... move.q  r24, r1
0000F3F0  01 CE 10 00 00 00 00 00... move.q  r25, r2
0000F3F8  01 D6 18 00 00 00 00 00... move.q  r26, r3
0000F400  50 06 00 00 B0 2C FF FF... jsr     kern_current_public_task_id
0000F408  01 A6 08 00 00 00 00 00... move.q  r20, r1
0000F410  01 5D 00 00 10 00 00 00... move.l  r11, #KD_MODULE_MAX
0000F418  44 06 C8 58 D0 00 00 00... bge     r25, r11, .m16er_again
0000F420  01 0E C8 00 00 00 00 00... move.q  r1, r25
0000F428  52 06 A0 00 00 00 00 00... push    r20
0000F430  52 06 C0 00 00 00 00 00... push    r24
0000F438  52 06 C8 00 00 00 00 00... push    r25
0000F440  52 06 D0 00 00 00 00 00... push    r26
0000F448  50 06 00 00 B0 1D 00 00... jsr     m16_module_row_addr_for_index
0000F450  53 D6 00 00 00 00 00 00... pop     r26
0000F458  53 CE 00 00 00 00 00 00... pop     r25
0000F460  53 C6 00 00 00 00 00 00... pop     r24
0000F468  53 A6 00 00 00 00 00 00... pop     r20
0000F470  01 B6 08 00 00 00 00 00... move.q  r22, r1
0000F478  10 5D B0 00 20 00 00 00... load.l  r11, KD_MODULE_STATE(r22)
0000F480  01 75 00 00 04 00 00 00... move.l  r14, #M16_MODSTATE_EXPUNGING
0000F488  42 06 58 70 60 00 00 00... bne     r11, r14, .m16er_again
0000F490  10 5D B0 00 30 00 00 00... load.l  r11, KD_MODULE_OWNING_TASK(r22)
0000F498  42 06 58 A0 50 00 00 00... bne     r11, r20, .m16er_again
0000F4A0  10 5D B0 00 24 00 00 00... load.l  r11, KD_MODULE_GENERATION(r22)
0000F4A8  42 06 58 D0 40 00 00 00... bne     r11, r26, .m16er_again
0000F4B0  42 06 C0 00 28 00 00 00... bne r24, r0, .m16er_accept
0000F4B8  01 0E B0 00 00 00 00 00... move.q  r1, r22
0000F4C0  50 06 00 00 98 23 00 00... jsr     m16_module_cancel_expunge
0000F4C8  01 17 00 00 00 00 00 00... move.q  r2, #ERR_OK
0000F4D0  E8 00 00 00 00 00 00 00... eret
                         .m16er_accept:
0000F4D8  01 17 00 00 00 00 00 00... move.q  r2, #ERR_OK
0000F4E0  E8 00 00 00 00 00 00 00... eret
                         .m16er_again:
0000F4E8  01 17 00 00 06 00 00 00... move.q  r2, #ERR_AGAIN
0000F4F0  E8 00 00 00 00 00 00 00... eret
                         .do_map_io:
0000F4F8  01 C6 08 00 00 00 00 00... move.q  r24, r1
0000F500  01 CE 10 00 00 00 00 00... move.q  r25, r2
0000F508  E7 98 00 00 00 00 00 00... mfcr    r19, cr0
0000F510  01 5D 00 00 00 D0 07 00... move.l  r11, #KERN_PAGE_TABLE
0000F518  E6 00 58 00 00 00 00 00... mtcr    cr0, r11
0000F520  E9 00 00 00 00 00 00 00... tlbflush
0000F528  43 06 C0 00 F0 01 00 00... blt r24, r0, .mio_badarg
0000F530  43 06 C8 00 E8 01 00 00... blt r25, r0, .mio_badarg
0000F538  42 06 C8 00 10 00 00 00... bne r25, r0, .mio_count_set
0000F540  01 CD 00 00 01 00 00 00... move.l  r25, #1
                         .mio_count_set:
0000F548  01 5D 00 00 00 05 00 00... move.l  r11, #0x500
0000F550  45 06 C8 58 C8 01 00 00... bgt     r25, r11, .mio_badarg
0000F558  01 65 00 00 00 D0 08 00... move.l  r12, #KERN_DATA_BASE
0000F560  50 06 00 00 50 2B FF FF... jsr     kern_current_public_task_id
0000F568  01 16 C0 00 00 00 00 00... move.q  r2, r24
0000F570  01 1E C8 00 00 00 00 00... move.q  r3, r25
0000F578  50 06 00 00 E0 96 FF FF... jsr     kern_grant_check
0000F580  41 06 08 00 E8 01 00 00... beq r1, r0, .mio_perm
                         .mio_validated:
0000F588  01 65 00 00 00 D0 08 00... move.l  r12, #KERN_DATA_BASE
0000F590  10 6E 60 00 00 00 00 00... load.q  r13, (r12)
0000F598  01 75 00 00 00 D0 08 00... move.l  r14, #KERN_DATA_BASE
0000F5A0  20 77 70 00 38 40 00 00... add     r14, r14, #KD_REGION_TABLE
0000F5A8  01 5D 00 00 80 00 00 00... move.l  r11, #KD_REGION_TASK_SZ
0000F5B0  22 5E 68 58 00 00 00 00... mulu    r11, r13, r11
0000F5B8  20 76 70 58 00 00 00 00... add     r14, r14, r11
0000F5C0  01 7D 00 00 00 00 00 00... move.l  r15, #0
                         .mio_find_region:
0000F5C8  01 5D 00 00 08 00 00 00... move.l  r11, #KD_REGION_INLINE_MAX
0000F5D0  44 06 78 58 40 00 00 00... bge     r15, r11, .mio_inline_full
0000F5D8  01 5D 00 00 10 00 00 00... move.l  r11, #KD_REGION_STRIDE
0000F5E0  22 5E 78 58 00 00 00 00... mulu    r11, r15, r11
0000F5E8  20 86 70 58 00 00 00 00... add     r16, r14, r11
0000F5F0  10 59 80 00 08 00 00 00... load.b  r11, KD_REG_TYPE(r16)
0000F5F8  41 06 58 00 38 00 00 00... beq r11, r0, .mio_found_region
0000F600  20 7F 78 00 01 00 00 00... add     r15, r15, #1
0000F608  40 06 00 00 C0 FF FF FF... bra     .mio_find_region
                         .mio_inline_full:
0000F610  01 0E 68 00 00 00 00 00... move.q  r1, r13
0000F618  50 06 00 00 58 9E FF FF... jsr     kern_region_oflow_alloc_row
0000F620  42 06 10 00 20 01 00 00... bne r2, r0, .mio_nomem
0000F628  01 86 08 00 00 00 00 00... move.q  r16, r1
                         .mio_found_region:
0000F630  01 AE 80 00 00 00 00 00... move.q  r21, r16
0000F638  52 06 68 00 00 00 00 00... push    r13
0000F640  01 0E 68 00 00 00 00 00... move.q  r1, r13
0000F648  01 16 C8 00 00 00 00 00... move.q  r2, r25
0000F650  50 06 00 00 30 B1 FF FF... jsr     find_free_va
0000F658  53 6E 00 00 00 00 00 00... pop     r13
0000F660  42 06 10 00 E0 00 00 00... bne r2, r0, .mio_nomem
0000F668  01 BE 08 00 00 00 00 00... move.q  r23, r1
0000F670  01 65 00 00 00 D0 08 00... move.l  r12, #KERN_DATA_BASE
0000F678  34 0F 68 00 03 00 00 00... lsl     r1, r13, #3
0000F680  20 0F 08 00 20 20 00 00... add     r1, r1, #KD_PTBR_BASE
0000F688  20 0E 08 60 00 00 00 00... add     r1, r1, r12
0000F690  10 0E 08 00 00 00 00 00... load.q  r1, (r1)
0000F698  01 16 B8 00 00 00 00 00... move.q  r2, r23
0000F6A0  01 1E C0 00 00 00 00 00... move.q  r3, r24
0000F6A8  01 26 C8 00 00 00 00 00... move.q  r4, r25
0000F6B0  01 2D 00 00 17 00 00 00... move.l  r5, #0x17
0000F6B8  50 06 00 00 10 B0 FF FF... jsr     map_pages
0000F6C0  11 BC A8 00 00 00 00 00... store.l r23, KD_REG_VA(r21)
0000F6C8  11 C3 A8 00 04 00 00 00... store.w r24, KD_REG_PPN(r21)
0000F6D0  11 CB A8 00 06 00 00 00... store.w r25, KD_REG_PAGES(r21)
0000F6D8  01 59 00 00 03 00 00 00... move.b  r11, #REGION_IO
0000F6E0  11 59 A8 00 08 00 00 00... store.b r11, KD_REG_TYPE(r21)
0000F6E8  E9 00 00 00 00 00 00 00... tlbflush
0000F6F0  E6 00 98 00 00 00 00 00... mtcr    cr0, r19
0000F6F8  E9 00 00 00 00 00 00 00... tlbflush
0000F700  01 0E B8 00 00 00 00 00... move.q  r1, r23
0000F708  01 17 00 00 00 00 00 00... move.q  r2, #ERR_OK
0000F710  E8 00 00 00 00 00 00 00... eret
                         .mio_badarg:
0000F718  E6 00 98 00 00 00 00 00... mtcr    cr0, r19
0000F720  E9 00 00 00 00 00 00 00... tlbflush
0000F728  01 0F 00 00 00 00 00 00... move.q  r1, #0
0000F730  01 17 00 00 03 00 00 00... move.q  r2, #ERR_BADARG
0000F738  E8 00 00 00 00 00 00 00... eret
                         .mio_nomem:
0000F740  E6 00 98 00 00 00 00 00... mtcr    cr0, r19
0000F748  E9 00 00 00 00 00 00 00... tlbflush
0000F750  01 0F 00 00 00 00 00 00... move.q  r1, #0
0000F758  01 17 00 00 01 00 00 00... move.q  r2, #ERR_NOMEM
0000F760  E8 00 00 00 00 00 00 00... eret
                         .mio_perm:
0000F768  E6 00 98 00 00 00 00 00... mtcr    cr0, r19
0000F770  E9 00 00 00 00 00 00 00... tlbflush
0000F778  01 0F 00 00 00 00 00 00... move.q  r1, #0
0000F780  01 17 00 00 05 00 00 00... move.q  r2, #ERR_PERM
0000F788  E8 00 00 00 00 00 00 00... eret
                         .do_hwres_op:
0000F790  01 56 30 00 00 00 00 00... move.q  r10, r6
0000F798  01 5D 00 00 00 00 00 00... move.l  r11, #HWRES_BECOME
0000F7A0  41 06 50 58 40 00 00 00... beq     r10, r11, .hwres_become
0000F7A8  01 5D 00 00 01 00 00 00... move.l  r11, #HWRES_CREATE
0000F7B0  41 06 50 58 78 00 00 00... beq     r10, r11, .hwres_create
0000F7B8  01 5D 00 00 02 00 00 00... move.l  r11, #HWRES_REVOKE
0000F7C0  41 06 50 58 10 02 00 00... beq     r10, r11, .hwres_revoke
0000F7C8  01 5D 00 00 03 00 00 00... move.l  r11, #HWRES_TASK_ALIVE
0000F7D0  41 06 50 58 18 02 00 00... beq     r10, r11, .hwres_task_alive
0000F7D8  40 06 00 00 D8 02 00 00... bra     .hwres_badarg
                         .hwres_become:
0000F7E0  01 65 00 00 00 D0 08 00... move.l  r12, #KERN_DATA_BASE
0000F7E8  10 6D 60 00 B8 C0 00 00... load.l  r13, KD_HWRES_TASK(r12)
0000F7F0  01 75 00 00 FF FF FF FF... move.l  r14, #HWRES_TASK_FREE
0000F7F8  42 06 68 70 A0 02 00 00... bne     r13, r14, .hwres_exists
0000F800  50 06 00 00 B0 28 FF FF... jsr     kern_current_public_task_id
0000F808  11 0D 60 00 B8 C0 00 00... store.l r1, KD_HWRES_TASK(r12)
0000F810  01 0F 00 00 00 00 00 00... move.q  r1, #0
0000F818  01 17 00 00 00 00 00 00... move.q  r2, #ERR_OK
0000F820  E8 00 00 00 00 00 00 00... eret
                         .hwres_create:
0000F828  01 A6 08 00 00 00 00 00... move.q  r20, r1
0000F830  01 AE 10 00 00 00 00 00... move.q  r21, r2
0000F838  01 B6 18 00 00 00 00 00... move.q  r22, r3
0000F840  01 BE 20 00 00 00 00 00... move.q  r23, r4
0000F848  01 65 00 00 00 D0 08 00... move.l  r12, #KERN_DATA_BASE
0000F850  50 06 00 00 60 28 FF FF... jsr     kern_current_public_task_id
0000F858  01 6E 08 00 00 00 00 00... move.q  r13, r1
0000F860  10 75 60 00 B8 C0 00 00... load.l  r14, KD_HWRES_TASK(r12)
0000F868  42 06 68 70 18 02 00 00... bne     r13, r14, .hwres_perm
0000F870  52 06 A0 00 00 00 00 00... push    r20
0000F878  52 06 A8 00 00 00 00 00... push    r21
0000F880  52 06 B0 00 00 00 00 00... push    r22
0000F888  52 06 B8 00 00 00 00 00... push    r23
0000F890  50 06 00 00 30 35 00 00... jsr     m162_hwres_current_generation_check
0000F898  53 BE 00 00 00 00 00 00... pop     r23
0000F8A0  53 B6 00 00 00 00 00 00... pop     r22
0000F8A8  53 AE 00 00 00 00 00 00... pop     r21
0000F8B0  53 A6 00 00 00 00 00 00... pop     r20
0000F8B8  41 06 08 00 C8 01 00 00... beq r1, r0, .hwres_perm
0000F8C0  01 0E A0 00 00 00 00 00... move.q  r1, r20
0000F8C8  50 06 00 00 10 28 FF FF... jsr     kern_find_slot_for_public_id
0000F8D0  41 06 10 00 E0 01 00 00... beq r2, r0, .hwres_badarg
0000F8D8  45 06 B0 B8 D8 01 00 00... bgt     r22, r23, .hwres_badarg
0000F8E0  43 06 B0 00 D0 01 00 00... blt r22, r0, .hwres_badarg
0000F8E8  43 06 B8 00 C8 01 00 00... blt r23, r0, .hwres_badarg
0000F8F0  01 7E 68 00 00 00 00 00... move.q  r15, r13
0000F8F8  01 65 00 00 00 D0 08 00... move.l  r12, #KERN_DATA_BASE
0000F900  10 0E 60 00 00 00 00 00... load.q  r1, (r12)
0000F908  01 15 00 00 04 00 00 00... move.l  r2, #QUOTA_KIND_GRANTS
0000F910  01 1D 00 00 01 00 00 00... move.l  r3, #1
0000F918  50 06 00 00 A8 16 00 00... jsr     quota_check_and_charge
0000F920  41 06 08 00 20 00 00 00... beq r1, r0, .hwres_create_charge_ok
0000F928  01 0F 00 00 00 00 00 00... move.q  r1, #0
0000F930  01 17 00 00 0A 00 00 00... move.q  r2, #ERR_QUOTA
0000F938  E8 00 00 00 00 00 00 00... eret
                         .hwres_create_charge_ok:
0000F940  01 2E 78 00 00 00 00 00... move.q  r5, r15
0000F948  01 0E A0 00 00 00 00 00... move.q  r1, r20
0000F950  01 16 A8 00 00 00 00 00... move.q  r2, r21
0000F958  01 1E B0 00 00 00 00 00... move.q  r3, r22
0000F960  01 26 B8 00 00 00 00 00... move.q  r4, r23
0000F968  50 06 00 00 F0 90 FF FF... jsr     kern_grant_create_row
0000F970  42 06 10 00 18 00 00 00... bne r2, r0, .hwres_create_rollback
0000F978  01 0F 00 00 00 00 00 00... move.q  r1, #0
0000F980  E8 00 00 00 00 00 00 00... eret
                         .hwres_create_rollback:
0000F988  52 06 10 00 00 00 00 00... push    r2
0000F990  01 0E 78 00 00 00 00 00... move.q  r1, r15
0000F998  50 06 00 00 40 27 FF FF... jsr     kern_find_slot_for_public_id
0000F9A0  01 15 00 00 04 00 00 00... move.l  r2, #QUOTA_KIND_GRANTS
0000F9A8  01 1D 00 00 01 00 00 00... move.l  r3, #1
0000F9B0  50 06 00 00 C8 16 00 00... jsr     quota_return
0000F9B8  53 16 00 00 00 00 00 00... pop     r2
0000F9C0  01 0F 00 00 00 00 00 00... move.q  r1, #0
0000F9C8  E8 00 00 00 00 00 00 00... eret
                         .hwres_revoke:
0000F9D0  01 0F 00 00 00 00 00 00... move.q  r1, #0
0000F9D8  01 17 00 00 03 00 00 00... move.q  r2, #ERR_BADARG
0000F9E0  E8 00 00 00 00 00 00 00... eret
                         .hwres_task_alive:
0000F9E8  01 A6 08 00 00 00 00 00... move.q  r20, r1
0000F9F0  01 65 00 00 00 D0 08 00... move.l  r12, #KERN_DATA_BASE
0000F9F8  50 06 00 00 B8 26 FF FF... jsr     kern_current_public_task_id
0000FA00  01 6E 08 00 00 00 00 00... move.q  r13, r1
0000FA08  10 75 60 00 B8 C0 00 00... load.l  r14, KD_HWRES_TASK(r12)
0000FA10  42 06 68 70 70 00 00 00... bne     r13, r14, .hwres_perm
0000FA18  52 06 A0 00 00 00 00 00... push    r20
0000FA20  50 06 00 00 A0 33 00 00... jsr     m162_hwres_current_generation_check
0000FA28  53 A6 00 00 00 00 00 00... pop     r20
0000FA30  41 06 08 00 50 00 00 00... beq r1, r0, .hwres_perm
0000FA38  01 0E A0 00 00 00 00 00... move.q  r1, r20
0000FA40  50 06 00 00 98 26 FF FF... jsr     kern_find_slot_for_public_id
0000FA48  41 06 10 00 20 00 00 00... beq r2, r0, .hwres_alive_no
0000FA50  01 0F 00 00 01 00 00 00... move.q  r1, #1
0000FA58  01 17 00 00 00 00 00 00... move.q  r2, #ERR_OK
0000FA60  E8 00 00 00 00 00 00 00... eret
                         .hwres_alive_no:
0000FA68  01 0F 00 00 00 00 00 00... move.q  r1, #0
0000FA70  01 17 00 00 00 00 00 00... move.q  r2, #ERR_OK
0000FA78  E8 00 00 00 00 00 00 00... eret
                         .hwres_perm:
0000FA80  01 0F 00 00 00 00 00 00... move.q  r1, #0
0000FA88  01 17 00 00 05 00 00 00... move.q  r2, #ERR_PERM
0000FA90  E8 00 00 00 00 00 00 00... eret
                         .hwres_exists:
0000FA98  01 0F 00 00 00 00 00 00... move.q  r1, #0
0000FAA0  01 17 00 00 08 00 00 00... move.q  r2, #ERR_EXISTS
0000FAA8  E8 00 00 00 00 00 00 00... eret
                         .hwres_badarg:
0000FAB0  01 0F 00 00 00 00 00 00... move.q  r1, #0
0000FAB8  01 17 00 00 03 00 00 00... move.q  r2, #ERR_BADARG
0000FAC0  E8 00 00 00 00 00 00 00... eret
                         .do_boot_hostfs:
0000FAC8  01 A6 08 00 00 00 00 00... move.q  r20, r1
0000FAD0  01 AE 10 00 00 00 00 00... move.q  r21, r2
0000FAD8  01 B6 18 00 00 00 00 00... move.q  r22, r3
0000FAE0  01 BE 20 00 00 00 00 00... move.q  r23, r4
0000FAE8  01 65 00 00 00 D0 08 00... move.l  r12, #KERN_DATA_BASE
0000FAF0  10 6E 60 00 00 00 00 00... load.q  r13, KD_CURRENT_TASK(r12)
0000FAF8  01 7E 68 00 00 00 00 00... move.q  r15, r13
0000FB00  10 5D 60 00 BC C0 00 00... load.l  r11, KD_DOSLIB_PUBID(r12)
0000FB08  01 75 00 00 FF FF FF FF... move.l  r14, #TASK_PUBID_FREE
0000FB10  41 06 68 00 40 00 00 00... beq r13, r0, .dbhf_bootstrap
0000FB18  41 06 58 70 C8 00 00 00... beq     r11, r14, .dbhf_perm
0000FB20  01 0E 58 00 00 00 00 00... move.q  r1, r11
0000FB28  50 06 00 00 B0 25 FF FF... jsr     kern_find_slot_for_public_id
0000FB30  41 06 10 00 B0 00 00 00... beq r2, r0, .dbhf_perm
0000FB38  42 06 08 68 A8 00 00 00... bne     r1, r13, .dbhf_perm
0000FB40  01 7E 08 00 00 00 00 00... move.q  r15, r1
0000FB48  40 06 00 00 18 00 00 00... bra     .dbhf_allowed
                         .dbhf_bootstrap:
0000FB50  41 06 58 70 10 00 00 00... beq     r11, r14, .dbhf_allowed
0000FB58  40 06 00 00 88 00 00 00... bra     .dbhf_perm
                         .dbhf_allowed:
0000FB60  41 06 A8 00 60 00 00 00... beq r21, r0, .dbhf_badarg
                         .dbhf_forward:
0000FB68  E7 78 00 00 00 00 00 00... mfcr    r15, cr0
0000FB70  04 C7 00 00 E0 23 0F 00... lea r24, BOOT_HOSTFS_BASE(r0)
0000FB78  11 AD C0 00 04 00 00 00... store.l r21, BOOT_HOSTFS_ARG1-BOOT_HOSTFS_BASE(r24)
0000FB80  11 B5 C0 00 08 00 00 00... store.l r22, BOOT_HOSTFS_ARG2-BOOT_HOSTFS_BASE(r24)
0000FB88  11 BD C0 00 0C 00 00 00... store.l r23, BOOT_HOSTFS_ARG3-BOOT_HOSTFS_BASE(r24)
0000FB90  11 7D C0 00 10 00 00 00... store.l r15, BOOT_HOSTFS_ARG4-BOOT_HOSTFS_BASE(r24)
0000FB98  11 A4 C0 00 00 00 00 00... store.l r20, BOOT_HOSTFS_CMD-BOOT_HOSTFS_BASE(r24)
0000FBA0  10 0D C0 00 14 00 00 00... load.l  r1, BOOT_HOSTFS_RES1-BOOT_HOSTFS_BASE(r24)
0000FBA8  10 1D C0 00 18 00 00 00... load.l  r3, BOOT_HOSTFS_RES2-BOOT_HOSTFS_BASE(r24)
0000FBB0  10 15 C0 00 1C 00 00 00... load.l  r2, BOOT_HOSTFS_ERR-BOOT_HOSTFS_BASE(r24)
0000FBB8  E8 00 00 00 00 00 00 00... eret
                         .dbhf_badarg:
0000FBC0  01 0F 00 00 00 00 00 00... move.q  r1, #0
0000FBC8  01 17 00 00 03 00 00 00... move.q  r2, #ERR_BADARG
0000FBD0  01 1F 00 00 00 00 00 00... move.q  r3, #0
0000FBD8  E8 00 00 00 00 00 00 00... eret
                         .dbhf_perm:
0000FBE0  01 0F 00 00 00 00 00 00... move.q  r1, #0
0000FBE8  01 17 00 00 05 00 00 00... move.q  r2, #ERR_PERM
0000FBF0  01 1F 00 00 00 00 00 00... move.q  r3, #0
0000FBF8  E8 00 00 00 00 00 00 00... eret
                         .do_boot_elf_exec:
0000FC00  21 FF F8 00 40 00 00 00... sub     sp, sp, #64
0000FC08  01 C6 08 00 00 00 00 00... move.q  r24, r1
0000FC10  01 CE 10 00 00 00 00 00... move.q  r25, r2
0000FC18  01 D6 18 00 00 00 00 00... move.q  r26, r3
0000FC20  01 DE 20 00 00 00 00 00... move.q  r27, r4
0000FC28  01 F6 28 00 00 00 00 00... move.q  r30, r5
0000FC30  01 65 00 00 00 D0 08 00... move.l  r12, #KERN_DATA_BASE
0000FC38  10 6E 60 00 00 00 00 00... load.q  r13, KD_CURRENT_TASK(r12)
0000FC40  10 5D 60 00 BC C0 00 00... load.l  r11, KD_DOSLIB_PUBID(r12)
0000FC48  01 75 00 00 FF FF FF FF... move.l  r14, #TASK_PUBID_FREE
0000FC50  41 06 58 70 00 04 00 00... beq     r11, r14, .dbefe_perm
0000FC58  01 0E 58 00 00 00 00 00... move.q  r1, r11
0000FC60  50 06 00 00 78 24 FF FF... jsr     kern_find_slot_for_public_id
0000FC68  41 06 10 00 E8 03 00 00... beq r2, r0, .dbefe_perm
0000FC70  42 06 08 68 E0 03 00 00... bne     r1, r13, .dbefe_perm
0000FC78  34 5F 68 00 03 00 00 00... lsl     r11, r13, #3
0000FC80  20 5F 58 00 20 20 00 00... add     r11, r11, #KD_PTBR_BASE
0000FC88  20 5E 58 60 00 00 00 00... add     r11, r11, r12
0000FC90  10 E6 58 00 00 00 00 00... load.q  r28, (r11)
0000FC98  11 E6 F8 00 00 00 00 00... store.q r28, 0(sp)
0000FCA0  11 6F F8 00 08 00 00 00... store.q r13, 8(sp)
0000FCA8  11 D7 F8 00 30 00 00 00... store.q r26, 48(sp)
0000FCB0  11 DF F8 00 38 00 00 00... store.q r27, 56(sp)
0000FCB8  41 06 C0 00 78 03 00 00... beq r24, r0, .dbefe_badarg
0000FCC0  41 06 C8 00 70 03 00 00... beq r25, r0, .dbefe_badarg
0000FCC8  01 0E C0 00 00 00 00 00... move.q  r1, r24
0000FCD0  01 16 C8 00 00 00 00 00... move.q  r2, r25
0000FCD8  01 1E E0 00 00 00 00 00... move.q  r3, r28
0000FCE0  50 06 00 00 C0 0C 00 00... jsr     validate_user_read_range
0000FCE8  42 06 08 00 48 03 00 00... bne r1, r0, .dbefe_badarg
0000FCF0  01 5D 00 00 00 01 00 00... move.l  r11, #DATA_ARGS_MAX
0000FCF8  45 06 D8 58 38 03 00 00... bgt     r27, r11, .dbefe_badarg
0000FD00  41 06 D8 00 48 00 00 00... beq r27, r0, .dbefe_args_valid
0000FD08  41 06 D0 00 40 00 00 00... beq r26, r0, .dbefe_args_valid
0000FD10  20 5E D0 D8 00 00 00 00... add     r11, r26, r27
0000FD18  43 06 58 D0 18 03 00 00... blt     r11, r26, .dbefe_badarg
0000FD20  01 0E D0 00 00 00 00 00... move.q  r1, r26
0000FD28  01 16 D8 00 00 00 00 00... move.q  r2, r27
0000FD30  01 1E E0 00 00 00 00 00... move.q  r3, r28
0000FD38  50 06 00 00 68 0C 00 00... jsr     validate_user_read_range
0000FD40  42 06 08 00 F0 02 00 00... bne r1, r0, .dbefe_badarg
                         .dbefe_args_valid:
0000FD48  01 5D 00 00 00 00 00 02... move.l  r11, #0x2000000
0000FD50  45 06 C8 58 E0 02 00 00... bgt     r25, r11, .dbefe_badarg
0000FD58  20 5F C8 00 FF 0F 00 00... add     r11, r25, #0xFFF
0000FD60  35 A7 58 00 0C 00 00 00... lsr     r20, r11, #12
0000FD68  41 06 A0 00 C8 02 00 00... beq r20, r0, .dbefe_badarg
0000FD70  11 A7 F8 00 10 00 00 00... store.q r20, 16(sp)
0000FD78  E7 98 00 00 00 00 00 00... mfcr    r19, cr0
0000FD80  01 5D 00 00 00 D0 07 00... move.l  r11, #KERN_PAGE_TABLE
0000FD88  E6 00 58 00 00 00 00 00... mtcr    cr0, r11
0000FD90  E9 00 00 00 00 00 00 00... tlbflush
0000FD98  01 0E A0 00 00 00 00 00... move.q  r1, r20
0000FDA0  50 06 00 00 48 88 FF FF... jsr     alloc_pages
0000FDA8  42 06 10 00 C8 02 00 00... bne r2, r0, .dbefe_nomem_restore
0000FDB0  11 0F F8 00 18 00 00 00... store.q r1, 24(sp)
0000FDB8  10 0F F8 00 08 00 00 00... load.q  r1, 8(sp)
0000FDC0  01 16 A0 00 00 00 00 00... move.q  r2, r20
0000FDC8  50 06 00 00 B8 A9 FF FF... jsr     find_free_va
0000FDD0  42 06 10 00 D8 02 00 00... bne r2, r0, .dbefe_free_pages_restore
0000FDD8  11 0F F8 00 20 00 00 00... store.q r1, 32(sp)
0000FDE0  10 0E F8 00 00 00 00 00... load.q  r1, 0(sp)
0000FDE8  10 17 F8 00 20 00 00 00... load.q  r2, 32(sp)
0000FDF0  10 1F F8 00 18 00 00 00... load.q  r3, 24(sp)
0000FDF8  10 27 F8 00 10 00 00 00... load.q  r4, 16(sp)
0000FE00  01 2D 00 00 17 00 00 00... move.l  r5, #0x17
0000FE08  50 06 00 00 C0 A8 FF FF... jsr     map_pages
0000FE10  E6 00 98 00 00 00 00 00... mtcr    cr0, r19
0000FE18  E9 00 00 00 00 00 00 00... tlbflush
0000FE20  41 06 C8 00 40 00 00 00... beq r25, r0, .dbefe_copy_done
0000FE28  10 B7 F8 00 20 00 00 00... load.q  r22, 32(sp)
0000FE30  01 0E B0 00 00 00 00 00... move.q  r1, r22
0000FE38  01 16 C0 00 00 00 00 00... move.q  r2, r24
0000FE40  01 1E C8 00 00 00 00 00... move.q  r3, r25
0000FE48  E7 20 00 00 00 00 00 00... mfcr    r4, cr0
0000FE50  50 06 00 00 50 0C 00 00... jsr     copy_from_user
0000FE58  42 06 08 00 A8 02 00 00... bne r1, r0, .dbefe_copy_fail_restore
                         .dbefe_copy_done:
0000FE60  01 5D 00 00 00 D0 07 00... move.l  r11, #KERN_PAGE_TABLE
0000FE68  E6 00 58 00 00 00 00 00... mtcr    cr0, r11
0000FE70  E9 00 00 00 00 00 00 00... tlbflush
0000FE78  10 0F F8 00 18 00 00 00... load.q  r1, 24(sp)
0000FE80  34 0F 08 00 0C 00 00 00... lsl     r1, r1, #12
0000FE88  01 16 C8 00 00 00 00 00... move.q  r2, r25
0000FE90  01 1D 00 00 02 00 00 00... move.l  r3, #TASK_STARTUP_FLAG_EXEC
0000FE98  30 5F F0 00 01 00 00 00... and     r11, r30, #BOOT_ELF_EXEC_FLAG_TRUSTED_INTERNAL
0000FEA0  41 06 58 00 10 00 00 00... beq r11, r0, .dbefe_launch_flags_ready
0000FEA8  31 1F 18 00 08 00 00 00... or      r3, r3, #TASK_STARTUP_FLAG_TRUSTED_INTERNAL
                         .dbefe_launch_flags_ready:
0000FEB0  50 06 00 00 10 60 FF FF... jsr     boot_load_elf_image
0000FEB8  01 B6 08 00 00 00 00 00... move.q  r22, r1
0000FEC0  01 BE 18 00 00 00 00 00... move.q  r23, r3
0000FEC8  01 EE 10 00 00 00 00 00... move.q  r29, r2
0000FED0  10 0E F8 00 00 00 00 00... load.q  r1, 0(sp)
0000FED8  10 17 F8 00 20 00 00 00... load.q  r2, 32(sp)
0000FEE0  10 1F F8 00 10 00 00 00... load.q  r3, 16(sp)
0000FEE8  50 06 00 00 48 A8 FF FF... jsr     unmap_pages
0000FEF0  10 0F F8 00 18 00 00 00... load.q  r1, 24(sp)
0000FEF8  10 17 F8 00 10 00 00 00... load.q  r2, 16(sp)
0000FF00  50 06 00 00 40 88 FF FF... jsr     free_pages
0000FF08  10 D7 F8 00 30 00 00 00... load.q  r26, 48(sp)
0000FF10  10 DF F8 00 38 00 00 00... load.q  r27, 56(sp)
0000FF18  10 5E F8 00 00 00 00 00... load.q  r11, 0(sp)
0000FF20  E6 00 58 00 00 00 00 00... mtcr    cr0, r11
0000FF28  E9 00 00 00 00 00 00 00... tlbflush
0000FF30  42 06 E8 00 E0 00 00 00... bne r29, r0, .dbefe_fail
0000FF38  41 06 D8 00 B8 00 00 00... beq r27, r0, .dbefe_ok
0000FF40  41 06 D0 00 B0 00 00 00... beq r26, r0, .dbefe_ok
0000FF48  01 0E B8 00 00 00 00 00... move.q  r1, r23
0000FF50  50 06 00 00 00 21 FF FF... jsr     kern_task_layout_addr
0000FF58  10 7F 08 00 10 00 00 00... load.q  r15, KD_TASK_DATA_BASE(r1)
0000FF60  20 7F 78 00 00 0C 00 00... add     r15, r15, #DATA_ARGS_OFFSET
0000FF68  10 8F 08 00 30 00 00 00... load.q  r17, KD_TASK_LAYOUT_PT_BASE(r1)
0000FF70  35 87 78 00 0C 00 00 00... lsr     r16, r15, #12
0000FF78  34 87 80 00 03 00 00 00... lsl     r16, r16, #3
0000FF80  20 86 80 88 00 00 00 00... add     r16, r16, r17
0000FF88  10 96 80 00 00 00 00 00... load.q  r18, (r16)
0000FF90  35 97 90 00 0D 00 00 00... lsr     r18, r18, #13
0000FF98  34 97 90 00 0C 00 00 00... lsl     r18, r18, #12
0000FFA0  30 87 78 00 FF 0F 00 00... and     r16, r15, #0xFFF
0000FFA8  20 96 90 80 00 00 00 00... add     r18, r18, r16
0000FFB0  01 0E 90 00 00 00 00 00... move.q  r1, r18
0000FFB8  01 16 D0 00 00 00 00 00... move.q  r2, r26
0000FFC0  01 1E D8 00 00 00 00 00... move.q  r3, r27
0000FFC8  E7 20 00 00 00 00 00 00... mfcr    r4, cr0
0000FFD0  50 06 00 00 D0 0A 00 00... jsr     copy_from_user
0000FFD8  42 06 08 00 80 01 00 00... bne r1, r0, .dbefe_args_fail_kill
0000FFE0  20 2E 90 D8 00 00 00 00... add     r5, r18, r27
0000FFE8  11 00 28 00 00 00 00 00... store.b r0, (r5)
                         .dbefe_ok:
0000FFF0  01 0E B0 00 00 00 00 00... move.q  r1, r22
0000FFF8  01 17 00 00 00 00 00 00... move.q  r2, #ERR_OK
00010000  20 FF F8 00 40 00 00 00... add     sp, sp, #64
00010008  E8 00 00 00 00 00 00 00... eret
                         .dbefe_fail:
00010010  01 0F 00 00 00 00 00 00... move.q  r1, #0
00010018  01 16 E8 00 00 00 00 00... move.q  r2, r29
00010020  20 FF F8 00 40 00 00 00... add     sp, sp, #64
00010028  E8 00 00 00 00 00 00 00... eret
                         .dbefe_badarg:
00010030  01 0F 00 00 00 00 00 00... move.q  r1, #0
00010038  01 17 00 00 03 00 00 00... move.q  r2, #ERR_BADARG
00010040  20 FF F8 00 40 00 00 00... add     sp, sp, #64
00010048  E8 00 00 00 00 00 00 00... eret
                         .dbefe_perm:
00010050  01 0F 00 00 00 00 00 00... move.q  r1, #0
00010058  01 17 00 00 05 00 00 00... move.q  r2, #ERR_PERM
00010060  20 FF F8 00 40 00 00 00... add     sp, sp, #64
00010068  E8 00 00 00 00 00 00 00... eret
                         .dbefe_nomem_restore:
00010070  10 9E F8 00 00 00 00 00... load.q  r19, 0(sp)
00010078  E6 00 98 00 00 00 00 00... mtcr    cr0, r19
00010080  E9 00 00 00 00 00 00 00... tlbflush
00010088  01 0F 00 00 00 00 00 00... move.q  r1, #0
00010090  01 17 00 00 01 00 00 00... move.q  r2, #ERR_NOMEM
00010098  20 FF F8 00 40 00 00 00... add     sp, sp, #64
000100A0  E8 00 00 00 00 00 00 00... eret
                         .dbefe_free_pages_restore:
000100A8  01 EE 10 00 00 00 00 00... move.q  r29, r2
000100B0  10 0F F8 00 18 00 00 00... load.q  r1, 24(sp)
000100B8  10 17 F8 00 10 00 00 00... load.q  r2, 16(sp)
000100C0  50 06 00 00 80 86 FF FF... jsr     free_pages
000100C8  10 9E F8 00 00 00 00 00... load.q  r19, 0(sp)
000100D0  E6 00 98 00 00 00 00 00... mtcr    cr0, r19
000100D8  E9 00 00 00 00 00 00 00... tlbflush
000100E0  01 0F 00 00 00 00 00 00... move.q  r1, #0
000100E8  01 16 E8 00 00 00 00 00... move.q  r2, r29
000100F0  20 FF F8 00 40 00 00 00... add     sp, sp, #64
000100F8  E8 00 00 00 00 00 00 00... eret
                         .dbefe_copy_fail_restore:
00010100  10 0E F8 00 00 00 00 00... load.q  r1, 0(sp)
00010108  10 17 F8 00 20 00 00 00... load.q  r2, 32(sp)
00010110  10 1F F8 00 10 00 00 00... load.q  r3, 16(sp)
00010118  50 06 00 00 18 A6 FF FF... jsr     unmap_pages
00010120  10 0F F8 00 18 00 00 00... load.q  r1, 24(sp)
00010128  10 17 F8 00 10 00 00 00... load.q  r2, 16(sp)
00010130  50 06 00 00 10 86 FF FF... jsr     free_pages
00010138  01 0F 00 00 00 00 00 00... move.q  r1, #0
00010140  01 17 00 00 03 00 00 00... move.q  r2, #ERR_BADARG
00010148  20 FF F8 00 40 00 00 00... add     sp, sp, #64
00010150  E8 00 00 00 00 00 00 00... eret
                         .dbefe_args_fail_kill:
00010158  01 65 00 00 00 D0 08 00... move.l  r12, #KERN_DATA_BASE
00010160  01 6E B8 00 00 00 00 00... move.q  r13, r23
00010168  01 5D 00 00 00 D0 07 00... move.l  r11, #KERN_PAGE_TABLE
00010170  E6 00 58 00 00 00 00 00... mtcr    cr0, r11
00010178  E9 00 00 00 00 00 00 00... tlbflush
00010180  01 75 00 00 01 00 00 00... move.l  r14, #TASK_EXIT_REASON_NORMAL
00010188  50 06 00 00 58 35 00 00... jsr     kill_task_cleanup
00010190  10 5E F8 00 00 00 00 00... load.q  r11, 0(sp)
00010198  E6 00 58 00 00 00 00 00... mtcr    cr0, r11
000101A0  E9 00 00 00 00 00 00 00... tlbflush
000101A8  01 0F 00 00 00 00 00 00... move.q  r1, #0
000101B0  01 17 00 00 03 00 00 00... move.q  r2, #ERR_BADARG
000101B8  20 FF F8 00 40 00 00 00... add     sp, sp, #64
000101C0  E8 00 00 00 00 00 00 00... eret
                         .do_boot_manifest_launch:
000101C8  01 A6 08 00 00 00 00 00... move.q  r20, r1
000101D0  21 FF F8 00 20 00 00 00... sub     sp, sp, #32
000101D8  11 16 F8 00 00 00 00 00... store.q r2, (sp)
000101E0  11 1F F8 00 08 00 00 00... store.q r3, 8(sp)
000101E8  01 D6 10 00 00 00 00 00... move.q  r26, r2
000101F0  01 DE 18 00 00 00 00 00... move.q  r27, r3
000101F8  01 5D 00 00 00 01 00 00... move.l  r11, #DATA_ARGS_MAX
00010200  45 06 D8 58 20 03 00 00... bgt     r27, r11, .dbml_badarg_noswitch
00010208  41 06 D8 00 50 00 00 00... beq r27, r0, .dbml_args_valid
00010210  41 06 D0 00 48 00 00 00... beq r26, r0, .dbml_args_valid
00010218  20 5E D0 D8 00 00 00 00... add     r11, r26, r27
00010220  43 06 58 D0 00 03 00 00... blt     r11, r26, .dbml_badarg_noswitch
00010228  E7 E0 00 00 00 00 00 00... mfcr    r28, cr0
00010230  01 0E D0 00 00 00 00 00... move.q  r1, r26
00010238  01 16 D8 00 00 00 00 00... move.q  r2, r27
00010240  01 1E E0 00 00 00 00 00... move.q  r3, r28
00010248  50 06 00 00 58 07 00 00... jsr     validate_user_read_range
00010250  42 06 08 00 D0 02 00 00... bne r1, r0, .dbml_badarg_noswitch
                         .dbml_args_valid:
00010258  50 06 00 00 58 1E FF FF... jsr     kern_current_public_task_id
00010260  01 65 00 00 00 D0 08 00... move.l  r12, #KERN_DATA_BASE
00010268  10 5D 60 00 BC C0 00 00... load.l  r11, KD_DOSLIB_PUBID(r12)
00010270  42 06 08 58 90 02 00 00... bne     r1, r11, .dbml_perm
00010278  01 0E A0 00 00 00 00 00... move.q  r1, r20
00010280  E7 98 00 00 00 00 00 00... mfcr    r19, cr0
00010288  11 9F F8 00 10 00 00 00... store.q r19, 16(sp)
00010290  01 5D 00 00 00 D0 07 00... move.l  r11, #KERN_PAGE_TABLE
00010298  E6 00 58 00 00 00 00 00... mtcr    cr0, r11
000102A0  E9 00 00 00 00 00 00 00... tlbflush
000102A8  01 A6 08 00 00 00 00 00... move.q  r20, r1
000102B0  01 AD 00 00 00 00 00 00... move.l  r21, #0
                         .dbml_find:
000102B8  01 B5 00 00 07 00 00 00... move.l  r22, #KD_BOOT_MANIFEST_COUNT
000102C0  44 06 A8 B0 10 01 00 00... bge     r21, r22, .dbml_badarg
000102C8  01 BD 00 00 00 D0 08 00... move.l  r23, #KERN_DATA_BASE
000102D0  20 BF B8 00 50 0B 01 00... add     r23, r23, #KD_BOOT_MANIFEST_BASE
000102D8  01 C5 00 00 28 00 00 00... move.l  r24, #KD_BOOT_MANIFEST_STRIDE
000102E0  22 C6 A8 C0 00 00 00 00... mulu    r24, r21, r24
000102E8  20 BE B8 C0 00 00 00 00... add     r23, r23, r24
000102F0  10 C4 B8 00 00 00 00 00... load.l  r24, KD_BOOT_MANIFEST_ID(r23)
000102F8  42 06 C0 A0 C8 00 00 00... bne     r24, r20, .dbml_next
00010300  10 3F B8 00 08 00 00 00... load.q  r7, KD_BOOT_MANIFEST_PTR(r23)
00010308  10 47 B8 00 10 00 00 00... load.q  r8, KD_BOOT_MANIFEST_SIZE(r23)
00010310  41 06 38 00 58 00 00 00... beq r7, r0, .dbml_hostbacked
00010318  41 06 40 00 B8 00 00 00... beq r8, r0, .dbml_badarg
00010320  01 0E 38 00 00 00 00 00... move.q  r1, r7
00010328  01 16 40 00 00 00 00 00... move.q  r2, r8
00010330  01 1D 00 00 04 00 00 00... move.l  r3, #TASK_STARTUP_FLAG_BOOT
00010338  10 5D B8 00 04 00 00 00... load.l  r11, KD_BOOT_MANIFEST_FLAGS(r23)
00010340  30 5F 58 00 01 00 00 00... and     r11, r11, #BOOT_MANIFEST_FLAG_TRUSTED_INTERNAL
00010348  41 06 58 00 10 00 00 00... beq r11, r0, .dbml_flags_ready
00010350  31 1F 18 00 08 00 00 00... or      r3, r3, #TASK_STARTUP_FLAG_TRUSTED_INTERNAL
                         .dbml_flags_ready:
00010358  50 06 00 00 68 5B FF FF... jsr     boot_load_elf_image
00010360  40 06 00 00 80 00 00 00... bra     .dbml_done
                         .dbml_hostbacked:
00010368  01 5D 00 00 0D 00 00 00... move.l  r11, #BOOT_MANIFEST_ID_HWRES
00010370  41 06 A0 58 20 00 00 00... beq     r20, r11, .dbml_host_hwres
00010378  01 5D 00 00 0E 00 00 00... move.l  r11, #BOOT_MANIFEST_ID_INPUT
00010380  41 06 A0 58 28 00 00 00... beq     r20, r11, .dbml_host_input
00010388  40 06 00 00 48 00 00 00... bra     .dbml_badarg
                         .dbml_host_hwres:
00010390  01 0D 00 00 0C 00 00 00... move.l  r1, #(TASK_STARTUP_FLAG_BOOT | TASK_STARTUP_FLAG_TRUSTED_INTERNAL)
00010398  50 06 00 00 08 4E FF FF... jsr     kern_boot_load_host_hwres
000103A0  40 06 00 00 40 00 00 00... bra     .dbml_done
                         .dbml_host_input:
000103A8  01 0D 00 00 0C 00 00 00... move.l  r1, #(TASK_STARTUP_FLAG_BOOT | TASK_STARTUP_FLAG_TRUSTED_INTERNAL)
000103B0  50 06 00 00 20 4E FF FF... jsr     kern_boot_load_host_input
000103B8  40 06 00 00 28 00 00 00... bra     .dbml_done
                         .dbml_next:
000103C0  20 AF A8 00 01 00 00 00... add     r21, r21, #1
000103C8  40 06 00 00 F0 FE FF FF... bra     .dbml_find
                         .dbml_badarg:
000103D0  01 0F 00 00 00 00 00 00... move.q  r1, #0
000103D8  01 17 00 00 03 00 00 00... move.q  r2, #ERR_BADARG
                         .dbml_done:
000103E0  01 B6 08 00 00 00 00 00... move.q  r22, r1
000103E8  01 C6 10 00 00 00 00 00... move.q  r24, r2
000103F0  01 BE 18 00 00 00 00 00... move.q  r23, r3
000103F8  10 D6 F8 00 00 00 00 00... load.q  r26, (sp)
00010400  10 DF F8 00 08 00 00 00... load.q  r27, 8(sp)
00010408  10 9F F8 00 10 00 00 00... load.q  r19, 16(sp)
00010410  20 FF F8 00 20 00 00 00... add     sp, sp, #32
00010418  E6 00 98 00 00 00 00 00... mtcr    cr0, r19
00010420  E9 00 00 00 00 00 00 00... tlbflush
00010428  42 06 C0 00 C0 00 00 00... bne r24, r0, .dbml_ret
00010430  41 06 D8 00 B8 00 00 00... beq r27, r0, .dbml_ret
00010438  41 06 D0 00 B0 00 00 00... beq r26, r0, .dbml_ret
00010440  01 0E B8 00 00 00 00 00... move.q  r1, r23
00010448  50 06 00 00 08 1C FF FF... jsr     kern_task_layout_addr
00010450  10 7F 08 00 10 00 00 00... load.q  r15, KD_TASK_DATA_BASE(r1)
00010458  20 7F 78 00 00 0C 00 00... add     r15, r15, #DATA_ARGS_OFFSET
00010460  10 8F 08 00 30 00 00 00... load.q  r17, KD_TASK_LAYOUT_PT_BASE(r1)
00010468  35 87 78 00 0C 00 00 00... lsr     r16, r15, #12
00010470  34 87 80 00 03 00 00 00... lsl     r16, r16, #3
00010478  20 86 80 88 00 00 00 00... add     r16, r16, r17
00010480  10 96 80 00 00 00 00 00... load.q  r18, (r16)
00010488  35 97 90 00 0D 00 00 00... lsr     r18, r18, #13
00010490  34 97 90 00 0C 00 00 00... lsl     r18, r18, #12
00010498  30 87 78 00 FF 0F 00 00... and     r16, r15, #0xFFF
000104A0  20 96 90 80 00 00 00 00... add     r18, r18, r16
000104A8  01 0E 90 00 00 00 00 00... move.q  r1, r18
000104B0  01 16 D0 00 00 00 00 00... move.q  r2, r26
000104B8  01 1E D8 00 00 00 00 00... move.q  r3, r27
000104C0  E7 20 00 00 00 00 00 00... mfcr    r4, cr0
000104C8  50 06 00 00 D8 05 00 00... jsr     copy_from_user
000104D0  42 06 08 00 70 00 00 00... bne r1, r0, .dbml_args_fail_kill
000104D8  20 2E 90 D8 00 00 00 00... add     r5, r18, r27
000104E0  11 00 28 00 00 00 00 00... store.b r0, (r5)
                         .dbml_ret:
000104E8  01 0E B0 00 00 00 00 00... move.q  r1, r22
000104F0  01 16 C0 00 00 00 00 00... move.q  r2, r24
000104F8  E8 00 00 00 00 00 00 00... eret
                         .dbml_perm:
00010500  01 0F 00 00 00 00 00 00... move.q  r1, #0
00010508  01 17 00 00 05 00 00 00... move.q  r2, #ERR_PERM
00010510  20 FF F8 00 20 00 00 00... add     sp, sp, #32
00010518  E8 00 00 00 00 00 00 00... eret
                         .dbml_badarg_noswitch:
00010520  01 0F 00 00 00 00 00 00... move.q  r1, #0
00010528  01 17 00 00 03 00 00 00... move.q  r2, #ERR_BADARG
00010530  20 FF F8 00 20 00 00 00... add     sp, sp, #32
00010538  E8 00 00 00 00 00 00 00... eret
                         .dbml_args_fail_kill:
00010540  E7 98 00 00 00 00 00 00... mfcr    r19, cr0
00010548  52 06 98 00 00 00 00 00... push    r19
00010550  01 5D 00 00 00 D0 07 00... move.l  r11, #KERN_PAGE_TABLE
00010558  E6 00 58 00 00 00 00 00... mtcr    cr0, r11
00010560  E9 00 00 00 00 00 00 00... tlbflush
00010568  01 65 00 00 00 D0 08 00... move.l  r12, #KERN_DATA_BASE
00010570  01 6E B8 00 00 00 00 00... move.q  r13, r23
00010578  01 75 00 00 01 00 00 00... move.l  r14, #TASK_EXIT_REASON_NORMAL
00010580  50 06 00 00 60 31 00 00... jsr     kill_task_cleanup
00010588  53 9E 00 00 00 00 00 00... pop     r19
00010590  E6 00 98 00 00 00 00 00... mtcr    cr0, r19
00010598  E9 00 00 00 00 00 00 00... tlbflush
000105A0  01 0F 00 00 00 00 00 00... move.q  r1, #0
000105A8  01 17 00 00 03 00 00 00... move.q  r2, #ERR_BADARG
000105B0  E8 00 00 00 00 00 00 00... eret
                         .do_exec_program:
000105B8  01 4D 00 00 61 00 00 00... move.l  r9, #0x61
000105C0  01 5D 00 00 00 00 60 00... move.l  r11, #USER_CODE_BASE
000105C8  43 06 08 58 30 03 00 00... blt     r1, r11, .ep_badarg_norestore
000105D0  01 C6 08 00 00 00 00 00... move.q  r24, r1
000105D8  01 CE 10 00 00 00 00 00... move.q  r25, r2
000105E0  01 D6 18 00 00 00 00 00... move.q  r26, r3
000105E8  01 DE 20 00 00 00 00 00... move.q  r27, r4
000105F0  01 5D 00 00 00 01 00 00... move.l  r11, #DATA_ARGS_MAX
000105F8  45 06 D8 58 00 03 00 00... bgt     r27, r11, .ep_badarg_norestore
00010600  01 4D 00 00 62 00 00 00... move.l  r9, #0x62
00010608  01 65 00 00 00 D0 08 00... move.l  r12, #KERN_DATA_BASE
00010610  10 E6 60 00 00 00 00 00... load.q  r28, KD_CURRENT_TASK(r12)
00010618  34 5F E0 00 03 00 00 00... lsl     r11, r28, #3
00010620  20 5F 58 00 20 20 00 00... add     r11, r11, #KD_PTBR_BASE
00010628  20 5E 58 60 00 00 00 00... add     r11, r11, r12
00010630  10 E6 58 00 00 00 00 00... load.q  r28, (r11)
00010638  21 FF F8 00 10 00 00 00... sub     sp, sp, #16
00010640  01 0E F8 00 00 00 00 00... move.q  r1, sp
00010648  01 16 C0 00 00 00 00 00... move.q  r2, r24
00010650  01 1D 00 00 08 00 00 00... move.l  r3, #8
00010658  01 26 E0 00 00 00 00 00... move.q  r4, r28
00010660  50 06 00 00 40 04 00 00... jsr     copy_from_user
00010668  42 06 08 00 60 00 00 00... bne r1, r0, .ep_hdr_unstack_badarg
00010670  01 4D 00 00 63 00 00 00... move.l  r9, #0x63
00010678  10 5C F8 00 00 00 00 00... load.l  r11, (sp)
00010680  01 65 00 00 4C 44 45 53... move.l  r12, #M14_LDESC_MAGIC
00010688  42 06 58 60 40 00 00 00... bne     r11, r12, .ep_hdr_unstack_badarg
00010690  01 4D 00 00 64 00 00 00... move.l  r9, #0x64
00010698  10 5D F8 00 04 00 00 00... load.l  r11, 4(sp)
000106A0  01 65 00 00 01 00 00 00... move.l  r12, #M14_LDESC_VERSION
000106A8  42 06 58 60 20 00 00 00... bne     r11, r12, .ep_hdr_unstack_badarg
000106B0  01 4D 00 00 65 00 00 00... move.l  r9, #0x65
000106B8  20 FF F8 00 10 00 00 00... add     sp, sp, #16
000106C0  40 06 00 00 18 00 00 00... bra     .ep_desc_path
                         .ep_hdr_unstack_badarg:
000106C8  20 FF F8 00 10 00 00 00... add     sp, sp, #16
000106D0  40 06 00 00 28 02 00 00... bra     .ep_badarg_norestore
                         .ep_desc_path:
000106D8  52 06 E0 00 00 00 00 00... push    r28
000106E0  52 06 D0 00 00 00 00 00... push    r26
000106E8  52 06 D8 00 00 00 00 00... push    r27
000106F0  01 0E C0 00 00 00 00 00... move.q  r1, r24
000106F8  01 16 C8 00 00 00 00 00... move.q  r2, r25
00010700  01 1E E0 00 00 00 00 00... move.q  r3, r28
00010708  01 25 00 00 02 00 00 00... move.l  r4, #TASK_STARTUP_FLAG_EXEC
00010710  50 06 00 00 50 6F FF FF... jsr     exec_desc_launch_task
00010718  53 DE 00 00 00 00 00 00... pop     r27
00010720  53 D6 00 00 00 00 00 00... pop     r26
00010728  53 E6 00 00 00 00 00 00... pop     r28
00010730  42 06 18 00 A0 01 00 00... bne r3, r0, .ep_desc_fail
00010738  01 B6 08 00 00 00 00 00... move.q  r22, r1
00010740  01 BE 10 00 00 00 00 00... move.q  r23, r2
00010748  41 06 D8 00 48 00 00 00... beq r27, r0, .ep_desc_args_valid
00010750  41 06 D0 00 40 00 00 00... beq r26, r0, .ep_desc_args_valid
00010758  20 5E D0 D8 00 00 00 00... add     r11, r26, r27
00010760  43 06 58 D0 08 01 00 00... blt     r11, r26, .ep_desc_cleanup_badarg
00010768  01 0E D0 00 00 00 00 00... move.q  r1, r26
00010770  01 16 D8 00 00 00 00 00... move.q  r2, r27
00010778  01 1E E0 00 00 00 00 00... move.q  r3, r28
00010780  50 06 00 00 20 02 00 00... jsr     validate_user_read_range
00010788  42 06 08 00 E0 00 00 00... bne r1, r0, .ep_desc_cleanup_badarg
                         .ep_desc_args_valid:
00010790  41 06 D8 00 C0 00 00 00... beq r27, r0, .ep_desc_no_args
00010798  41 06 D0 00 B8 00 00 00... beq r26, r0, .ep_desc_no_args
000107A0  01 0E B8 00 00 00 00 00... move.q  r1, r23
000107A8  50 06 00 00 A8 18 FF FF... jsr     kern_task_layout_addr
000107B0  10 7F 08 00 10 00 00 00... load.q  r15, KD_TASK_DATA_BASE(r1)
000107B8  20 7F 78 00 00 0C 00 00... add     r15, r15, #DATA_ARGS_OFFSET
000107C0  10 8F 08 00 30 00 00 00... load.q  r17, KD_TASK_LAYOUT_PT_BASE(r1)
000107C8  35 87 78 00 0C 00 00 00... lsr     r16, r15, #12
000107D0  34 87 80 00 03 00 00 00... lsl     r16, r16, #3
000107D8  20 86 80 88 00 00 00 00... add     r16, r16, r17
000107E0  10 96 80 00 00 00 00 00... load.q  r18, (r16)
000107E8  35 97 90 00 0D 00 00 00... lsr     r18, r18, #13
000107F0  34 97 90 00 0C 00 00 00... lsl     r18, r18, #12
000107F8  30 87 78 00 FF 0F 00 00... and     r16, r15, #0xFFF
00010800  20 96 90 80 00 00 00 00... add     r18, r18, r16
00010808  01 0E 90 00 00 00 00 00... move.q  r1, r18
00010810  01 16 D0 00 00 00 00 00... move.q  r2, r26
00010818  01 1E D8 00 00 00 00 00... move.q  r3, r27
00010820  01 26 E0 00 00 00 00 00... move.q  r4, r28
00010828  50 06 00 00 78 02 00 00... jsr     copy_from_user
00010830  42 06 08 00 38 00 00 00... bne r1, r0, .ep_desc_cleanup_badarg
00010838  20 2E 90 D8 00 00 00 00... add     r5, r18, r27
00010840  11 00 28 00 00 00 00 00... store.b r0, (r5)
00010848  40 06 00 00 08 00 00 00... bra     .ep_desc_no_args
                         .ep_desc_no_args:
00010850  01 0E B0 00 00 00 00 00... move.q  r1, r22
00010858  01 17 00 00 00 00 00 00... move.q  r2, #ERR_OK
00010860  E8 00 00 00 00 00 00 00... eret
                         .ep_desc_cleanup_badarg:
00010868  01 0E B0 00 00 00 00 00... move.q  r1, r22
00010870  50 06 00 00 68 18 FF FF... jsr     kern_find_slot_for_public_id
00010878  41 06 10 00 80 00 00 00... beq r2, r0, .ep_badarg_norestore
00010880  E7 98 00 00 00 00 00 00... mfcr    r19, cr0
00010888  01 5D 00 00 00 D0 07 00... move.l  r11, #KERN_PAGE_TABLE
00010890  E6 00 58 00 00 00 00 00... mtcr    cr0, r11
00010898  E9 00 00 00 00 00 00 00... tlbflush
000108A0  01 6E 08 00 00 00 00 00... move.q  r13, r1
000108A8  01 75 00 00 03 00 00 00... move.l  r14, #TASK_EXIT_REASON_INTERNAL
000108B0  50 06 00 00 30 2E 00 00... jsr     kill_task_cleanup
000108B8  E6 00 98 00 00 00 00 00... mtcr    cr0, r19
000108C0  E9 00 00 00 00 00 00 00... tlbflush
000108C8  40 06 00 00 30 00 00 00... bra     .ep_badarg_norestore
                         .ep_desc_fail:
000108D0  01 0F 00 00 00 00 00 00... move.q  r1, #0
000108D8  01 16 18 00 00 00 00 00... move.q  r2, r3
000108E0  E8 00 00 00 00 00 00 00... eret
                         .ep_new_fail:
000108E8  01 0F 00 00 00 00 00 00... move.q  r1, #0
000108F0  E8 00 00 00 00 00 00 00... eret
                         .ep_badarg_norestore:
000108F8  01 0F 00 00 00 00 00 00... move.q  r1, #0
00010900  01 17 00 00 03 00 00 00... move.q  r2, #ERR_BADARG
00010908  E8 00 00 00 00 00 00 00... eret
                         validate_user_cstring:
00010910  01 76 08 00 00 00 00 00... move.q  r14, r1
00010918  01 7E 10 00 00 00 00 00... move.q  r15, r2
00010920  01 86 18 00 00 00 00 00... move.q  r16, r3
                         .vucs_loop:
00010928  41 06 78 00 68 00 00 00... beq r15, r0, .vucs_fail
00010930  01 0E 70 00 00 00 00 00... move.q  r1, r14
00010938  01 15 00 00 01 00 00 00... move.l  r2, #1
00010940  01 1E 80 00 00 00 00 00... move.q  r3, r16
00010948  50 06 00 00 58 00 00 00... jsr     validate_user_read_range
00010950  42 06 08 00 40 00 00 00... bne r1, r0, .vucs_fail
00010958  10 88 70 00 00 00 00 00... load.b  r17, (r14)
00010960  41 06 88 00 20 00 00 00... beq r17, r0, .vucs_ok
00010968  20 77 70 00 01 00 00 00... add     r14, r14, #1
00010970  21 7F 78 00 01 00 00 00... sub     r15, r15, #1
00010978  40 06 00 00 B0 FF FF FF... bra     .vucs_loop
                         .vucs_ok:
00010980  01 0F 00 00 00 00 00 00... move.q  r1, #0
00010988  51 00 00 00 00 00 00 00... rts
                         .vucs_fail:
00010990  01 0F 00 00 01 00 00 00... move.q  r1, #1
00010998  51 00 00 00 00 00 00 00... rts
                         validate_user_read_range:
000109A0  01 25 00 00 13 00 00 00... move.l  r4, #(PTE_P | PTE_R | PTE_U)
000109A8  40 06 00 00 28 00 00 00... bra     validate_user_range_mask
                         validate_user_write_range:
000109B0  01 25 00 00 17 00 00 00... move.l  r4, #(PTE_P | PTE_R | PTE_W | PTE_U)
000109B8  40 06 00 00 18 00 00 00... bra     validate_user_range_mask
                         validate_user_exec_range:
000109C0  01 25 00 00 19 00 00 00... move.l  r4, #(PTE_P | PTE_X | PTE_U)
000109C8  40 06 00 00 08 00 00 00... bra     validate_user_range_mask
                         validate_user_range_mask:
000109D0  41 06 10 00 B0 00 00 00... beq r2, r0, .vur_ok
000109D8  01 35 00 00 00 00 00 02... move.l  r6, #0x2000000
000109E0  44 06 08 30 B0 00 00 00... bge     r1, r6, .vur_fail
000109E8  21 36 30 10 00 00 00 00... sub     r6, r6, r2
000109F0  45 06 08 30 A0 00 00 00... bgt     r1, r6, .vur_fail
000109F8  01 35 00 00 00 D0 07 00... move.l  r6, #KERN_PAGE_TABLE
00010A00  42 06 18 30 20 00 00 00... bne     r3, r6, .vur_user_pt
00010A08  01 35 00 00 10 00 00 00... move.l  r6, #PTE_U
00010A10  33 36 30 00 00 00 00 00... not     r6, r6
00010A18  30 26 20 30 00 00 00 00... and     r4, r4, r6
                         .vur_user_pt:
00010A20  35 2F 08 00 0C 00 00 00... lsr     r5, r1, #12
00010A28  20 36 08 10 00 00 00 00... add     r6, r1, r2
00010A30  21 37 30 00 01 00 00 00... sub     r6, r6, #1
00010A38  35 37 30 00 0C 00 00 00... lsr     r6, r6, #12
                         .vur_check:
00010A40  45 06 28 30 40 00 00 00... bgt     r5, r6, .vur_ok
00010A48  34 0F 28 00 03 00 00 00... lsl     r1, r5, #3
00010A50  20 0E 08 18 00 00 00 00... add     r1, r1, r3
00010A58  10 0E 08 00 00 00 00 00... load.q  r1, (r1)
00010A60  30 0E 08 20 00 00 00 00... and     r1, r1, r4
00010A68  42 06 08 20 28 00 00 00... bne     r1, r4, .vur_fail
00010A70  20 2F 28 00 01 00 00 00... add     r5, r5, #1
00010A78  40 06 00 00 C8 FF FF FF... bra     .vur_check
                         .vur_ok:
00010A80  01 0F 00 00 00 00 00 00... move.q  r1, #0
00010A88  51 00 00 00 00 00 00 00... rts
                         .vur_fail:
00010A90  01 0F 00 00 01 00 00 00... move.q  r1, #1
00010A98  51 00 00 00 00 00 00 00... rts
                         copy_from_user:
00010AA0  41 06 18 00 98 00 00 00... beq r3, r0, .cfu_ok_zero
00010AA8  01 3E 08 00 00 00 00 00... move.q  r7, r1
00010AB0  01 46 10 00 00 00 00 00... move.q  r8, r2
00010AB8  01 4E 18 00 00 00 00 00... move.q  r9, r3
00010AC0  01 56 20 00 00 00 00 00... move.q  r10, r4
00010AC8  01 0E 40 00 00 00 00 00... move.q  r1, r8
00010AD0  01 16 48 00 00 00 00 00... move.q  r2, r9
00010AD8  01 1E 50 00 00 00 00 00... move.q  r3, r10
00010AE0  50 06 00 00 C0 FE FF FF... jsr     validate_user_read_range
00010AE8  42 06 08 00 60 00 00 00... bne r1, r0, .cfu_badarg
00010AF0  F3 00 00 00 00 00 00 00... suaen
                         .cfu_loop:
00010AF8  41 06 48 00 38 00 00 00... beq r9, r0, .cfu_close
00010B00  10 30 40 00 00 00 00 00... load.b  r6, (r8)
00010B08  11 30 38 00 00 00 00 00... store.b r6, (r7)
00010B10  20 3F 38 00 01 00 00 00... add     r7, r7, #1
00010B18  20 47 40 00 01 00 00 00... add     r8, r8, #1
00010B20  21 4F 48 00 01 00 00 00... sub     r9, r9, #1
00010B28  40 06 00 00 D0 FF FF FF... bra     .cfu_loop
                         .cfu_close:
00010B30  F4 00 00 00 00 00 00 00... suadis
                         .cfu_ok_zero:
00010B38  01 0F 00 00 00 00 00 00... move.q  r1, #0
00010B40  51 00 00 00 00 00 00 00... rts
                         .cfu_badarg:
00010B48  01 0D 00 00 03 00 00 00... move.l  r1, #ERR_BADARG
00010B50  51 00 00 00 00 00 00 00... rts
                         copy_to_user:
00010B58  41 06 18 00 98 00 00 00... beq r3, r0, .ctu_ok_zero
00010B60  01 3E 08 00 00 00 00 00... move.q  r7, r1
00010B68  01 46 10 00 00 00 00 00... move.q  r8, r2
00010B70  01 4E 18 00 00 00 00 00... move.q  r9, r3
00010B78  01 56 20 00 00 00 00 00... move.q  r10, r4
00010B80  01 0E 38 00 00 00 00 00... move.q  r1, r7
00010B88  01 16 48 00 00 00 00 00... move.q  r2, r9
00010B90  01 1E 50 00 00 00 00 00... move.q  r3, r10
00010B98  50 06 00 00 18 FE FF FF... jsr     validate_user_write_range
00010BA0  42 06 08 00 60 00 00 00... bne r1, r0, .ctu_badarg
00010BA8  F3 00 00 00 00 00 00 00... suaen
                         .ctu_loop:
00010BB0  41 06 48 00 38 00 00 00... beq r9, r0, .ctu_close
00010BB8  10 30 40 00 00 00 00 00... load.b  r6, (r8)
00010BC0  11 30 38 00 00 00 00 00... store.b r6, (r7)
00010BC8  20 3F 38 00 01 00 00 00... add     r7, r7, #1
00010BD0  20 47 40 00 01 00 00 00... add     r8, r8, #1
00010BD8  21 4F 48 00 01 00 00 00... sub     r9, r9, #1
00010BE0  40 06 00 00 D0 FF FF FF... bra     .ctu_loop
                         .ctu_close:
00010BE8  F4 00 00 00 00 00 00 00... suadis
                         .ctu_ok_zero:
00010BF0  01 0F 00 00 00 00 00 00... move.q  r1, #0
00010BF8  51 00 00 00 00 00 00 00... rts
                         .ctu_badarg:
00010C00  01 0D 00 00 03 00 00 00... move.l  r1, #ERR_BADARG
00010C08  51 00 00 00 00 00 00 00... rts
                         copy_cstring_from_user:
00010C10  41 06 18 00 B8 00 00 00... beq r3, r0, .ccs_badarg
00010C18  01 3E 08 00 00 00 00 00... move.q  r7, r1
00010C20  01 46 10 00 00 00 00 00... move.q  r8, r2
00010C28  01 4E 18 00 00 00 00 00... move.q  r9, r3
00010C30  01 56 20 00 00 00 00 00... move.q  r10, r4
00010C38  F3 00 00 00 00 00 00 00... suaen
00010C40  01 0E 40 00 00 00 00 00... move.q  r1, r8
00010C48  01 16 48 00 00 00 00 00... move.q  r2, r9
00010C50  01 1E 50 00 00 00 00 00... move.q  r3, r10
00010C58  50 06 00 00 B8 FC FF FF... jsr     validate_user_cstring
00010C60  42 06 08 00 60 00 00 00... bne r1, r0, .ccs_close_badarg
                         .ccs_loop:
00010C68  41 06 48 00 58 00 00 00... beq r9, r0, .ccs_close_badarg
00010C70  10 30 40 00 00 00 00 00... load.b  r6, (r8)
00010C78  11 30 38 00 00 00 00 00... store.b r6, (r7)
00010C80  20 3F 38 00 01 00 00 00... add     r7, r7, #1
00010C88  20 47 40 00 01 00 00 00... add     r8, r8, #1
00010C90  21 4F 48 00 01 00 00 00... sub     r9, r9, #1
00010C98  41 06 30 00 10 00 00 00... beq r6, r0, .ccs_close_ok
00010CA0  40 06 00 00 C8 FF FF FF... bra     .ccs_loop
                         .ccs_close_ok:
00010CA8  F4 00 00 00 00 00 00 00... suadis
00010CB0  01 0F 00 00 00 00 00 00... move.q  r1, #0
00010CB8  51 00 00 00 00 00 00 00... rts
                         .ccs_close_badarg:
00010CC0  F4 00 00 00 00 00 00 00... suadis
                         .ccs_badarg:
00010CC8  01 0D 00 00 03 00 00 00... move.l  r1, #ERR_BADARG
00010CD0  51 00 00 00 00 00 00 00... rts
                         kern_task_exit_hooks_run:
00010CD8  34 7F 68 00 05 00 00 00... lsl     r15, r13, #5
00010CE0  20 7F 78 00 40 00 00 00... add     r15, r15, #KD_TASK_BASE
00010CE8  20 7E 78 60 00 00 00 00... add     r15, r15, r12
00010CF0  10 81 78 00 1F 00 00 00... load.b  r16, KD_TASK_TEARFLAGS(r15)
00010CF8  01 8D 00 00 01 00 00 00... move.l  r17, #TASK_TEARFLAG_HOOKS_RAN
00010D00  30 96 80 88 00 00 00 00... and     r18, r16, r17
00010D08  42 06 90 00 58 01 00 00... bne r18, r0, .kteh_done
00010D10  31 86 80 88 00 00 00 00... or      r16, r16, r17
00010D18  11 81 78 00 1F 00 00 00... store.b r16, KD_TASK_TEARFLAGS(r15)
00010D20  10 91 78 00 1C 00 00 00... load.b  r18, KD_TASK_STATE(r15)
00010D28  01 0E 68 00 00 00 00 00... move.q  r1, r13
00010D30  50 06 00 00 50 13 FF FF... jsr     kern_task_pubid_addr
00010D38  10 9C 08 00 00 00 00 00... load.l  r19, (r1)
00010D40  10 C3 60 00 CE C8 00 00... load.w  r24, KD_TASK_EXIT_HOOK_PPN(r12)
00010D48  34 C7 C0 00 0C 00 00 00... lsl     r24, r24, #12
00010D50  01 A6 C0 00 00 00 00 00... move.q  r20, r24
00010D58  01 AD 00 00 00 00 00 00... move.l  r21, #0
                         .kteh_row:
00010D60  01 B5 00 00 04 00 00 00... move.l  r22, #KD_TASK_EXIT_HOOK_MAX
00010D68  44 06 A8 B0 F8 00 00 00... bge     r21, r22, .kteh_done
00010D70  10 B4 A0 00 00 00 00 00... load.l  r22, KD_TASK_EXIT_HOOK_KIND(r20)
00010D78  41 06 B0 00 D0 00 00 00... beq r22, r0, .kteh_next
00010D80  10 BD A0 00 04 00 00 00... load.l  r23, KD_TASK_EXIT_HOOK_TARGET(r20)
00010D88  01 E5 00 00 FF FF FF FF... move.l  r28, #TASK_EXIT_HOOK_TARGET_ANY
00010D90  41 06 B8 E0 10 00 00 00... beq     r23, r28, .kteh_match
00010D98  42 06 B8 68 B0 00 00 00... bne     r23, r13, .kteh_next
                         .kteh_match:
00010DA0  11 05 A0 00 10 00 00 00... store.l r0, KD_TASK_EXIT_HOOK_STATUS(r20)
00010DA8  11 05 A0 00 14 00 00 00... store.l r0, KD_TASK_EXIT_HOOK_LASTSEQ(r20)
00010DB0  01 E5 00 00 01 00 00 00... move.l  r28, #TASK_EXIT_HOOK_RECORDER
00010DB8  42 06 B0 E0 80 00 00 00... bne     r22, r28, .kteh_badarg
00010DC0  10 CF A0 00 08 00 00 00... load.q  r25, KD_TASK_EXIT_HOOK_RECORD(r20)
00010DC8  41 06 C8 00 70 00 00 00... beq r25, r0, .kteh_badarg
00010DD0  10 D5 C0 00 60 00 00 00... load.l  r26, KD_TASK_EXIT_SEQ(r24)
00010DD8  20 D7 D0 00 01 00 00 00... add     r26, r26, #1
00010DE0  11 D5 C0 00 60 00 00 00... store.l r26, KD_TASK_EXIT_SEQ(r24)
00010DE8  11 D5 A0 00 14 00 00 00... store.l r26, KD_TASK_EXIT_HOOK_LASTSEQ(r20)
00010DF0  10 DE C8 00 00 00 00 00... load.q  r27, TASK_EXIT_REC_COUNT(r25)
00010DF8  20 DF D8 00 01 00 00 00... add     r27, r27, #1
00010E00  11 DE C8 00 00 00 00 00... store.q r27, TASK_EXIT_REC_COUNT(r25)
00010E08  11 D7 C8 00 08 00 00 00... store.q r26, TASK_EXIT_REC_SEQ(r25)
00010E10  11 6F C8 00 10 00 00 00... store.q r13, TASK_EXIT_REC_SLOT(r25)
00010E18  11 9F C8 00 18 00 00 00... store.q r19, TASK_EXIT_REC_PUBID(r25)
00010E20  11 77 C8 00 20 00 00 00... store.q r14, TASK_EXIT_REC_REASON(r25)
00010E28  11 97 C8 00 28 00 00 00... store.q r18, TASK_EXIT_REC_STATE(r25)
00010E30  40 06 00 00 18 00 00 00... bra     .kteh_next
                         .kteh_badarg:
00010E38  01 DF 00 00 03 00 00 00... move.q  r27, #ERR_BADARG
00010E40  11 DD A0 00 10 00 00 00... store.l r27, KD_TASK_EXIT_HOOK_STATUS(r20)
                         .kteh_next:
00010E48  20 A7 A0 00 18 00 00 00... add     r20, r20, #KD_TASK_EXIT_HOOK_STRIDE
00010E50  20 AF A8 00 01 00 00 00... add     r21, r21, #1
00010E58  40 06 00 00 08 FF FF FF... bra     .kteh_row
                         .kteh_done:
00010E60  51 00 00 00 00 00 00 00... rts
                         quota_counter_addr:
00010E68  01 25 00 00 04 00 00 00... move.l  r4, #(QUOTA_KIND_COUNT - 1)
00010E70  47 06 10 20 50 00 00 00... bhi     r2, r4, .qca_bad
00010E78  01 25 00 00 00 D0 08 00... move.l  r4, #KERN_DATA_BASE
00010E80  10 2B 20 00 38 06 01 00... load.w  r5, KD_QUOTA_PAGE_PPN(r4)
00010E88  41 06 28 00 38 00 00 00... beq r5, r0, .qca_bad
00010E90  34 27 28 00 0C 00 00 00... lsl     r4, r5, #12
00010E98  34 2F 08 00 04 00 00 00... lsl     r5, r1, #KD_QUOTA_ROW_SHIFT
00010EA0  20 26 20 28 00 00 00 00... add     r4, r4, r5
00010EA8  34 2F 10 00 01 00 00 00... lsl     r5, r2, #1
00010EB0  20 0E 20 28 00 00 00 00... add     r1, r4, r5
00010EB8  51 00 00 00 00 00 00 00... rts
                         .qca_bad:
00010EC0  01 0D 00 00 00 00 00 00... move.l  r1, #0
00010EC8  51 00 00 00 00 00 00 00... rts
                         quota_row_base:
00010ED0  01 15 00 00 00 00 00 00... move.l  r2, #QUOTA_KIND_PAGES
00010ED8  50 06 00 00 90 FF FF FF... jsr     quota_counter_addr
00010EE0  51 00 00 00 00 00 00 00... rts
                         quota_get_limit:
00010EE8  01 25 00 00 04 00 00 00... move.l  r4, #(QUOTA_KIND_COUNT - 1)
00010EF0  47 06 08 20 38 00 00 00... bhi     r1, r4, .qgl_bad
00010EF8  01 25 00 00 00 D0 08 00... move.l  r4, #KERN_DATA_BASE
00010F00  20 27 20 00 3C 06 01 00... add     r4, r4, #KD_QUOTA_LIMITS_BASE
00010F08  34 2F 08 00 02 00 00 00... lsl     r5, r1, #2
00010F10  20 26 20 28 00 00 00 00... add     r4, r4, r5
00010F18  10 0C 20 00 00 00 00 00... load.l  r1, (r4)
00010F20  51 00 00 00 00 00 00 00... rts
                         .qgl_bad:
00010F28  01 0D 00 00 00 00 00 00... move.l  r1, #0
00010F30  51 00 00 00 00 00 00 00... rts
                         quota_set_limit:
00010F38  01 25 00 00 04 00 00 00... move.l  r4, #(QUOTA_KIND_COUNT - 1)
00010F40  47 06 08 20 40 00 00 00... bhi     r1, r4, .qsl_bad
00010F48  01 25 00 00 00 D0 08 00... move.l  r4, #KERN_DATA_BASE
00010F50  20 27 20 00 3C 06 01 00... add     r4, r4, #KD_QUOTA_LIMITS_BASE
00010F58  34 2F 08 00 02 00 00 00... lsl     r5, r1, #2
00010F60  20 26 20 28 00 00 00 00... add     r4, r4, r5
00010F68  11 14 20 00 00 00 00 00... store.l r2, (r4)
00010F70  01 0D 00 00 00 00 00 00... move.l  r1, #ERR_OK
00010F78  51 00 00 00 00 00 00 00... rts
                         .qsl_bad:
00010F80  01 0D 00 00 03 00 00 00... move.l  r1, #ERR_BADARG
00010F88  51 00 00 00 00 00 00 00... rts
                         quota_get_current:
00010F90  50 06 00 00 D8 FE FF FF... jsr     quota_counter_addr
00010F98  41 06 08 00 18 00 00 00... beq r1, r0, .qgc_zero
00010FA0  10 0A 08 00 00 00 00 00... load.w  r1, (r1)
00010FA8  51 00 00 00 00 00 00 00... rts
                         .qgc_zero:
00010FB0  01 0D 00 00 00 00 00 00... move.l  r1, #0
00010FB8  51 00 00 00 00 00 00 00... rts
                         quota_check_and_charge:
00010FC0  01 25 00 00 00 D0 08 00... move.l  r4, #KERN_DATA_BASE
00010FC8  10 23 20 00 38 06 01 00... load.w  r4, KD_QUOTA_PAGE_PPN(r4)
00010FD0  41 06 20 00 98 00 00 00... beq r4, r0, .qcc_disabled
00010FD8  01 36 10 00 00 00 00 00... move.q  r6, r2
00010FE0  01 3E 18 00 00 00 00 00... move.q  r7, r3
00010FE8  50 06 00 00 80 FE FF FF... jsr     quota_counter_addr
00010FF0  41 06 08 00 68 00 00 00... beq r1, r0, .qcc_bad
00010FF8  01 3E 08 00 00 00 00 00... move.q  r7, r1
00011000  10 22 38 00 00 00 00 00... load.w  r4, (r7)
00011008  20 26 20 18 00 00 00 00... add     r4, r4, r3
00011010  01 36 20 00 00 00 00 00... move.q  r6, r4
00011018  01 0E 10 00 00 00 00 00... move.q  r1, r2
00011020  50 06 00 00 C8 FE FF FF... jsr     quota_get_limit
00011028  45 06 30 08 20 00 00 00... bgt     r6, r1, .qcc_exceed
00011030  11 32 38 00 00 00 00 00... store.w r6, (r7)
00011038  01 0D 00 00 00 00 00 00... move.l  r1, #ERR_OK
00011040  51 00 00 00 00 00 00 00... rts
                         .qcc_exceed:
00011048  01 0D 00 00 0A 00 00 00... move.l  r1, #ERR_QUOTA
00011050  51 00 00 00 00 00 00 00... rts
                         .qcc_bad:
00011058  01 0D 00 00 03 00 00 00... move.l  r1, #ERR_BADARG
00011060  51 00 00 00 00 00 00 00... rts
                         .qcc_disabled:
00011068  01 0D 00 00 00 00 00 00... move.l  r1, #ERR_OK
00011070  51 00 00 00 00 00 00 00... rts
                         quota_return:
00011078  01 25 00 00 00 D0 08 00... move.l  r4, #KERN_DATA_BASE
00011080  10 23 20 00 38 06 01 00... load.w  r4, KD_QUOTA_PAGE_PPN(r4)
00011088  41 06 20 00 80 00 00 00... beq r4, r0, .qr_disabled
00011090  01 36 18 00 00 00 00 00... move.q  r6, r3
00011098  50 06 00 00 D0 FD FF FF... jsr     quota_counter_addr
000110A0  41 06 08 00 58 00 00 00... beq r1, r0, .qr_bad
000110A8  01 3E 08 00 00 00 00 00... move.q  r7, r1
000110B0  10 22 38 00 00 00 00 00... load.w  r4, (r7)
000110B8  44 06 30 20 28 00 00 00... bge     r6, r4, .qr_clamp
000110C0  21 26 20 30 00 00 00 00... sub     r4, r4, r6
000110C8  11 22 38 00 00 00 00 00... store.w r4, (r7)
000110D0  01 0D 00 00 00 00 00 00... move.l  r1, #ERR_OK
000110D8  51 00 00 00 00 00 00 00... rts
                         .qr_clamp:
000110E0  11 02 38 00 00 00 00 00... store.w r0, (r7)
000110E8  01 0D 00 00 00 00 00 00... move.l  r1, #ERR_OK
000110F0  51 00 00 00 00 00 00 00... rts
                         .qr_bad:
000110F8  01 0D 00 00 03 00 00 00... move.l  r1, #ERR_BADARG
00011100  51 00 00 00 00 00 00 00... rts
                         .qr_disabled:
00011108  01 0D 00 00 00 00 00 00... move.l  r1, #ERR_OK
00011110  51 00 00 00 00 00 00 00... rts
                         quota_zero_row:
00011118  50 06 00 00 B8 FD FF FF... jsr     quota_row_base
00011120  41 06 08 00 18 00 00 00... beq r1, r0, .qzr_done
00011128  11 06 08 00 00 00 00 00... store.q r0, (r1)
00011130  11 07 08 00 08 00 00 00... store.q r0, 8(r1)
                         .qzr_done:
00011138  51 00 00 00 00 00 00 00... rts
                         m16_atomic_row_try_transition:
00011140  01 26 10 00 00 00 00 00... move.q  r4, r2
00011148  ED 20 08 18 00 00 00 00... cas     r4, (r1), r3
00011150  01 0E 20 00 00 00 00 00... move.q  r1, r4
00011158  51 00 00 00 00 00 00 00... rts
                         m16_atomic_list_push_head:
                         .m16_alph_retry:
00011160  10 26 08 00 00 00 00 00... load.q  r4, (r1)
00011168  11 26 18 00 00 00 00 00... store.q r4, (r3)
00011170  01 2E 20 00 00 00 00 00... move.q  r5, r4
00011178  ED 28 08 10 00 00 00 00... cas     r5, (r1), r2
00011180  42 06 28 20 E0 FF FF FF... bne     r5, r4, .m16_alph_retry
00011188  01 0E 10 00 00 00 00 00... move.q  r1, r2
00011190  51 00 00 00 00 00 00 00... rts
                         m16_atomic_list_detach_all:
00011198  01 1F 00 00 00 00 00 00... move.q  r3, #0
000111A0  EE 10 08 18 00 00 00 00... xchg    r2, (r1), r3
000111A8  01 0E 10 00 00 00 00 00... move.q  r1, r2
000111B0  51 00 00 00 00 00 00 00... rts
                         m16_name_matches_addr:
000111B8  01 C6 08 00 00 00 00 00... move.q  r24, r1
000111C0  01 CD 00 00 00 D0 08 00... move.l  r25, #KERN_DATA_BASE
000111C8  20 CF C8 00 20 00 00 00... add     r25, r25, #KD_NAME_SCRATCH
000111D0  50 06 00 00 A8 99 FF FF... jsr     case_insensitive_cmp
000111D8  01 0F 00 00 00 00 00 00... move.q  r1, #0
000111E0  42 06 B8 00 10 00 00 00... bne r23, r0, .m16_nma_done
000111E8  01 0F 00 00 01 00 00 00... move.q  r1, #1
                         .m16_nma_done:
000111F0  51 00 00 00 00 00 00 00... rts
                         m16_module_row_addr_for_index:
000111F8  01 15 00 00 10 00 00 00... move.l  r2, #KD_MODULE_MAX
00011200  44 06 08 10 38 00 00 00... bge     r1, r2, .m16_mrai_bad
00011208  01 15 00 00 50 00 00 00... move.l  r2, #KD_MODULE_ROW_STRIDE
00011210  22 16 08 10 00 00 00 00... mulu    r2, r1, r2
00011218  01 1D 00 00 00 D0 08 00... move.l  r3, #KERN_DATA_BASE
00011220  20 1F 18 00 50 06 01 00... add     r3, r3, #KD_MODULE_TABLE
00011228  20 0E 18 10 00 00 00 00... add     r1, r3, r2
00011230  51 00 00 00 00 00 00 00... rts
                         .m16_mrai_bad:
00011238  01 0F 00 00 00 00 00 00... move.q  r1, #0
00011240  51 00 00 00 00 00 00 00... rts
                         m16_module_find_row_by_name:
00011248  01 15 00 00 00 00 00 00... move.l  r2, #0
                         .m16_mfrbn_scan:
00011250  01 1D 00 00 10 00 00 00... move.l  r3, #KD_MODULE_MAX
00011258  44 06 10 18 90 00 00 00... bge     r2, r3, .m16_mfrbn_none
00011260  01 0E 10 00 00 00 00 00... move.q  r1, r2
00011268  52 06 10 00 00 00 00 00... push    r2
00011270  50 06 00 00 88 FF FF FF... jsr     m16_module_row_addr_for_index
00011278  53 16 00 00 00 00 00 00... pop     r2
00011280  01 26 08 00 00 00 00 00... move.q  r4, r1
00011288  20 0F 20 00 00 00 00 00... add     r1, r4, #KD_MODULE_NAME
00011290  52 06 10 00 00 00 00 00... push    r2
00011298  52 06 20 00 00 00 00 00... push    r4
000112A0  50 06 00 00 18 FF FF FF... jsr     m16_name_matches_addr
000112A8  01 2E 08 00 00 00 00 00... move.q  r5, r1
000112B0  53 26 00 00 00 00 00 00... pop     r4
000112B8  53 16 00 00 00 00 00 00... pop     r2
000112C0  42 06 28 00 18 00 00 00... bne r5, r0, .m16_mfrbn_found
000112C8  20 17 10 00 01 00 00 00... add     r2, r2, #1
000112D0  40 06 00 00 80 FF FF FF... bra     .m16_mfrbn_scan
                         .m16_mfrbn_found:
000112D8  01 0E 20 00 00 00 00 00... move.q  r1, r4
000112E0  51 00 00 00 00 00 00 00... rts
                         .m16_mfrbn_none:
000112E8  01 0F 00 00 00 00 00 00... move.q  r1, #0
000112F0  01 15 00 00 FF FF FF FF... move.l  r2, #0xFFFFFFFF
000112F8  51 00 00 00 00 00 00 00... rts
                         m16_module_find_or_alloc_row:
00011300  50 06 00 00 48 FF FF FF... jsr     m16_module_find_row_by_name
00011308  42 06 08 00 30 01 00 00... bne r1, r0, .m16_mfoar_done
00011310  01 15 00 00 00 00 00 00... move.l  r2, #0
                         .m16_mfoar_scan:
00011318  01 1D 00 00 10 00 00 00... move.l  r3, #KD_MODULE_MAX
00011320  44 06 10 18 20 01 00 00... bge     r2, r3, .m16_mfoar_full
00011328  01 0E 10 00 00 00 00 00... move.q  r1, r2
00011330  52 06 10 00 00 00 00 00... push    r2
00011338  50 06 00 00 C0 FE FF FF... jsr     m16_module_row_addr_for_index
00011340  53 16 00 00 00 00 00 00... pop     r2
00011348  01 26 08 00 00 00 00 00... move.q  r4, r1
00011350  10 2E 20 00 00 00 00 00... load.q  r5, KD_MODULE_NAME(r4)
00011358  41 06 28 00 18 00 00 00... beq r5, r0, .m16_mfoar_alloc
00011360  20 17 10 00 01 00 00 00... add     r2, r2, #1
00011368  40 06 00 00 B0 FF FF FF... bra     .m16_mfoar_scan
                         .m16_mfoar_alloc:
00011370  11 06 20 00 00 00 00 00... store.q r0, KD_MODULE_NAME(r4)
00011378  11 07 20 00 08 00 00 00... store.q r0, KD_MODULE_NAME+8(r4)
00011380  11 07 20 00 10 00 00 00... store.q r0, KD_MODULE_NAME+16(r4)
00011388  11 07 20 00 18 00 00 00... store.q r0, KD_MODULE_NAME+24(r4)
00011390  01 2D 00 00 00 D0 08 00... move.l  r5, #KERN_DATA_BASE
00011398  20 2F 28 00 20 00 00 00... add     r5, r5, #KD_NAME_SCRATCH
000113A0  10 36 28 00 00 00 00 00... load.q  r6, (r5)
000113A8  11 36 20 00 00 00 00 00... store.q r6, KD_MODULE_NAME(r4)
000113B0  10 37 28 00 08 00 00 00... load.q  r6, 8(r5)
000113B8  11 37 20 00 08 00 00 00... store.q r6, KD_MODULE_NAME+8(r4)
000113C0  10 37 28 00 10 00 00 00... load.q  r6, 16(r5)
000113C8  11 37 20 00 10 00 00 00... store.q r6, KD_MODULE_NAME+16(r4)
000113D0  10 37 28 00 18 00 00 00... load.q  r6, 24(r5)
000113D8  11 37 20 00 18 00 00 00... store.q r6, KD_MODULE_NAME+24(r4)
000113E0  11 05 20 00 20 00 00 00... store.l r0, KD_MODULE_STATE(r4)
000113E8  11 03 20 00 28 00 00 00... store.w r0, KD_MODULE_VERSION(r4)
000113F0  11 03 20 00 2A 00 00 00... store.w r0, KD_MODULE_REVISION(r4)
000113F8  11 05 20 00 2C 00 00 00... store.l r0, KD_MODULE_CLASS(r4)
00011400  11 05 20 00 30 00 00 00... store.l r0, KD_MODULE_OWNING_TASK(r4)
00011408  11 05 20 00 34 00 00 00... store.l r0, KD_MODULE_PUBLIC_PORT(r4)
00011410  11 05 20 00 38 00 00 00... store.l r0, KD_MODULE_OPEN_COUNT(r4)
00011418  11 05 20 00 3C 00 00 00... store.l r0, KD_MODULE_FLAGS(r4)
00011420  11 07 20 00 40 00 00 00... store.q r0, KD_MODULE_WAITERS_HEAD(r4)
00011428  11 05 20 00 48 00 00 00... store.l r0, KD_MODULE_DEADLINE_TICK(r4)
00011430  01 0E 20 00 00 00 00 00... move.q  r1, r4
                         .m16_mfoar_done:
00011438  51 00 00 00 00 00 00 00... rts
                         .m16_mfoar_full:
00011440  01 0F 00 00 00 00 00 00... move.q  r1, #0
00011448  51 00 00 00 00 00 00 00... rts
                         m16_module_prepare_loading_row:
00011450  01 A6 08 00 00 00 00 00... move.q  r20, r1
00011458  01 AE 10 00 00 00 00 00... move.q  r21, r2
00011460  11 03 A0 00 28 00 00 00... store.w r0, KD_MODULE_VERSION(r20)
00011468  11 03 A0 00 2A 00 00 00... store.w r0, KD_MODULE_REVISION(r20)
00011470  01 5D 00 00 01 00 00 00... move.l  r11, #1
00011478  11 5D A0 00 2C 00 00 00... store.l r11, KD_MODULE_CLASS(r20)
00011480  11 05 A0 00 30 00 00 00... store.l r0, KD_MODULE_OWNING_TASK(r20)
00011488  11 05 A0 00 34 00 00 00... store.l r0, KD_MODULE_PUBLIC_PORT(r20)
00011490  11 05 A0 00 38 00 00 00... store.l r0, KD_MODULE_OPEN_COUNT(r20)
00011498  11 05 A0 00 3C 00 00 00... store.l r0, KD_MODULE_FLAGS(r20)
000114A0  11 07 A0 00 40 00 00 00... store.q r0, KD_MODULE_WAITERS_HEAD(r20)
000114A8  11 05 A0 00 48 00 00 00... store.l r0, KD_MODULE_DEADLINE_TICK(r20)
000114B0  01 5D 00 00 01 00 00 00... move.l  r11, #M16_MODSTATE_LOADING
000114B8  11 5D A0 00 20 00 00 00... store.l r11, KD_MODULE_STATE(r20)
000114C0  01 0E A8 00 00 00 00 00... move.q  r1, r21
000114C8  50 06 00 00 D0 14 00 00... jsr     m16_clear_open_rows_for_module
000114D0  01 0E A0 00 00 00 00 00... move.q  r1, r20
000114D8  51 00 00 00 00 00 00 00... rts
                         m16_module_sum_open_rows:
000114E0  01 A6 08 00 00 00 00 00... move.q  r20, r1
000114E8  01 AD 00 00 00 00 00 00... move.l  r21, #0
000114F0  01 B5 00 00 00 00 00 00... move.l  r22, #0
000114F8  01 BD 00 00 00 D0 08 00... move.l  r23, #KERN_DATA_BASE
00011500  20 BF B8 00 E8 0D 01 00... add     r23, r23, #KD_MODULE_OPEN_ROWS
                         .m16_msor_scan:
00011508  01 C5 00 00 20 00 00 00... move.l  r24, #KD_MODULE_OPEN_ROW_MAX
00011510  44 06 A8 C0 48 00 00 00... bge     r21, r24, .m16_msor_done
00011518  10 C5 B8 00 0C 00 00 00... load.l  r24, KD_MODULE_OPEN_ROW_COUNT(r23)
00011520  41 06 C0 00 20 00 00 00... beq r24, r0, .m16_msor_next
00011528  10 CD B8 00 04 00 00 00... load.l  r25, KD_MODULE_OPEN_ROW_INDEX(r23)
00011530  42 06 C8 A0 10 00 00 00... bne     r25, r20, .m16_msor_next
00011538  20 B6 B0 C0 00 00 00 00... add     r22, r22, r24
                         .m16_msor_next:
00011540  20 BF B8 00 10 00 00 00... add     r23, r23, #KD_MODULE_OPEN_ROW_STRIDE
00011548  20 AF A8 00 01 00 00 00... add     r21, r21, #1
00011550  40 06 00 00 B8 FF FF FF... bra     .m16_msor_scan
                         .m16_msor_done:
00011558  01 0E B0 00 00 00 00 00... move.q  r1, r22
00011560  51 00 00 00 00 00 00 00... rts
                         m16_start_autoload_request:
00011568  01 A6 08 00 00 00 00 00... move.q  r20, r1
00011570  01 65 00 00 00 D0 08 00... move.l  r12, #KERN_DATA_BASE
00011578  10 BD 60 00 BC C0 00 00... load.l  r23, KD_DOSLIB_PUBID(r12)
00011580  01 5D 00 00 FF FF FF FF... move.l  r11, #TASK_PUBID_FREE
00011588  41 06 B8 58 A0 02 00 00... beq     r23, r11, .m16_sar_notfound
00011590  01 AD 00 00 00 00 00 00... move.l  r21, #0
                         .m16_sar_find_dos_row:
00011598  01 5D 00 00 10 00 00 00... move.l  r11, #KD_MODULE_MAX
000115A0  44 06 A8 58 88 02 00 00... bge     r21, r11, .m16_sar_notfound
000115A8  01 0E A8 00 00 00 00 00... move.q  r1, r21
000115B0  52 06 A0 00 00 00 00 00... push    r20
000115B8  52 06 A8 00 00 00 00 00... push    r21
000115C0  50 06 00 00 38 FC FF FF... jsr     m16_module_row_addr_for_index
000115C8  53 AE 00 00 00 00 00 00... pop     r21
000115D0  53 A6 00 00 00 00 00 00... pop     r20
000115D8  01 B6 08 00 00 00 00 00... move.q  r22, r1
000115E0  10 5D B0 00 20 00 00 00... load.l  r11, KD_MODULE_STATE(r22)
000115E8  01 75 00 00 02 00 00 00... move.l  r14, #M16_MODSTATE_ONLINE
000115F0  42 06 58 70 30 00 00 00... bne     r11, r14, .m16_sar_next_row
000115F8  10 5D B0 00 30 00 00 00... load.l  r11, KD_MODULE_OWNING_TASK(r22)
00011600  42 06 58 B8 20 00 00 00... bne     r11, r23, .m16_sar_next_row
00011608  10 C5 B0 00 34 00 00 00... load.l  r24, KD_MODULE_PUBLIC_PORT(r22)
00011610  41 06 C0 00 18 02 00 00... beq r24, r0, .m16_sar_notfound
00011618  40 06 00 00 18 00 00 00... bra     .m16_sar_have_port
                         .m16_sar_next_row:
00011620  20 AF A8 00 01 00 00 00... add     r21, r21, #1
00011628  40 06 00 00 70 FF FF FF... bra     .m16_sar_find_dos_row
                         .m16_sar_have_port:
00011630  01 0E C0 00 00 00 00 00... move.q  r1, r24
00011638  52 06 A0 00 00 00 00 00... push    r20
00011640  52 06 B8 00 00 00 00 00... push    r23
00011648  52 06 C0 00 00 00 00 00... push    r24
00011650  50 06 00 00 20 8D FF FF... jsr     kern_port_addr_for_id
00011658  53 C6 00 00 00 00 00 00... pop     r24
00011660  53 BE 00 00 00 00 00 00... pop     r23
00011668  53 A6 00 00 00 00 00 00... pop     r20
00011670  41 06 08 00 C8 01 00 00... beq r1, r0, .m16_sar_badarg
00011678  01 AE 08 00 00 00 00 00... move.q  r21, r1
00011680  10 58 A8 00 00 00 00 00... load.b  r11, KD_PORT_VALID(r21)
00011688  41 06 58 00 B0 01 00 00... beq r11, r0, .m16_sar_badarg
00011690  10 B1 A8 00 02 00 00 00... load.b  r22, KD_PORT_COUNT(r21)
00011698  01 5D 00 00 04 00 00 00... move.l  r11, #KD_PORT_FIFO_SIZE
000116A0  44 06 B0 58 A8 01 00 00... bge     r22, r11, .m16_sar_full
000116A8  10 C9 A8 00 04 00 00 00... load.b  r25, KD_PORT_TAIL(r21)
000116B0  01 D5 00 00 20 00 00 00... move.l  r26, #KD_MSG_SIZE
000116B8  22 D6 C8 D0 00 00 00 00... mulu    r26, r25, r26
000116C0  20 D6 D0 A8 00 00 00 00... add     r26, r26, r21
000116C8  20 D7 D0 00 28 00 00 00... add     r26, r26, #KD_PORT_MSGS
000116D0  01 5D 00 00 0B 00 00 00... move.l  r11, #DOS_LOADLIB
000116D8  11 5C D0 00 00 00 00 00... store.l r11, KD_MSG_TYPE(r26)
000116E0  52 06 A0 00 00 00 00 00... push    r20
000116E8  52 06 A8 00 00 00 00 00... push    r21
000116F0  52 06 B0 00 00 00 00 00... push    r22
000116F8  52 06 B8 00 00 00 00 00... push    r23
00011700  52 06 C0 00 00 00 00 00... push    r24
00011708  52 06 C8 00 00 00 00 00... push    r25
00011710  50 06 00 00 A0 09 FF FF... jsr     kern_current_public_task_id
00011718  53 CE 00 00 00 00 00 00... pop     r25
00011720  53 C6 00 00 00 00 00 00... pop     r24
00011728  53 BE 00 00 00 00 00 00... pop     r23
00011730  53 B6 00 00 00 00 00 00... pop     r22
00011738  53 AE 00 00 00 00 00 00... pop     r21
00011740  53 A6 00 00 00 00 00 00... pop     r20
00011748  11 0D D0 00 04 00 00 00... store.l r1, KD_MSG_SRC(r26)
00011750  11 A7 D0 00 08 00 00 00... store.q r20, KD_MSG_DATA0(r26)
00011758  11 07 D0 00 10 00 00 00... store.q r0, KD_MSG_DATA1(r26)
00011760  01 5D 00 00 FF FF 00 00... move.l  r11, #REPLY_PORT_NONE
00011768  11 5B D0 00 18 00 00 00... store.w r11, KD_MSG_REPLY_PORT(r26)
00011770  11 05 D0 00 1A 00 00 00... store.l r0, KD_MSG_SHARE_HDL(r26)
00011778  20 CF C8 00 01 00 00 00... add     r25, r25, #1
00011780  30 CF C8 00 03 00 00 00... and     r25, r25, #3
00011788  11 C9 A8 00 04 00 00 00... store.b r25, KD_PORT_TAIL(r21)
00011790  20 B7 B0 00 01 00 00 00... add     r22, r22, #1
00011798  11 B1 A8 00 02 00 00 00... store.b r22, KD_PORT_COUNT(r21)
000117A0  10 D9 A8 00 01 00 00 00... load.b  r27, KD_PORT_OWNER(r21)
000117A8  34 E7 D8 00 05 00 00 00... lsl     r28, r27, #5
000117B0  20 E7 E0 00 40 00 00 00... add     r28, r28, #KD_TASK_BASE
000117B8  20 E6 E0 60 00 00 00 00... add     r28, r28, r12
000117C0  10 ED E0 00 18 00 00 00... load.l  r29, KD_TASK_SIG_RECV(r28)
000117C8  31 EF E8 00 01 00 00 00... or      r29, r29, #SIGF_PORT
000117D0  11 ED E0 00 18 00 00 00... store.l r29, KD_TASK_SIG_RECV(r28)
000117D8  10 F1 E0 00 1C 00 00 00... load.b  r30, KD_TASK_STATE(r28)
000117E0  01 5D 00 00 02 00 00 00... move.l  r11, #TASK_WAITING
000117E8  42 06 F0 58 30 00 00 00... bne     r30, r11, .m16_sar_ok
000117F0  10 5D E0 00 14 00 00 00... load.l  r11, KD_TASK_SIG_WAIT(r28)
000117F8  30 5F 58 00 01 00 00 00... and     r11, r11, #SIGF_PORT
00011800  41 06 58 00 18 00 00 00... beq r11, r0, .m16_sar_ok
00011808  01 F1 00 00 00 00 00 00... move.b  r30, #TASK_READY
00011810  11 F1 E0 00 1C 00 00 00... store.b r30, KD_TASK_STATE(r28)
                         .m16_sar_ok:
00011818  01 17 00 00 00 00 00 00... move.q  r2, #ERR_OK
00011820  51 00 00 00 00 00 00 00... rts
                         .m16_sar_notfound:
00011828  01 17 00 00 04 00 00 00... move.q  r2, #ERR_NOTFOUND
00011830  51 00 00 00 00 00 00 00... rts
                         .m16_sar_badarg:
00011838  01 17 00 00 03 00 00 00... move.q  r2, #ERR_BADARG
00011840  51 00 00 00 00 00 00 00... rts
                         .m16_sar_full:
00011848  01 17 00 00 09 00 00 00... move.q  r2, #ERR_FULL
00011850  51 00 00 00 00 00 00 00... rts
                         m16_module_cancel_expunge:
00011858  01 A6 08 00 00 00 00 00... move.q  r20, r1
00011860  01 5D 00 00 02 00 00 00... move.l  r11, #M16_MODSTATE_ONLINE
00011868  11 5D A0 00 20 00 00 00... store.l r11, KD_MODULE_STATE(r20)
00011870  11 05 A0 00 48 00 00 00... store.l r0, KD_MODULE_DEADLINE_TICK(r20)
00011878  01 0E A0 00 00 00 00 00... move.q  r1, r20
00011880  51 00 00 00 00 00 00 00... rts
                         m16_module_begin_expunge:
00011888  01 A6 08 00 00 00 00 00... move.q  r20, r1
00011890  01 AE 10 00 00 00 00 00... move.q  r21, r2
00011898  10 B5 A0 00 34 00 00 00... load.l  r22, KD_MODULE_PUBLIC_PORT(r20)
000118A0  01 0E B0 00 00 00 00 00... move.q  r1, r22
000118A8  52 06 A0 00 00 00 00 00... push    r20
000118B0  52 06 A8 00 00 00 00 00... push    r21
000118B8  52 06 B0 00 00 00 00 00... push    r22
000118C0  50 06 00 00 B0 8A FF FF... jsr     kern_port_addr_for_id
000118C8  53 B6 00 00 00 00 00 00... pop     r22
000118D0  53 AE 00 00 00 00 00 00... pop     r21
000118D8  53 A6 00 00 00 00 00 00... pop     r20
000118E0  41 06 08 00 78 01 00 00... beq r1, r0, .m16_mbe_done
000118E8  01 BE 08 00 00 00 00 00... move.q  r23, r1
000118F0  10 58 B8 00 00 00 00 00... load.b  r11, KD_PORT_VALID(r23)
000118F8  41 06 58 00 60 01 00 00... beq r11, r0, .m16_mbe_done
00011900  10 C1 B8 00 02 00 00 00... load.b  r24, KD_PORT_COUNT(r23)
00011908  01 5D 00 00 04 00 00 00... move.l  r11, #KD_PORT_FIFO_SIZE
00011910  44 06 C0 58 48 01 00 00... bge     r24, r11, .m16_mbe_done
00011918  10 C9 B8 00 04 00 00 00... load.b  r25, KD_PORT_TAIL(r23)
00011920  01 D5 00 00 20 00 00 00... move.l  r26, #KD_MSG_SIZE
00011928  22 D6 C8 D0 00 00 00 00... mulu    r26, r25, r26
00011930  20 D6 D0 B8 00 00 00 00... add     r26, r26, r23
00011938  20 D7 D0 00 28 00 00 00... add     r26, r26, #KD_PORT_MSGS
00011940  01 5D 00 00 45 36 31 4D... move.l  r11, #LIB_OP_EXPUNGE
00011948  11 5C D0 00 00 00 00 00... store.l r11, KD_MSG_TYPE(r26)
00011950  11 05 D0 00 04 00 00 00... store.l r0, KD_MSG_SRC(r26)
00011958  11 AF D0 00 08 00 00 00... store.q r21, KD_MSG_DATA0(r26)
00011960  10 5D A0 00 24 00 00 00... load.l  r11, KD_MODULE_GENERATION(r20)
00011968  11 5F D0 00 10 00 00 00... store.q r11, KD_MSG_DATA1(r26)
00011970  01 5D 00 00 FF FF 00 00... move.l  r11, #REPLY_PORT_NONE
00011978  11 5B D0 00 18 00 00 00... store.w r11, KD_MSG_REPLY_PORT(r26)
00011980  11 05 D0 00 1A 00 00 00... store.l r0, KD_MSG_SHARE_HDL(r26)
00011988  20 CF C8 00 01 00 00 00... add     r25, r25, #1
00011990  30 CF C8 00 03 00 00 00... and     r25, r25, #3
00011998  11 C9 B8 00 04 00 00 00... store.b r25, KD_PORT_TAIL(r23)
000119A0  20 C7 C0 00 01 00 00 00... add     r24, r24, #1
000119A8  11 C1 B8 00 02 00 00 00... store.b r24, KD_PORT_COUNT(r23)
000119B0  01 5D 00 00 04 00 00 00... move.l  r11, #M16_MODSTATE_EXPUNGING
000119B8  11 5D A0 00 20 00 00 00... store.l r11, KD_MODULE_STATE(r20)
000119C0  01 65 00 00 00 D0 08 00... move.l  r12, #KERN_DATA_BASE
000119C8  10 5F 60 00 08 00 00 00... load.q  r11, KD_TICK_COUNT(r12)
000119D0  20 5F 58 00 20 00 00 00... add     r11, r11, #M16_EXPUNGE_GRACE_TICKS
000119D8  11 5D A0 00 48 00 00 00... store.l r11, KD_MODULE_DEADLINE_TICK(r20)
000119E0  10 D9 B8 00 01 00 00 00... load.b  r27, KD_PORT_OWNER(r23)
000119E8  34 E7 D8 00 05 00 00 00... lsl     r28, r27, #5
000119F0  20 E7 E0 00 40 00 00 00... add     r28, r28, #KD_TASK_BASE
000119F8  20 E6 E0 60 00 00 00 00... add     r28, r28, r12
00011A00  10 ED E0 00 18 00 00 00... load.l  r29, KD_TASK_SIG_RECV(r28)
00011A08  31 EF E8 00 01 00 00 00... or      r29, r29, #SIGF_PORT
00011A10  11 ED E0 00 18 00 00 00... store.l r29, KD_TASK_SIG_RECV(r28)
00011A18  10 F1 E0 00 1C 00 00 00... load.b  r30, KD_TASK_STATE(r28)
00011A20  01 5D 00 00 02 00 00 00... move.l  r11, #TASK_WAITING
00011A28  42 06 F0 58 30 00 00 00... bne     r30, r11, .m16_mbe_done
00011A30  10 5D E0 00 14 00 00 00... load.l  r11, KD_TASK_SIG_WAIT(r28)
00011A38  30 5F 58 00 01 00 00 00... and     r11, r11, #SIGF_PORT
00011A40  41 06 58 00 18 00 00 00... beq r11, r0, .m16_mbe_done
00011A48  01 F1 00 00 00 00 00 00... move.b  r30, #TASK_READY
00011A50  11 F1 E0 00 1C 00 00 00... store.b r30, KD_TASK_STATE(r28)
                         .m16_mbe_done:
00011A58  01 0E A0 00 00 00 00 00... move.q  r1, r20
00011A60  51 00 00 00 00 00 00 00... rts
                         m16_module_has_pending_deadline:
00011A68  01 A5 00 00 00 00 00 00... move.l  r20, #0
                         .m16_mhpd_scan:
00011A70  01 5D 00 00 10 00 00 00... move.l  r11, #KD_MODULE_MAX
00011A78  44 06 A0 58 78 00 00 00... bge     r20, r11, .m16_mhpd_none
00011A80  01 0E A0 00 00 00 00 00... move.q  r1, r20
00011A88  52 06 A0 00 00 00 00 00... push    r20
00011A90  50 06 00 00 68 F7 FF FF... jsr     m16_module_row_addr_for_index
00011A98  01 AE 08 00 00 00 00 00... move.q  r21, r1
00011AA0  53 A6 00 00 00 00 00 00... pop     r20
00011AA8  10 5D A8 00 20 00 00 00... load.l  r11, KD_MODULE_STATE(r21)
00011AB0  01 75 00 00 04 00 00 00... move.l  r14, #M16_MODSTATE_EXPUNGING
00011AB8  42 06 58 70 18 00 00 00... bne     r11, r14, .m16_mhpd_next
00011AC0  10 5D A8 00 48 00 00 00... load.l  r11, KD_MODULE_DEADLINE_TICK(r21)
00011AC8  42 06 58 00 18 00 00 00... bne r11, r0, .m16_mhpd_yes
                         .m16_mhpd_next:
00011AD0  20 A7 A0 00 01 00 00 00... add     r20, r20, #1
00011AD8  40 06 00 00 98 FF FF FF... bra     .m16_mhpd_scan
                         .m16_mhpd_yes:
00011AE0  01 0F 00 00 01 00 00 00... move.q  r1, #1
00011AE8  51 00 00 00 00 00 00 00... rts
                         .m16_mhpd_none:
00011AF0  01 0F 00 00 00 00 00 00... move.q  r1, #0
00011AF8  51 00 00 00 00 00 00 00... rts
                         m16_waiter_row_addr_for_token:
00011B00  41 06 08 00 50 00 00 00... beq r1, r0, .m16_mwrat_bad
00011B08  21 0F 08 00 01 00 00 00... sub     r1, r1, #1
00011B10  01 15 00 00 10 00 00 00... move.l  r2, #KD_MODULE_WAITER_MAX
00011B18  44 06 08 10 38 00 00 00... bge     r1, r2, .m16_mwrat_bad
00011B20  01 15 00 00 18 00 00 00... move.l  r2, #KD_MODULE_WAITER_STRIDE
00011B28  22 16 08 10 00 00 00 00... mulu    r2, r1, r2
00011B30  01 1D 00 00 00 D0 08 00... move.l  r3, #KERN_DATA_BASE
00011B38  20 1F 18 00 68 0C 01 00... add     r3, r3, #KD_MODULE_WAITER_ROWS
00011B40  20 0E 18 10 00 00 00 00... add     r1, r3, r2
00011B48  51 00 00 00 00 00 00 00... rts
                         .m16_mwrat_bad:
00011B50  01 0F 00 00 00 00 00 00... move.q  r1, #0
00011B58  51 00 00 00 00 00 00 00... rts
                         m16_waiter_alloc:
00011B60  01 A6 08 00 00 00 00 00... move.q  r20, r1
00011B68  01 AE 10 00 00 00 00 00... move.q  r21, r2
00011B70  01 B6 18 00 00 00 00 00... move.q  r22, r3
00011B78  01 BE 20 00 00 00 00 00... move.q  r23, r4
00011B80  01 C6 28 00 00 00 00 00... move.q  r24, r5
00011B88  01 2D 00 00 00 00 00 00... move.l  r5, #0
00011B90  01 35 00 00 00 D0 08 00... move.l  r6, #KERN_DATA_BASE
00011B98  20 37 30 00 68 0C 01 00... add     r6, r6, #KD_MODULE_WAITER_ROWS
                         .m16_mwa_scan:
00011BA0  01 3D 00 00 10 00 00 00... move.l  r7, #KD_MODULE_WAITER_MAX
00011BA8  44 06 28 38 80 00 00 00... bge     r5, r7, .m16_mwa_full
00011BB0  10 3D 30 00 08 00 00 00... load.l  r7, KD_MODULE_WAITER_OUTCOME(r6)
00011BB8  41 06 38 00 20 00 00 00... beq r7, r0, .m16_mwa_alloc
00011BC0  20 37 30 00 18 00 00 00... add     r6, r6, #KD_MODULE_WAITER_STRIDE
00011BC8  20 2F 28 00 01 00 00 00... add     r5, r5, #1
00011BD0  40 06 00 00 D0 FF FF FF... bra     .m16_mwa_scan
                         .m16_mwa_alloc:
00011BD8  11 A4 30 00 00 00 00 00... store.l r20, KD_MODULE_WAITER_TASK(r6)
00011BE0  11 AB 30 00 04 00 00 00... store.w r21, KD_MODULE_WAITER_MINVER(r6)
00011BE8  11 B3 30 00 06 00 00 00... store.w r22, KD_MODULE_WAITER_SIGBIT(r6)
00011BF0  11 BD 30 00 08 00 00 00... store.l r23, KD_MODULE_WAITER_OUTCOME(r6)
00011BF8  11 C5 30 00 0C 00 00 00... store.l r24, KD_MODULE_WAITER_AUX(r6)
00011C00  11 07 30 00 10 00 00 00... store.q r0, KD_MODULE_WAITER_NEXT(r6)
00011C08  01 0E 30 00 00 00 00 00... move.q  r1, r6
00011C10  20 2F 28 00 01 00 00 00... add     r5, r5, #1
00011C18  01 16 28 00 00 00 00 00... move.q  r2, r5
00011C20  51 00 00 00 00 00 00 00... rts
                         .m16_mwa_full:
00011C28  01 0F 00 00 00 00 00 00... move.q  r1, #0
00011C30  01 17 00 00 00 00 00 00... move.q  r2, #0
00011C38  51 00 00 00 00 00 00 00... rts
                         m16_waiter_free:
00011C40  11 04 08 00 00 00 00 00... store.l r0, KD_MODULE_WAITER_TASK(r1)
00011C48  11 03 08 00 04 00 00 00... store.w r0, KD_MODULE_WAITER_MINVER(r1)
00011C50  11 03 08 00 06 00 00 00... store.w r0, KD_MODULE_WAITER_SIGBIT(r1)
00011C58  11 05 08 00 08 00 00 00... store.l r0, KD_MODULE_WAITER_OUTCOME(r1)
00011C60  11 05 08 00 0C 00 00 00... store.l r0, KD_MODULE_WAITER_AUX(r1)
00011C68  11 07 08 00 10 00 00 00... store.q r0, KD_MODULE_WAITER_NEXT(r1)
00011C70  51 00 00 00 00 00 00 00... rts
                         m16_waiter_enqueue_on_row:
00011C78  01 A6 08 00 00 00 00 00... move.q  r20, r1
00011C80  01 C6 10 00 00 00 00 00... move.q  r24, r2
00011C88  52 06 A0 00 00 00 00 00... push    r20
00011C90  01 0E 18 00 00 00 00 00... move.q  r1, r3
00011C98  01 16 20 00 00 00 00 00... move.q  r2, r4
00011CA0  01 1E 28 00 00 00 00 00... move.q  r3, r5
00011CA8  01 26 30 00 00 00 00 00... move.q  r4, r6
00011CB0  01 2E C0 00 00 00 00 00... move.q  r5, r24
00011CB8  50 06 00 00 A8 FE FF FF... jsr     m16_waiter_alloc
00011CC0  53 A6 00 00 00 00 00 00... pop     r20
00011CC8  41 06 08 00 40 00 00 00... beq r1, r0, .m16_mweor_done
00011CD0  01 AE 08 00 00 00 00 00... move.q  r21, r1
00011CD8  01 B6 10 00 00 00 00 00... move.q  r22, r2
00011CE0  20 0F A0 00 40 00 00 00... add     r1, r20, #KD_MODULE_WAITERS_HEAD
00011CE8  01 16 B0 00 00 00 00 00... move.q  r2, r22
00011CF0  20 1F A8 00 10 00 00 00... add     r3, r21, #KD_MODULE_WAITER_NEXT
00011CF8  50 06 00 00 68 F4 FF FF... jsr     m16_atomic_list_push_head
00011D00  01 0E A8 00 00 00 00 00... move.q  r1, r21
                         .m16_mweor_done:
00011D08  51 00 00 00 00 00 00 00... rts
                         m16_signal_task_slot_mask:
00011D10  01 65 00 00 00 D0 08 00... move.l  r12, #KERN_DATA_BASE
00011D18  34 7F 08 00 05 00 00 00... lsl     r15, r1, #5
00011D20  20 7F 78 00 40 00 00 00... add     r15, r15, #KD_TASK_BASE
00011D28  20 7E 78 60 00 00 00 00... add     r15, r15, r12
00011D30  10 A5 78 00 18 00 00 00... load.l  r20, KD_TASK_SIG_RECV(r15)
00011D38  31 A6 A0 10 00 00 00 00... or      r20, r20, r2
00011D40  11 A5 78 00 18 00 00 00... store.l r20, KD_TASK_SIG_RECV(r15)
00011D48  10 A9 78 00 1C 00 00 00... load.b  r21, KD_TASK_STATE(r15)
00011D50  01 B5 00 00 02 00 00 00... move.l  r22, #TASK_WAITING
00011D58  42 06 A8 B0 30 00 00 00... bne     r21, r22, .m16_mstsm_done
00011D60  10 BD 78 00 14 00 00 00... load.l  r23, KD_TASK_SIG_WAIT(r15)
00011D68  30 C6 A0 B8 00 00 00 00... and     r24, r20, r23
00011D70  41 06 C0 00 18 00 00 00... beq r24, r0, .m16_mstsm_done
00011D78  01 A9 00 00 00 00 00 00... move.b  r21, #TASK_READY
00011D80  11 A9 78 00 1C 00 00 00... store.b r21, KD_TASK_STATE(r15)
                         .m16_mstsm_done:
00011D88  51 00 00 00 00 00 00 00... rts
                         m16_waiter_publish_result:
00011D90  01 A6 08 00 00 00 00 00... move.q  r20, r1
00011D98  01 AE 10 00 00 00 00 00... move.q  r21, r2
00011DA0  01 B6 18 00 00 00 00 00... move.q  r22, r3
00011DA8  01 BE 20 00 00 00 00 00... move.q  r23, r4
00011DB0  10 0C A0 00 00 00 00 00... load.l  r1, KD_MODULE_WAITER_TASK(r20)
00011DB8  50 06 00 00 20 03 FF FF... jsr     kern_find_slot_for_public_id
00011DC0  41 06 10 00 28 01 00 00... beq r2, r0, .m16_mwpr_dead
00011DC8  01 C6 08 00 00 00 00 00... move.q  r24, r1
00011DD0  01 0E C0 00 00 00 00 00... move.q  r1, r24
00011DD8  52 06 A0 00 00 00 00 00... push    r20
00011DE0  52 06 C0 00 00 00 00 00... push    r24
00011DE8  50 06 00 00 68 02 FF FF... jsr     kern_task_layout_addr
00011DF0  01 CE 08 00 00 00 00 00... move.q  r25, r1
00011DF8  10 D7 C8 00 30 00 00 00... load.q  r26, KD_TASK_LAYOUT_PT_BASE(r25)
00011E00  10 DD A0 00 08 00 00 00... load.l  r27, KD_MODULE_WAITER_OUTCOME(r20)
00011E08  01 0E D8 00 00 00 00 00... move.q  r1, r27
00011E10  01 17 00 00 10 00 00 00... move.q  r2, #16
00011E18  01 1E D0 00 00 00 00 00... move.q  r3, r26
00011E20  50 06 00 00 90 EB FF FF... jsr     validate_user_write_range
00011E28  42 06 08 00 B0 00 00 00... bne r1, r0, .m16_mwpr_dead_pop
00011E30  E7 E0 00 00 00 00 00 00... mfcr    r28, cr0
00011E38  E6 00 D0 00 00 00 00 00... mtcr    cr0, r26
00011E40  E9 00 00 00 00 00 00 00... tlbflush
00011E48  F3 00 00 00 00 00 00 00... suaen
00011E50  11 AC D8 00 00 00 00 00... store.l r21, 0(r27)
00011E58  11 B5 D8 00 04 00 00 00... store.l r22, 4(r27)
00011E60  11 BD D8 00 08 00 00 00... store.l r23, 8(r27)
00011E68  11 05 D8 00 0C 00 00 00... store.l r0, 12(r27)
00011E70  F4 00 00 00 00 00 00 00... suadis
00011E78  E6 00 E0 00 00 00 00 00... mtcr    cr0, r28
00011E80  E9 00 00 00 00 00 00 00... tlbflush
00011E88  53 C6 00 00 00 00 00 00... pop     r24
00011E90  53 A6 00 00 00 00 00 00... pop     r20
00011E98  10 E3 A0 00 06 00 00 00... load.w  r28, KD_MODULE_WAITER_SIGBIT(r20)
00011EA0  30 E7 E0 00 FF FF 00 00... and     r28, r28, #0xFFFF
00011EA8  01 17 00 00 01 00 00 00... move.q  r2, #1
00011EB0  34 16 10 E0 00 00 00 00... lsl     r2, r2, r28
00011EB8  01 0E C0 00 00 00 00 00... move.q  r1, r24
00011EC0  50 06 00 00 50 FE FF FF... jsr     m16_signal_task_slot_mask
00011EC8  01 0F 00 00 01 00 00 00... move.q  r1, #1
00011ED0  51 00 00 00 00 00 00 00... rts
                         .m16_mwpr_dead_pop:
00011ED8  53 C6 00 00 00 00 00 00... pop     r24
00011EE0  53 A6 00 00 00 00 00 00... pop     r20
                         .m16_mwpr_dead:
00011EE8  01 0F 00 00 00 00 00 00... move.q  r1, #0
00011EF0  51 00 00 00 00 00 00 00... rts
                         m16_openlibex_validate_waiter_args:
00011EF8  01 0F 00 00 01 00 00 00... move.q  r1, #1
00011F00  01 5D 00 00 10 00 00 00... move.l  r11, #16
00011F08  43 06 C8 58 B8 00 00 00... blt     r25, r11, .m16_olva_done
00011F10  01 5D 00 00 20 00 00 00... move.l  r11, #32
00011F18  44 06 C8 58 A8 00 00 00... bge     r25, r11, .m16_olva_done
00011F20  41 06 D0 00 A0 00 00 00... beq r26, r0, .m16_olva_done
00011F28  01 65 00 00 00 D0 08 00... move.l  r12, #KERN_DATA_BASE
00011F30  10 6E 60 00 00 00 00 00... load.q  r13, (r12)
00011F38  34 DF 68 00 05 00 00 00... lsl     r27, r13, #5
00011F40  20 DF D8 00 40 00 00 00... add     r27, r27, #KD_TASK_BASE
00011F48  20 DE D8 60 00 00 00 00... add     r27, r27, r12
00011F50  10 BD D8 00 10 00 00 00... load.l  r23, KD_TASK_SIG_ALLOC(r27)
00011F58  01 E7 00 00 01 00 00 00... move.q  r28, #1
00011F60  34 E6 E0 C8 00 00 00 00... lsl     r28, r28, r25
00011F68  30 BE B8 E0 00 00 00 00... and     r23, r23, r28
00011F70  41 06 B8 00 50 00 00 00... beq r23, r0, .m16_olva_done
00011F78  34 DF 68 00 03 00 00 00... lsl     r27, r13, #3
00011F80  20 DF D8 00 20 20 00 00... add     r27, r27, #KD_PTBR_BASE
00011F88  20 DE D8 60 00 00 00 00... add     r27, r27, r12
00011F90  10 1E D8 00 00 00 00 00... load.q  r3, (r27)
00011F98  01 0E D0 00 00 00 00 00... move.q  r1, r26
00011FA0  01 15 00 00 10 00 00 00... move.l  r2, #16
00011FA8  50 06 00 00 08 EA FF FF... jsr     validate_user_write_range
00011FB0  42 06 08 00 10 00 00 00... bne r1, r0, .m16_olva_done
00011FB8  01 0F 00 00 00 00 00 00... move.q  r1, #0
                         .m16_olva_done:
00011FC0  51 00 00 00 00 00 00 00... rts
                         m16_module_complete_waiters_online:
00011FC8  01 A6 08 00 00 00 00 00... move.q  r20, r1
00011FD0  01 AE 10 00 00 00 00 00... move.q  r21, r2
00011FD8  30 AF A8 00 FF FF FF FF... and     r21, r21, #0xFFFFFFFF
00011FE0  11 05 A0 00 38 00 00 00... store.l r0, KD_MODULE_OPEN_COUNT(r20)
00011FE8  20 0F A0 00 40 00 00 00... add     r1, r20, #KD_MODULE_WAITERS_HEAD
00011FF0  52 06 A0 00 00 00 00 00... push    r20
00011FF8  52 06 A8 00 00 00 00 00... push    r21
00012000  50 06 00 00 98 F1 FF FF... jsr     m16_atomic_list_detach_all
00012008  53 AE 00 00 00 00 00 00... pop     r21
00012010  53 A6 00 00 00 00 00 00... pop     r20
00012018  01 C5 00 00 00 00 00 00... move.l  r24, #0
00012020  01 9D 00 00 00 D0 08 00... move.l  r19, #KERN_DATA_BASE
00012028  20 9F 98 00 68 0C 01 00... add     r19, r19, #KD_MODULE_WAITER_ROWS
                         .m16_mcwo_loop:
00012030  01 F7 00 00 10 00 00 00... move.q  r30, #KD_MODULE_WAITER_MAX
00012038  44 06 C0 F0 40 04 00 00... bge     r24, r30, .m16_mcwo_done
00012040  01 CE 98 00 00 00 00 00... move.q  r25, r19
00012048  10 F5 C8 00 08 00 00 00... load.l  r30, KD_MODULE_WAITER_OUTCOME(r25)
00012050  41 06 F0 00 10 04 00 00... beq r30, r0, .m16_mcwo_next
00012058  10 F5 C8 00 0C 00 00 00... load.l  r30, KD_MODULE_WAITER_AUX(r25)
00012060  30 F7 F0 00 FF FF FF FF... and     r30, r30, #0xFFFFFFFF
00012068  42 06 F0 A8 F8 03 00 00... bne     r30, r21, .m16_mcwo_next
00012070  10 D4 C8 00 00 00 00 00... load.l  r26, KD_MODULE_WAITER_TASK(r25)
00012078  01 0E D0 00 00 00 00 00... move.q  r1, r26
00012080  52 06 98 00 00 00 00 00... push    r19
00012088  52 06 C0 00 00 00 00 00... push    r24
00012090  52 06 A0 00 00 00 00 00... push    r20
00012098  52 06 A8 00 00 00 00 00... push    r21
000120A0  52 06 C8 00 00 00 00 00... push    r25
000120A8  50 06 00 00 30 00 FF FF... jsr     kern_find_slot_for_public_id
000120B0  53 CE 00 00 00 00 00 00... pop     r25
000120B8  53 AE 00 00 00 00 00 00... pop     r21
000120C0  53 A6 00 00 00 00 00 00... pop     r20
000120C8  53 C6 00 00 00 00 00 00... pop     r24
000120D0  53 9E 00 00 00 00 00 00... pop     r19
000120D8  41 06 10 00 30 03 00 00... beq r2, r0, .m16_mcwo_free
000120E0  01 DE 08 00 00 00 00 00... move.q  r27, r1
000120E8  10 E3 A0 00 28 00 00 00... load.w  r28, KD_MODULE_VERSION(r20)
000120F0  30 E7 E0 00 FF FF 00 00... and     r28, r28, #0xFFFF
000120F8  10 BB C8 00 04 00 00 00... load.w  r23, KD_MODULE_WAITER_MINVER(r25)
00012100  30 BF B8 00 FF FF 00 00... and     r23, r23, #0xFFFF
00012108  43 06 E0 B8 08 02 00 00... blt     r28, r23, .m16_mcwo_version
00012110  10 BD A0 00 24 00 00 00... load.l  r23, KD_MODULE_GENERATION(r20)
00012118  01 0E D0 00 00 00 00 00... move.q  r1, r26
00012120  01 16 A8 00 00 00 00 00... move.q  r2, r21
00012128  01 1E B8 00 00 00 00 00... move.q  r3, r23
00012130  52 06 98 00 00 00 00 00... push    r19
00012138  52 06 C0 00 00 00 00 00... push    r24
00012140  52 06 A0 00 00 00 00 00... push    r20
00012148  52 06 A8 00 00 00 00 00... push    r21
00012150  52 06 C8 00 00 00 00 00... push    r25
00012158  52 06 D0 00 00 00 00 00... push    r26
00012160  52 06 E0 00 00 00 00 00... push    r28
00012168  52 06 B8 00 00 00 00 00... push    r23
00012170  50 06 00 00 28 07 00 00... jsr     m16_open_row_find_or_alloc
00012178  01 F6 08 00 00 00 00 00... move.q  r30, r1
00012180  53 BE 00 00 00 00 00 00... pop     r23
00012188  53 E6 00 00 00 00 00 00... pop     r28
00012190  53 D6 00 00 00 00 00 00... pop     r26
00012198  53 CE 00 00 00 00 00 00... pop     r25
000121A0  53 AE 00 00 00 00 00 00... pop     r21
000121A8  53 A6 00 00 00 00 00 00... pop     r20
000121B0  53 C6 00 00 00 00 00 00... pop     r24
000121B8  53 9E 00 00 00 00 00 00... pop     r19
000121C0  41 06 F0 00 D0 01 00 00... beq r30, r0, .m16_mcwo_full
000121C8  10 85 F0 00 0C 00 00 00... load.l  r16, KD_MODULE_OPEN_ROW_COUNT(r30)
000121D0  20 87 80 00 01 00 00 00... add     r16, r16, #1
000121D8  11 85 F0 00 0C 00 00 00... store.l r16, KD_MODULE_OPEN_ROW_COUNT(r30)
000121E0  10 85 A0 00 38 00 00 00... load.l  r16, KD_MODULE_OPEN_COUNT(r20)
000121E8  20 87 80 00 01 00 00 00... add     r16, r16, #1
000121F0  11 85 A0 00 38 00 00 00... store.l r16, KD_MODULE_OPEN_COUNT(r20)
000121F8  01 0E A8 00 00 00 00 00... move.q  r1, r21
00012200  01 16 B8 00 00 00 00 00... move.q  r2, r23
00012208  52 06 98 00 00 00 00 00... push    r19
00012210  52 06 C0 00 00 00 00 00... push    r24
00012218  52 06 A0 00 00 00 00 00... push    r20
00012220  52 06 A8 00 00 00 00 00... push    r21
00012228  52 06 B8 00 00 00 00 00... push    r23
00012230  52 06 C8 00 00 00 00 00... push    r25
00012238  52 06 D0 00 00 00 00 00... push    r26
00012240  52 06 E0 00 00 00 00 00... push    r28
00012248  50 06 00 00 60 14 00 00... jsr     m16_make_library_token
00012250  53 E6 00 00 00 00 00 00... pop     r28
00012258  53 D6 00 00 00 00 00 00... pop     r26
00012260  53 CE 00 00 00 00 00 00... pop     r25
00012268  53 BE 00 00 00 00 00 00... pop     r23
00012270  53 AE 00 00 00 00 00 00... pop     r21
00012278  53 A6 00 00 00 00 00 00... pop     r20
00012280  53 C6 00 00 00 00 00 00... pop     r24
00012288  53 9E 00 00 00 00 00 00... pop     r19
00012290  01 1E 08 00 00 00 00 00... move.q  r3, r1
00012298  52 06 98 00 00 00 00 00... push    r19
000122A0  52 06 C0 00 00 00 00 00... push    r24
000122A8  52 06 C8 00 00 00 00 00... push    r25
000122B0  52 06 A8 00 00 00 00 00... push    r21
000122B8  52 06 A0 00 00 00 00 00... push    r20
000122C0  01 0E C8 00 00 00 00 00... move.q  r1, r25
000122C8  01 17 00 00 00 00 00 00... move.q  r2, #ERR_OK
000122D0  01 26 E0 00 00 00 00 00... move.q  r4, r28
000122D8  50 06 00 00 B8 FA FF FF... jsr     m16_waiter_publish_result
000122E0  53 A6 00 00 00 00 00 00... pop     r20
000122E8  53 AE 00 00 00 00 00 00... pop     r21
000122F0  53 CE 00 00 00 00 00 00... pop     r25
000122F8  53 C6 00 00 00 00 00 00... pop     r24
00012300  53 9E 00 00 00 00 00 00... pop     r19
00012308  40 06 00 00 00 01 00 00... bra     .m16_mcwo_free
                         .m16_mcwo_version:
00012310  52 06 98 00 00 00 00 00... push    r19
00012318  52 06 C0 00 00 00 00 00... push    r24
00012320  52 06 C8 00 00 00 00 00... push    r25
00012328  52 06 A8 00 00 00 00 00... push    r21
00012330  52 06 A0 00 00 00 00 00... push    r20
00012338  01 0E C8 00 00 00 00 00... move.q  r1, r25
00012340  01 17 00 00 0B 00 00 00... move.q  r2, #ERR_LIB_VERSION
00012348  01 1F 00 00 00 00 00 00... move.q  r3, #0
00012350  01 26 E0 00 00 00 00 00... move.q  r4, r28
00012358  50 06 00 00 38 FA FF FF... jsr     m16_waiter_publish_result
00012360  53 A6 00 00 00 00 00 00... pop     r20
00012368  53 AE 00 00 00 00 00 00... pop     r21
00012370  53 CE 00 00 00 00 00 00... pop     r25
00012378  53 C6 00 00 00 00 00 00... pop     r24
00012380  53 9E 00 00 00 00 00 00... pop     r19
00012388  40 06 00 00 80 00 00 00... bra     .m16_mcwo_free
                         .m16_mcwo_full:
00012390  52 06 98 00 00 00 00 00... push    r19
00012398  52 06 C0 00 00 00 00 00... push    r24
000123A0  52 06 C8 00 00 00 00 00... push    r25
000123A8  52 06 A8 00 00 00 00 00... push    r21
000123B0  52 06 A0 00 00 00 00 00... push    r20
000123B8  01 0E C8 00 00 00 00 00... move.q  r1, r25
000123C0  01 17 00 00 09 00 00 00... move.q  r2, #ERR_FULL
000123C8  01 1F 00 00 00 00 00 00... move.q  r3, #0
000123D0  01 26 E0 00 00 00 00 00... move.q  r4, r28
000123D8  50 06 00 00 B8 F9 FF FF... jsr     m16_waiter_publish_result
000123E0  53 A6 00 00 00 00 00 00... pop     r20
000123E8  53 AE 00 00 00 00 00 00... pop     r21
000123F0  53 CE 00 00 00 00 00 00... pop     r25
000123F8  53 C6 00 00 00 00 00 00... pop     r24
00012400  53 9E 00 00 00 00 00 00... pop     r19
                         .m16_mcwo_free:
00012408  01 0E C8 00 00 00 00 00... move.q  r1, r25
00012410  52 06 98 00 00 00 00 00... push    r19
00012418  52 06 C0 00 00 00 00 00... push    r24
00012420  52 06 A0 00 00 00 00 00... push    r20
00012428  52 06 C8 00 00 00 00 00... push    r25
00012430  50 06 00 00 10 F8 FF FF... jsr     m16_waiter_free
00012438  53 CE 00 00 00 00 00 00... pop     r25
00012440  53 A6 00 00 00 00 00 00... pop     r20
00012448  53 C6 00 00 00 00 00 00... pop     r24
00012450  53 9E 00 00 00 00 00 00... pop     r19
00012458  40 06 00 00 08 00 00 00... bra     .m16_mcwo_next
                         .m16_mcwo_next:
00012460  20 9F 98 00 18 00 00 00... add     r19, r19, #KD_MODULE_WAITER_STRIDE
00012468  20 C7 C0 00 01 00 00 00... add     r24, r24, #1
00012470  40 06 00 00 C0 FB FF FF... bra     .m16_mcwo_loop
                         .m16_mcwo_done:
00012478  11 07 A0 00 40 00 00 00... store.q r0, KD_MODULE_WAITERS_HEAD(r20)
00012480  10 0D A0 00 38 00 00 00... load.l  r1, KD_MODULE_OPEN_COUNT(r20)
00012488  51 00 00 00 00 00 00 00... rts
                         m16_module_complete_waiters_error:
00012490  01 A6 08 00 00 00 00 00... move.q  r20, r1
00012498  01 AE 10 00 00 00 00 00... move.q  r21, r2
000124A0  01 B6 18 00 00 00 00 00... move.q  r22, r3
000124A8  30 AF A8 00 FF FF FF FF... and     r21, r21, #0xFFFFFFFF
000124B0  20 0F A0 00 40 00 00 00... add     r1, r20, #KD_MODULE_WAITERS_HEAD
000124B8  52 06 A0 00 00 00 00 00... push    r20
000124C0  52 06 A8 00 00 00 00 00... push    r21
000124C8  52 06 B0 00 00 00 00 00... push    r22
000124D0  50 06 00 00 C8 EC FF FF... jsr     m16_atomic_list_detach_all
000124D8  53 B6 00 00 00 00 00 00... pop     r22
000124E0  53 AE 00 00 00 00 00 00... pop     r21
000124E8  53 A6 00 00 00 00 00 00... pop     r20
000124F0  01 C7 00 00 00 00 00 00... move.q  r24, #0
000124F8  01 9D 00 00 00 D0 08 00... move.l  r19, #KERN_DATA_BASE
00012500  20 9F 98 00 68 0C 01 00... add     r19, r19, #KD_MODULE_WAITER_ROWS
                         .m16_mcwe_loop:
00012508  01 F7 00 00 10 00 00 00... move.q  r30, #KD_MODULE_WAITER_MAX
00012510  44 06 C0 F0 F0 00 00 00... bge     r24, r30, .m16_mcwe_done
00012518  01 CE 98 00 00 00 00 00... move.q  r25, r19
00012520  10 F5 C8 00 08 00 00 00... load.l  r30, KD_MODULE_WAITER_OUTCOME(r25)
00012528  41 06 F0 00 C0 00 00 00... beq r30, r0, .m16_mcwe_next
00012530  10 F5 C8 00 0C 00 00 00... load.l  r30, KD_MODULE_WAITER_AUX(r25)
00012538  30 F7 F0 00 FF FF FF FF... and     r30, r30, #0xFFFFFFFF
00012540  42 06 F0 A8 A8 00 00 00... bne     r30, r21, .m16_mcwe_next
00012548  01 0E C8 00 00 00 00 00... move.q  r1, r25
00012550  01 16 B0 00 00 00 00 00... move.q  r2, r22
00012558  01 1F 00 00 00 00 00 00... move.q  r3, #0
00012560  01 27 00 00 00 00 00 00... move.q  r4, #0
00012568  52 06 A0 00 00 00 00 00... push    r20
00012570  52 06 A8 00 00 00 00 00... push    r21
00012578  52 06 B0 00 00 00 00 00... push    r22
00012580  52 06 C8 00 00 00 00 00... push    r25
00012588  50 06 00 00 08 F8 FF FF... jsr     m16_waiter_publish_result
00012590  53 CE 00 00 00 00 00 00... pop     r25
00012598  53 B6 00 00 00 00 00 00... pop     r22
000125A0  53 AE 00 00 00 00 00 00... pop     r21
000125A8  53 A6 00 00 00 00 00 00... pop     r20
000125B0  01 0E C8 00 00 00 00 00... move.q  r1, r25
000125B8  52 06 A0 00 00 00 00 00... push    r20
000125C0  52 06 C8 00 00 00 00 00... push    r25
000125C8  50 06 00 00 78 F6 FF FF... jsr     m16_waiter_free
000125D0  53 CE 00 00 00 00 00 00... pop     r25
000125D8  53 A6 00 00 00 00 00 00... pop     r20
000125E0  40 06 00 00 08 00 00 00... bra     .m16_mcwe_next
                         .m16_mcwe_next:
000125E8  20 9F 98 00 18 00 00 00... add     r19, r19, #KD_MODULE_WAITER_STRIDE
000125F0  20 C7 C0 00 01 00 00 00... add     r24, r24, #1
000125F8  40 06 00 00 10 FF FF FF... bra     .m16_mcwe_loop
                         .m16_mcwe_done:
00012600  11 07 A0 00 40 00 00 00... store.q r0, KD_MODULE_WAITERS_HEAD(r20)
00012608  51 00 00 00 00 00 00 00... rts
                         m16_module_fail_to_unloaded:
00012610  01 A6 08 00 00 00 00 00... move.q  r20, r1
00012618  01 AE 10 00 00 00 00 00... move.q  r21, r2
00012620  01 B6 18 00 00 00 00 00... move.q  r22, r3
00012628  01 5D 00 00 03 00 00 00... move.l  r11, #M16_MODSTATE_FAILED
00012630  11 5D A0 00 20 00 00 00... store.l r11, KD_MODULE_STATE(r20)
00012638  52 06 A0 00 00 00 00 00... push    r20
00012640  52 06 A8 00 00 00 00 00... push    r21
00012648  01 0E A0 00 00 00 00 00... move.q  r1, r20
00012650  01 16 A8 00 00 00 00 00... move.q  r2, r21
00012658  01 1E B0 00 00 00 00 00... move.q  r3, r22
00012660  50 06 00 00 30 FE FF FF... jsr     m16_module_complete_waiters_error
00012668  53 AE 00 00 00 00 00 00... pop     r21
00012670  53 A6 00 00 00 00 00 00... pop     r20
00012678  52 06 A0 00 00 00 00 00... push    r20
00012680  52 06 A8 00 00 00 00 00... push    r21
00012688  01 0E A8 00 00 00 00 00... move.q  r1, r21
00012690  50 06 00 00 90 00 00 00... jsr     m16_module_signal_openers_dead
00012698  53 AE 00 00 00 00 00 00... pop     r21
000126A0  53 A6 00 00 00 00 00 00... pop     r20
000126A8  11 03 A0 00 28 00 00 00... store.w r0, KD_MODULE_VERSION(r20)
000126B0  11 03 A0 00 2A 00 00 00... store.w r0, KD_MODULE_REVISION(r20)
000126B8  11 05 A0 00 30 00 00 00... store.l r0, KD_MODULE_OWNING_TASK(r20)
000126C0  11 05 A0 00 34 00 00 00... store.l r0, KD_MODULE_PUBLIC_PORT(r20)
000126C8  11 05 A0 00 38 00 00 00... store.l r0, KD_MODULE_OPEN_COUNT(r20)
000126D0  11 05 A0 00 3C 00 00 00... store.l r0, KD_MODULE_FLAGS(r20)
000126D8  11 07 A0 00 40 00 00 00... store.q r0, KD_MODULE_WAITERS_HEAD(r20)
000126E0  11 05 A0 00 48 00 00 00... store.l r0, KD_MODULE_DEADLINE_TICK(r20)
000126E8  01 0E A8 00 00 00 00 00... move.q  r1, r21
000126F0  52 06 A0 00 00 00 00 00... push    r20
000126F8  50 06 00 00 A0 02 00 00... jsr     m16_clear_open_rows_for_module
00012700  53 A6 00 00 00 00 00 00... pop     r20
00012708  11 05 A0 00 20 00 00 00... store.l r0, KD_MODULE_STATE(r20)
00012710  01 0E A0 00 00 00 00 00... move.q  r1, r20
00012718  51 00 00 00 00 00 00 00... rts
                         m16_module_signal_openers_dead:
00012720  01 A6 08 00 00 00 00 00... move.q  r20, r1
00012728  01 AD 00 00 00 00 00 00... move.l  r21, #0
00012730  01 B5 00 00 00 D0 08 00... move.l  r22, #KERN_DATA_BASE
00012738  20 B7 B0 00 E8 0D 01 00... add     r22, r22, #KD_MODULE_OPEN_ROWS
                         .m16_msod_scan:
00012740  01 BD 00 00 20 00 00 00... move.l  r23, #KD_MODULE_OPEN_ROW_MAX
00012748  44 06 A8 B8 A8 00 00 00... bge     r21, r23, .m16_msod_done
00012750  10 BD B0 00 0C 00 00 00... load.l  r23, KD_MODULE_OPEN_ROW_COUNT(r22)
00012758  41 06 B8 00 80 00 00 00... beq r23, r0, .m16_msod_next
00012760  10 C5 B0 00 04 00 00 00... load.l  r24, KD_MODULE_OPEN_ROW_INDEX(r22)
00012768  42 06 C0 A0 70 00 00 00... bne     r24, r20, .m16_msod_next
00012770  10 C4 B0 00 00 00 00 00... load.l  r24, KD_MODULE_OPEN_ROW_TASK(r22)
00012778  01 0E C0 00 00 00 00 00... move.q  r1, r24
00012780  52 06 A0 00 00 00 00 00... push    r20
00012788  52 06 A8 00 00 00 00 00... push    r21
00012790  52 06 B0 00 00 00 00 00... push    r22
00012798  50 06 00 00 40 F9 FE FF... jsr     kern_find_slot_for_public_id
000127A0  53 B6 00 00 00 00 00 00... pop     r22
000127A8  53 AE 00 00 00 00 00 00... pop     r21
000127B0  53 A6 00 00 00 00 00 00... pop     r20
000127B8  41 06 10 00 20 00 00 00... beq r2, r0, .m16_msod_next
000127C0  01 0E 08 00 00 00 00 00... move.q  r1, r1
000127C8  01 17 00 00 02 00 00 00... move.q  r2, #SIGF_MODDEAD
000127D0  50 06 00 00 40 F5 FF FF... jsr     m16_signal_task_slot_mask
                         .m16_msod_next:
000127D8  20 B7 B0 00 10 00 00 00... add     r22, r22, #KD_MODULE_OPEN_ROW_STRIDE
000127E0  20 AF A8 00 01 00 00 00... add     r21, r21, #1
000127E8  40 06 00 00 58 FF FF FF... bra     .m16_msod_scan
                         .m16_msod_done:
000127F0  51 00 00 00 00 00 00 00... rts
                         m16_open_row_find:
000127F8  01 25 00 00 00 00 00 00... move.l  r4, #0
00012800  01 2D 00 00 00 D0 08 00... move.l  r5, #KERN_DATA_BASE
00012808  20 2F 28 00 E8 0D 01 00... add     r5, r5, #KD_MODULE_OPEN_ROWS
                         .m16_orf_scan:
00012810  01 35 00 00 20 00 00 00... move.l  r6, #KD_MODULE_OPEN_ROW_MAX
00012818  44 06 20 30 70 00 00 00... bge     r4, r6, .m16_orf_none
00012820  10 35 28 00 0C 00 00 00... load.l  r6, KD_MODULE_OPEN_ROW_COUNT(r5)
00012828  41 06 30 00 48 00 00 00... beq r6, r0, .m16_orf_next
00012830  10 34 28 00 00 00 00 00... load.l  r6, KD_MODULE_OPEN_ROW_TASK(r5)
00012838  42 06 30 08 38 00 00 00... bne     r6, r1, .m16_orf_next
00012840  10 35 28 00 04 00 00 00... load.l  r6, KD_MODULE_OPEN_ROW_INDEX(r5)
00012848  42 06 30 10 28 00 00 00... bne     r6, r2, .m16_orf_next
00012850  10 35 28 00 08 00 00 00... load.l  r6, KD_MODULE_OPEN_ROW_GEN(r5)
00012858  42 06 30 18 18 00 00 00... bne     r6, r3, .m16_orf_next
00012860  01 0E 28 00 00 00 00 00... move.q  r1, r5
00012868  51 00 00 00 00 00 00 00... rts
                         .m16_orf_next:
00012870  20 2F 28 00 10 00 00 00... add     r5, r5, #KD_MODULE_OPEN_ROW_STRIDE
00012878  20 27 20 00 01 00 00 00... add     r4, r4, #1
00012880  40 06 00 00 90 FF FF FF... bra     .m16_orf_scan
                         .m16_orf_none:
00012888  01 0F 00 00 00 00 00 00... move.q  r1, #0
00012890  51 00 00 00 00 00 00 00... rts
                         m16_open_row_find_or_alloc:
00012898  52 06 08 00 00 00 00 00... push    r1
000128A0  52 06 10 00 00 00 00 00... push    r2
000128A8  52 06 18 00 00 00 00 00... push    r3
000128B0  50 06 00 00 48 FF FF FF... jsr     m16_open_row_find
000128B8  42 06 08 00 A0 00 00 00... bne r1, r0, .m16_orfoa_found
000128C0  53 1E 00 00 00 00 00 00... pop     r3
000128C8  53 16 00 00 00 00 00 00... pop     r2
000128D0  53 0E 00 00 00 00 00 00... pop     r1
000128D8  01 25 00 00 00 00 00 00... move.l  r4, #0
000128E0  01 2D 00 00 00 D0 08 00... move.l  r5, #KERN_DATA_BASE
000128E8  20 2F 28 00 E8 0D 01 00... add     r5, r5, #KD_MODULE_OPEN_ROWS
                         .m16_orfoa_scan:
000128F0  01 35 00 00 20 00 00 00... move.l  r6, #KD_MODULE_OPEN_ROW_MAX
000128F8  44 06 20 30 90 00 00 00... bge     r4, r6, .m16_orfoa_none
00012900  10 35 28 00 0C 00 00 00... load.l  r6, KD_MODULE_OPEN_ROW_COUNT(r5)
00012908  41 06 30 00 20 00 00 00... beq r6, r0, .m16_orfoa_alloc
00012910  20 2F 28 00 10 00 00 00... add     r5, r5, #KD_MODULE_OPEN_ROW_STRIDE
00012918  20 27 20 00 01 00 00 00... add     r4, r4, #1
00012920  40 06 00 00 D0 FF FF FF... bra     .m16_orfoa_scan
                         .m16_orfoa_alloc:
00012928  11 0C 28 00 00 00 00 00... store.l r1, KD_MODULE_OPEN_ROW_TASK(r5)
00012930  11 15 28 00 04 00 00 00... store.l r2, KD_MODULE_OPEN_ROW_INDEX(r5)
00012938  11 1D 28 00 08 00 00 00... store.l r3, KD_MODULE_OPEN_ROW_GEN(r5)
00012940  11 05 28 00 0C 00 00 00... store.l r0, KD_MODULE_OPEN_ROW_COUNT(r5)
00012948  01 0E 28 00 00 00 00 00... move.q  r1, r5
00012950  51 00 00 00 00 00 00 00... rts
                         .m16_orfoa_found:
00012958  01 26 08 00 00 00 00 00... move.q  r4, r1
00012960  53 1E 00 00 00 00 00 00... pop     r3
00012968  53 16 00 00 00 00 00 00... pop     r2
00012970  53 0E 00 00 00 00 00 00... pop     r1
00012978  01 0E 20 00 00 00 00 00... move.q  r1, r4
00012980  51 00 00 00 00 00 00 00... rts
                         .m16_orfoa_none:
00012988  01 0F 00 00 00 00 00 00... move.q  r1, #0
00012990  51 00 00 00 00 00 00 00... rts
                         m16_clear_open_rows_for_module:
00012998  01 16 08 00 00 00 00 00... move.q  r2, r1
000129A0  01 1D 00 00 00 00 00 00... move.l  r3, #0
000129A8  01 25 00 00 00 D0 08 00... move.l  r4, #KERN_DATA_BASE
000129B0  20 27 20 00 E8 0D 01 00... add     r4, r4, #KD_MODULE_OPEN_ROWS
                         .m16_corm_scan:
000129B8  01 2D 00 00 20 00 00 00... move.l  r5, #KD_MODULE_OPEN_ROW_MAX
000129C0  44 06 18 28 60 00 00 00... bge     r3, r5, .m16_corm_done
000129C8  10 2D 20 00 0C 00 00 00... load.l  r5, KD_MODULE_OPEN_ROW_COUNT(r4)
000129D0  41 06 28 00 38 00 00 00... beq r5, r0, .m16_corm_next
000129D8  10 2D 20 00 04 00 00 00... load.l  r5, KD_MODULE_OPEN_ROW_INDEX(r4)
000129E0  42 06 28 10 28 00 00 00... bne     r5, r2, .m16_corm_next
000129E8  11 04 20 00 00 00 00 00... store.l r0, KD_MODULE_OPEN_ROW_TASK(r4)
000129F0  11 05 20 00 04 00 00 00... store.l r0, KD_MODULE_OPEN_ROW_INDEX(r4)
000129F8  11 05 20 00 08 00 00 00... store.l r0, KD_MODULE_OPEN_ROW_GEN(r4)
00012A00  11 05 20 00 0C 00 00 00... store.l r0, KD_MODULE_OPEN_ROW_COUNT(r4)
                         .m16_corm_next:
00012A08  20 27 20 00 10 00 00 00... add     r4, r4, #KD_MODULE_OPEN_ROW_STRIDE
00012A10  20 1F 18 00 01 00 00 00... add     r3, r3, #1
00012A18  40 06 00 00 A0 FF FF FF... bra     .m16_corm_scan
                         .m16_corm_done:
00012A20  51 00 00 00 00 00 00 00... rts
                         m16_module_opener_exit_cleanup:
00012A28  01 A6 08 00 00 00 00 00... move.q  r20, r1
00012A30  01 15 00 00 00 00 00 00... move.l  r2, #0
00012A38  01 AD 00 00 00 D0 08 00... move.l  r21, #KERN_DATA_BASE
00012A40  20 AF A8 00 E8 0D 01 00... add     r21, r21, #KD_MODULE_OPEN_ROWS
                         .m16_mopec_scan:
00012A48  01 1D 00 00 20 00 00 00... move.l  r3, #KD_MODULE_OPEN_ROW_MAX
00012A50  44 06 10 18 38 01 00 00... bge     r2, r3, .m16_mopec_done
00012A58  10 1D A8 00 0C 00 00 00... load.l  r3, KD_MODULE_OPEN_ROW_COUNT(r21)
00012A60  41 06 18 00 10 01 00 00... beq r3, r0, .m16_mopec_next
00012A68  10 24 A8 00 00 00 00 00... load.l  r4, KD_MODULE_OPEN_ROW_TASK(r21)
00012A70  42 06 20 A0 00 01 00 00... bne     r4, r20, .m16_mopec_next
00012A78  10 2D A8 00 04 00 00 00... load.l  r5, KD_MODULE_OPEN_ROW_INDEX(r21)
00012A80  10 35 A8 00 08 00 00 00... load.l  r6, KD_MODULE_OPEN_ROW_GEN(r21)
00012A88  01 0E 28 00 00 00 00 00... move.q  r1, r5
00012A90  52 06 10 00 00 00 00 00... push    r2
00012A98  52 06 A0 00 00 00 00 00... push    r20
00012AA0  52 06 A8 00 00 00 00 00... push    r21
00012AA8  52 06 18 00 00 00 00 00... push    r3
00012AB0  52 06 28 00 00 00 00 00... push    r5
00012AB8  52 06 30 00 00 00 00 00... push    r6
00012AC0  50 06 00 00 38 E7 FF FF... jsr     m16_module_row_addr_for_index
00012AC8  01 B6 08 00 00 00 00 00... move.q  r22, r1
00012AD0  53 36 00 00 00 00 00 00... pop     r6
00012AD8  53 2E 00 00 00 00 00 00... pop     r5
00012AE0  53 1E 00 00 00 00 00 00... pop     r3
00012AE8  53 AE 00 00 00 00 00 00... pop     r21
00012AF0  53 A6 00 00 00 00 00 00... pop     r20
00012AF8  53 16 00 00 00 00 00 00... pop     r2
00012B00  41 06 B0 00 50 00 00 00... beq r22, r0, .m16_mopec_clear
00012B08  10 25 B0 00 24 00 00 00... load.l  r4, KD_MODULE_GENERATION(r22)
00012B10  42 06 20 30 40 00 00 00... bne     r4, r6, .m16_mopec_clear
00012B18  10 25 B0 00 38 00 00 00... load.l  r4, KD_MODULE_OPEN_COUNT(r22)
00012B20  41 06 20 00 30 00 00 00... beq r4, r0, .m16_mopec_clear
00012B28  45 06 18 20 20 00 00 00... bgt     r3, r4, .m16_mopec_zero_count
00012B30  21 26 20 18 00 00 00 00... sub     r4, r4, r3
00012B38  11 25 B0 00 38 00 00 00... store.l r4, KD_MODULE_OPEN_COUNT(r22)
00012B40  40 06 00 00 10 00 00 00... bra     .m16_mopec_clear
                         .m16_mopec_zero_count:
00012B48  11 05 B0 00 38 00 00 00... store.l r0, KD_MODULE_OPEN_COUNT(r22)
                         .m16_mopec_clear:
00012B50  11 04 A8 00 00 00 00 00... store.l r0, KD_MODULE_OPEN_ROW_TASK(r21)
00012B58  11 05 A8 00 04 00 00 00... store.l r0, KD_MODULE_OPEN_ROW_INDEX(r21)
00012B60  11 05 A8 00 08 00 00 00... store.l r0, KD_MODULE_OPEN_ROW_GEN(r21)
00012B68  11 05 A8 00 0C 00 00 00... store.l r0, KD_MODULE_OPEN_ROW_COUNT(r21)
                         .m16_mopec_next:
00012B70  20 AF A8 00 10 00 00 00... add     r21, r21, #KD_MODULE_OPEN_ROW_STRIDE
00012B78  20 17 10 00 01 00 00 00... add     r2, r2, #1
00012B80  40 06 00 00 C8 FE FF FF... bra     .m16_mopec_scan
                         .m16_mopec_done:
00012B88  51 00 00 00 00 00 00 00... rts
                         m16_module_owner_exit_cleanup:
00012B90  01 A6 08 00 00 00 00 00... move.q  r20, r1
00012B98  01 15 00 00 00 00 00 00... move.l  r2, #0
                         .m16_moec_scan:
00012BA0  01 B6 10 00 00 00 00 00... move.q  r22, r2
00012BA8  01 1D 00 00 10 00 00 00... move.l  r3, #KD_MODULE_MAX
00012BB0  44 06 10 18 08 01 00 00... bge     r2, r3, .m16_moec_done
00012BB8  01 0E 10 00 00 00 00 00... move.q  r1, r2
00012BC0  52 06 10 00 00 00 00 00... push    r2
00012BC8  50 06 00 00 30 E6 FF FF... jsr     m16_module_row_addr_for_index
00012BD0  53 16 00 00 00 00 00 00... pop     r2
00012BD8  01 AE 08 00 00 00 00 00... move.q  r21, r1
00012BE0  10 1D A8 00 20 00 00 00... load.l  r3, KD_MODULE_STATE(r21)
00012BE8  41 06 18 00 B8 00 00 00... beq r3, r0, .m16_moec_next
00012BF0  01 BE 18 00 00 00 00 00... move.q  r23, r3
00012BF8  10 1D A8 00 30 00 00 00... load.l  r3, KD_MODULE_OWNING_TASK(r21)
00012C00  42 06 18 A0 A0 00 00 00... bne     r3, r20, .m16_moec_next
00012C08  01 5D 00 00 01 00 00 00... move.l  r11, #M16_MODSTATE_LOADING
00012C10  41 06 B8 58 50 00 00 00... beq     r23, r11, .m16_moec_fail_loading
00012C18  01 0E A8 00 00 00 00 00... move.q  r1, r21
00012C20  01 16 B0 00 00 00 00 00... move.q  r2, r22
00012C28  01 1F 00 00 04 00 00 00... move.q  r3, #ERR_NOTFOUND
00012C30  52 06 B0 00 00 00 00 00... push    r22
00012C38  50 06 00 00 D8 F9 FF FF... jsr     m16_module_fail_to_unloaded
00012C40  01 AE 08 00 00 00 00 00... move.q  r21, r1
00012C48  53 B6 00 00 00 00 00 00... pop     r22
00012C50  11 05 A8 00 20 00 00 00... store.l r0, KD_MODULE_STATE(r21)
00012C58  40 06 00 00 48 00 00 00... bra     .m16_moec_next
                         .m16_moec_fail_loading:
00012C60  01 0E A8 00 00 00 00 00... move.q  r1, r21
00012C68  01 16 B0 00 00 00 00 00... move.q  r2, r22
00012C70  01 1F 00 00 04 00 00 00... move.q  r3, #ERR_NOTFOUND
00012C78  52 06 B0 00 00 00 00 00... push    r22
00012C80  50 06 00 00 90 F9 FF FF... jsr     m16_module_fail_to_unloaded
00012C88  01 AE 08 00 00 00 00 00... move.q  r21, r1
00012C90  53 B6 00 00 00 00 00 00... pop     r22
00012C98  11 05 A8 00 20 00 00 00... store.l r0, KD_MODULE_STATE(r21)
                         .m16_moec_next:
00012CA0  01 16 B0 00 00 00 00 00... move.q  r2, r22
00012CA8  20 17 10 00 01 00 00 00... add     r2, r2, #1
00012CB0  40 06 00 00 F0 FE FF FF... bra     .m16_moec_scan
                         .m16_moec_done:
00012CB8  50 06 00 00 18 00 00 00... jsr     m16_module_sweep_failed_rows
00012CC0  01 0E A0 00 00 00 00 00... move.q  r1, r20
00012CC8  51 00 00 00 00 00 00 00... rts
                         m16_module_sweep_failed_rows:
00012CD0  01 15 00 00 00 00 00 00... move.l  r2, #0
                         .m16_msfr_scan:
00012CD8  01 1D 00 00 10 00 00 00... move.l  r3, #KD_MODULE_MAX
00012CE0  44 06 10 18 D8 00 00 00... bge     r2, r3, .m16_msfr_done
00012CE8  01 0E 10 00 00 00 00 00... move.q  r1, r2
00012CF0  52 06 10 00 00 00 00 00... push    r2
00012CF8  50 06 00 00 00 E5 FF FF... jsr     m16_module_row_addr_for_index
00012D00  53 16 00 00 00 00 00 00... pop     r2
00012D08  01 AE 08 00 00 00 00 00... move.q  r21, r1
00012D10  10 1D A8 00 20 00 00 00... load.l  r3, KD_MODULE_STATE(r21)
00012D18  01 5D 00 00 03 00 00 00... move.l  r11, #M16_MODSTATE_FAILED
00012D20  42 06 18 58 88 00 00 00... bne     r3, r11, .m16_msfr_next
00012D28  11 03 A8 00 28 00 00 00... store.w r0, KD_MODULE_VERSION(r21)
00012D30  11 03 A8 00 2A 00 00 00... store.w r0, KD_MODULE_REVISION(r21)
00012D38  11 05 A8 00 2C 00 00 00... store.l r0, KD_MODULE_CLASS(r21)
00012D40  11 05 A8 00 30 00 00 00... store.l r0, KD_MODULE_OWNING_TASK(r21)
00012D48  11 05 A8 00 34 00 00 00... store.l r0, KD_MODULE_PUBLIC_PORT(r21)
00012D50  11 05 A8 00 38 00 00 00... store.l r0, KD_MODULE_OPEN_COUNT(r21)
00012D58  11 05 A8 00 3C 00 00 00... store.l r0, KD_MODULE_FLAGS(r21)
00012D60  11 07 A8 00 40 00 00 00... store.q r0, KD_MODULE_WAITERS_HEAD(r21)
00012D68  11 05 A8 00 48 00 00 00... store.l r0, KD_MODULE_DEADLINE_TICK(r21)
00012D70  01 0E 10 00 00 00 00 00... move.q  r1, r2
00012D78  52 06 10 00 00 00 00 00... push    r2
00012D80  52 06 A8 00 00 00 00 00... push    r21
00012D88  50 06 00 00 10 FC FF FF... jsr     m16_clear_open_rows_for_module
00012D90  53 AE 00 00 00 00 00 00... pop     r21
00012D98  53 16 00 00 00 00 00 00... pop     r2
00012DA0  11 05 A8 00 20 00 00 00... store.l r0, KD_MODULE_STATE(r21)
                         .m16_msfr_next:
00012DA8  20 17 10 00 01 00 00 00... add     r2, r2, #1
00012DB0  40 06 00 00 28 FF FF FF... bra     .m16_msfr_scan
                         .m16_msfr_done:
00012DB8  51 00 00 00 00 00 00 00... rts
                         m162_hwres_current_generation_check:
00012DC0  50 06 00 00 F0 F2 FE FF... jsr     kern_current_public_task_id
00012DC8  01 A6 08 00 00 00 00 00... move.q  r20, r1
00012DD0  01 AD 00 00 00 00 00 00... move.l  r21, #0
00012DD8  01 BD 00 00 00 00 00 00... move.l  r23, #0
                         .m162_hwcg_scan:
00012DE0  01 5D 00 00 10 00 00 00... move.l  r11, #KD_MODULE_MAX
00012DE8  44 06 A8 58 A8 00 00 00... bge     r21, r11, .m162_hwcg_no
00012DF0  01 0E A8 00 00 00 00 00... move.q  r1, r21
00012DF8  52 06 A0 00 00 00 00 00... push    r20
00012E00  52 06 A8 00 00 00 00 00... push    r21
00012E08  50 06 00 00 F0 E3 FF FF... jsr     m16_module_row_addr_for_index
00012E10  01 B6 08 00 00 00 00 00... move.q  r22, r1
00012E18  53 AE 00 00 00 00 00 00... pop     r21
00012E20  53 A6 00 00 00 00 00 00... pop     r20
00012E28  10 5D B0 00 2C 00 00 00... load.l  r11, KD_MODULE_CLASS(r22)
00012E30  01 75 00 00 04 00 00 00... move.l  r14, #MODCLASS_RESOURCE
00012E38  42 06 58 70 48 00 00 00... bne     r11, r14, .m162_hwcg_next
00012E40  01 BD 00 00 01 00 00 00... move.l  r23, #1
00012E48  10 5D B0 00 20 00 00 00... load.l  r11, KD_MODULE_STATE(r22)
00012E50  01 75 00 00 02 00 00 00... move.l  r14, #M16_MODSTATE_ONLINE
00012E58  42 06 58 70 28 00 00 00... bne     r11, r14, .m162_hwcg_next
00012E60  10 5D B0 00 30 00 00 00... load.l  r11, KD_MODULE_OWNING_TASK(r22)
00012E68  42 06 58 A0 18 00 00 00... bne     r11, r20, .m162_hwcg_next
00012E70  01 0F 00 00 01 00 00 00... move.q  r1, #1
00012E78  51 00 00 00 00 00 00 00... rts
                         .m162_hwcg_next:
00012E80  20 AF A8 00 01 00 00 00... add     r21, r21, #1
00012E88  40 06 00 00 58 FF FF FF... bra     .m162_hwcg_scan
                         .m162_hwcg_no:
00012E90  41 06 B8 00 18 00 00 00... beq r23, r0, .m162_hwcg_legacy_ok
00012E98  01 0F 00 00 00 00 00 00... move.q  r1, #0
00012EA0  51 00 00 00 00 00 00 00... rts
                         .m162_hwcg_legacy_ok:
00012EA8  01 0F 00 00 01 00 00 00... move.q  r1, #1
00012EB0  51 00 00 00 00 00 00 00... rts
                         m16_module_timeout_scan:
00012EB8  01 A5 00 00 00 D0 08 00... move.l  r20, #KERN_DATA_BASE
00012EC0  10 C7 A0 00 08 00 00 00... load.q  r24, KD_TICK_COUNT(r20)
00012EC8  01 AD 00 00 00 00 00 00... move.l  r21, #0
                         .m16_mts_scan:
00012ED0  01 5D 00 00 10 00 00 00... move.l  r11, #KD_MODULE_MAX
00012ED8  44 06 A8 58 B8 01 00 00... bge     r21, r11, .m16_mts_done
00012EE0  01 0E A8 00 00 00 00 00... move.q  r1, r21
00012EE8  52 06 A0 00 00 00 00 00... push    r20
00012EF0  52 06 A8 00 00 00 00 00... push    r21
00012EF8  52 06 C0 00 00 00 00 00... push    r24
00012F00  50 06 00 00 F8 E2 FF FF... jsr     m16_module_row_addr_for_index
00012F08  01 B6 08 00 00 00 00 00... move.q  r22, r1
00012F10  53 C6 00 00 00 00 00 00... pop     r24
00012F18  53 AE 00 00 00 00 00 00... pop     r21
00012F20  53 A6 00 00 00 00 00 00... pop     r20
00012F28  10 5D B0 00 20 00 00 00... load.l  r11, KD_MODULE_STATE(r22)
00012F30  01 75 00 00 04 00 00 00... move.l  r14, #M16_MODSTATE_EXPUNGING
00012F38  42 06 58 70 48 01 00 00... bne     r11, r14, .m16_mts_next
00012F40  10 BD B0 00 48 00 00 00... load.l  r23, KD_MODULE_DEADLINE_TICK(r22)
00012F48  41 06 B8 00 38 01 00 00... beq r23, r0, .m16_mts_next
00012F50  45 06 B8 C0 30 01 00 00... bgt     r23, r24, .m16_mts_next
00012F58  10 0D B0 00 30 00 00 00... load.l  r1, KD_MODULE_OWNING_TASK(r22)
00012F60  41 06 08 00 C0 00 00 00... beq r1, r0, .m16_mts_force_unload
00012F68  52 06 A0 00 00 00 00 00... push    r20
00012F70  52 06 A8 00 00 00 00 00... push    r21
00012F78  52 06 B0 00 00 00 00 00... push    r22
00012F80  52 06 C0 00 00 00 00 00... push    r24
00012F88  50 06 00 00 50 F1 FE FF... jsr     kern_find_slot_for_public_id
00012F90  01 CE 08 00 00 00 00 00... move.q  r25, r1
00012F98  53 C6 00 00 00 00 00 00... pop     r24
00012FA0  53 B6 00 00 00 00 00 00... pop     r22
00012FA8  53 AE 00 00 00 00 00 00... pop     r21
00012FB0  53 A6 00 00 00 00 00 00... pop     r20
00012FB8  41 06 10 00 68 00 00 00... beq r2, r0, .m16_mts_force_unload
00012FC0  01 6E C8 00 00 00 00 00... move.q  r13, r25
00012FC8  01 75 00 00 03 00 00 00... move.l  r14, #TASK_EXIT_REASON_INTERNAL
00012FD0  52 06 A0 00 00 00 00 00... push    r20
00012FD8  52 06 A8 00 00 00 00 00... push    r21
00012FE0  52 06 B0 00 00 00 00 00... push    r22
00012FE8  52 06 C0 00 00 00 00 00... push    r24
00012FF0  50 06 00 00 F0 06 00 00... jsr     kill_task_cleanup
00012FF8  53 C6 00 00 00 00 00 00... pop     r24
00013000  53 B6 00 00 00 00 00 00... pop     r22
00013008  53 AE 00 00 00 00 00 00... pop     r21
00013010  53 A6 00 00 00 00 00 00... pop     r20
00013018  40 06 00 00 68 00 00 00... bra     .m16_mts_next
                         .m16_mts_force_unload:
00013020  01 0E B0 00 00 00 00 00... move.q  r1, r22
00013028  01 16 A8 00 00 00 00 00... move.q  r2, r21
00013030  01 1F 00 00 04 00 00 00... move.q  r3, #ERR_NOTFOUND
00013038  52 06 A0 00 00 00 00 00... push    r20
00013040  52 06 A8 00 00 00 00 00... push    r21
00013048  52 06 B0 00 00 00 00 00... push    r22
00013050  52 06 C0 00 00 00 00 00... push    r24
00013058  50 06 00 00 B8 F5 FF FF... jsr     m16_module_fail_to_unloaded
00013060  53 C6 00 00 00 00 00 00... pop     r24
00013068  53 B6 00 00 00 00 00 00... pop     r22
00013070  53 AE 00 00 00 00 00 00... pop     r21
00013078  53 A6 00 00 00 00 00 00... pop     r20
                         .m16_mts_next:
00013080  20 AF A8 00 01 00 00 00... add     r21, r21, #1
00013088  40 06 00 00 48 FE FF FF... bra     .m16_mts_scan
                         .m16_mts_done:
00013090  51 00 00 00 00 00 00 00... rts
                         m1621_parse_module_request:
00013098  50 06 00 00 A8 6A FF FF... jsr     kern_share_backing_for_handle
000130A0  42 06 10 00 70 01 00 00... bne r2, r0, .m1621_pmr_done
000130A8  01 A6 08 00 00 00 00 00... move.q  r20, r1
000130B0  10 5C A0 00 00 00 00 00... load.l  r11, 0(r20)
000130B8  01 65 00 00 01 00 00 00... move.l  r12, #1
000130C0  42 06 58 60 40 01 00 00... bne     r11, r12, .m1621_pmr_badarg
000130C8  10 5D A0 00 04 00 00 00... load.l  r11, 4(r20)
000130D0  42 06 58 00 30 01 00 00... bne r11, r0, .m1621_pmr_badarg
000130D8  10 5F A0 00 08 00 00 00... load.q  r11, 8(r20)
000130E0  42 06 58 00 20 01 00 00... bne r11, r0, .m1621_pmr_badarg
000130E8  10 5F A0 00 30 00 00 00... load.q  r11, 48(r20)
000130F0  42 06 58 00 10 01 00 00... bne r11, r0, .m1621_pmr_badarg
000130F8  10 5F A0 00 38 00 00 00... load.q  r11, 56(r20)
00013100  42 06 58 00 00 01 00 00... bne r11, r0, .m1621_pmr_badarg
00013108  01 AD 00 00 00 D0 08 00... move.l  r21, #KERN_DATA_BASE
00013110  20 AF A8 00 20 00 00 00... add     r21, r21, #KD_NAME_SCRATCH
00013118  11 06 A8 00 00 00 00 00... store.q r0, 0(r21)
00013120  11 07 A8 00 08 00 00 00... store.q r0, 8(r21)
00013128  11 07 A8 00 10 00 00 00... store.q r0, 16(r21)
00013130  11 07 A8 00 18 00 00 00... store.q r0, 24(r21)
00013138  01 B5 00 00 00 00 00 00... move.l  r22, #0
00013140  01 BD 00 00 00 00 00 00... move.l  r23, #0
                         .m1621_pmr_name_loop:
00013148  01 5D 00 00 20 00 00 00... move.l  r11, #32
00013150  44 06 B0 58 B0 00 00 00... bge     r22, r11, .m1621_pmr_badarg
00013158  20 C7 A0 00 10 00 00 00... add     r24, r20, #16
00013160  20 C6 C0 B0 00 00 00 00... add     r24, r24, r22
00013168  10 C8 C0 00 00 00 00 00... load.b  r25, (r24)
00013170  41 06 C8 00 30 00 00 00... beq r25, r0, .m1621_pmr_name_done
00013178  20 D6 A8 B0 00 00 00 00... add     r26, r21, r22
00013180  11 C8 D0 00 00 00 00 00... store.b r25, (r26)
00013188  20 B7 B0 00 01 00 00 00... add     r22, r22, #1
00013190  01 BD 00 00 01 00 00 00... move.l  r23, #1
00013198  40 06 00 00 B0 FF FF FF... bra     .m1621_pmr_name_loop
                         .m1621_pmr_name_done:
000131A0  41 06 B8 00 60 00 00 00... beq r23, r0, .m1621_pmr_badarg
000131A8  20 B7 B0 00 01 00 00 00... add     r22, r22, #1
                         .m1621_pmr_name_pad_loop:
000131B0  01 5D 00 00 20 00 00 00... move.l  r11, #32
000131B8  44 06 B0 58 38 00 00 00... bge     r22, r11, .m1621_pmr_name_pad_done
000131C0  20 C7 A0 00 10 00 00 00... add     r24, r20, #16
000131C8  20 C6 C0 B0 00 00 00 00... add     r24, r24, r22
000131D0  10 C8 C0 00 00 00 00 00... load.b  r25, (r24)
000131D8  42 06 C8 00 28 00 00 00... bne r25, r0, .m1621_pmr_badarg
000131E0  20 B7 B0 00 01 00 00 00... add     r22, r22, #1
000131E8  40 06 00 00 C8 FF FF FF... bra     .m1621_pmr_name_pad_loop
                         .m1621_pmr_name_pad_done:
000131F0  01 17 00 00 00 00 00 00... move.q  r2, #ERR_OK
000131F8  51 00 00 00 00 00 00 00... rts
                         .m1621_pmr_badarg:
00013200  01 0F 00 00 00 00 00 00... move.q  r1, #0
00013208  01 17 00 00 03 00 00 00... move.q  r2, #ERR_BADARG
                         .m1621_pmr_done:
00013210  51 00 00 00 00 00 00 00... rts
                         m1621_acquire_module_handle:
00013218  01 A6 08 00 00 00 00 00... move.q  r20, r1
00013220  01 AE 10 00 00 00 00 00... move.q  r21, r2
00013228  50 06 00 00 20 E0 FF FF... jsr     m16_module_find_row_by_name
00013230  41 06 08 00 C8 01 00 00... beq r1, r0, .m1621_amh_notfound
00013238  01 B6 08 00 00 00 00 00... move.q  r22, r1
00013240  01 BE 10 00 00 00 00 00... move.q  r23, r2
00013248  10 C5 B0 00 2C 00 00 00... load.l  r24, KD_MODULE_CLASS(r22)
00013250  42 06 C0 A0 90 01 00 00... bne     r24, r20, .m1621_amh_badarg
00013258  10 C5 B0 00 20 00 00 00... load.l  r24, KD_MODULE_STATE(r22)
00013260  01 5D 00 00 02 00 00 00... move.l  r11, #M16_MODSTATE_ONLINE
00013268  41 06 C0 58 30 00 00 00... beq     r24, r11, .m1621_amh_online
00013270  01 5D 00 00 01 00 00 00... move.l  r11, #M16_MODSTATE_LOADING
00013278  41 06 C0 58 98 01 00 00... beq     r24, r11, .m1621_amh_again
00013280  01 5D 00 00 04 00 00 00... move.l  r11, #M16_MODSTATE_EXPUNGING
00013288  41 06 C0 58 88 01 00 00... beq     r24, r11, .m1621_amh_again
00013290  40 06 00 00 68 01 00 00... bra     .m1621_amh_notfound
                         .m1621_amh_online:
00013298  01 5D 00 00 04 00 00 00... move.l  r11, #MODCLASS_RESOURCE
000132A0  42 06 A0 58 18 00 00 00... bne     r20, r11, .m1621_amh_version_ok
000132A8  10 C3 B0 00 28 00 00 00... load.w  r24, KD_MODULE_VERSION(r22)
000132B0  43 06 C0 A8 78 01 00 00... blt     r24, r21, .m1621_amh_version
                         .m1621_amh_version_ok:
000132B8  52 06 A0 00 00 00 00 00... push    r20
000132C0  52 06 A8 00 00 00 00 00... push    r21
000132C8  52 06 B0 00 00 00 00 00... push    r22
000132D0  52 06 B8 00 00 00 00 00... push    r23
000132D8  50 06 00 00 D8 ED FE FF... jsr     kern_current_public_task_id
000132E0  01 C6 08 00 00 00 00 00... move.q  r24, r1
000132E8  53 BE 00 00 00 00 00 00... pop     r23
000132F0  53 B6 00 00 00 00 00 00... pop     r22
000132F8  53 AE 00 00 00 00 00 00... pop     r21
00013300  53 A6 00 00 00 00 00 00... pop     r20
00013308  10 CD B0 00 24 00 00 00... load.l  r25, KD_MODULE_GENERATION(r22)
00013310  01 0E C0 00 00 00 00 00... move.q  r1, r24
00013318  01 16 B8 00 00 00 00 00... move.q  r2, r23
00013320  01 1E C8 00 00 00 00 00... move.q  r3, r25
00013328  52 06 A0 00 00 00 00 00... push    r20
00013330  52 06 B0 00 00 00 00 00... push    r22
00013338  52 06 B8 00 00 00 00 00... push    r23
00013340  52 06 C8 00 00 00 00 00... push    r25
00013348  50 06 00 00 50 F5 FF FF... jsr     m16_open_row_find_or_alloc
00013350  01 D6 08 00 00 00 00 00... move.q  r26, r1
00013358  53 CE 00 00 00 00 00 00... pop     r25
00013360  53 BE 00 00 00 00 00 00... pop     r23
00013368  53 B6 00 00 00 00 00 00... pop     r22
00013370  53 A6 00 00 00 00 00 00... pop     r20
00013378  41 06 D0 00 C8 00 00 00... beq r26, r0, .m1621_amh_full
00013380  10 DD D0 00 0C 00 00 00... load.l  r27, KD_MODULE_OPEN_ROW_COUNT(r26)
00013388  20 DF D8 00 01 00 00 00... add     r27, r27, #1
00013390  11 DD D0 00 0C 00 00 00... store.l r27, KD_MODULE_OPEN_ROW_COUNT(r26)
00013398  10 DD B0 00 38 00 00 00... load.l  r27, KD_MODULE_OPEN_COUNT(r22)
000133A0  20 DF D8 00 01 00 00 00... add     r27, r27, #1
000133A8  11 DD B0 00 38 00 00 00... store.l r27, KD_MODULE_OPEN_COUNT(r22)
000133B0  01 0E A0 00 00 00 00 00... move.q  r1, r20
000133B8  01 16 B8 00 00 00 00 00... move.q  r2, r23
000133C0  01 1E C8 00 00 00 00 00... move.q  r3, r25
000133C8  50 06 00 00 70 02 00 00... jsr     m1621_make_module_token
000133D0  01 17 00 00 00 00 00 00... move.q  r2, #ERR_OK
000133D8  51 00 00 00 00 00 00 00... rts
                         .m1621_amh_badarg:
000133E0  01 0F 00 00 00 00 00 00... move.q  r1, #0
000133E8  01 17 00 00 03 00 00 00... move.q  r2, #ERR_BADARG
000133F0  51 00 00 00 00 00 00 00... rts
                         .m1621_amh_notfound:
000133F8  01 0F 00 00 00 00 00 00... move.q  r1, #0
00013400  01 17 00 00 04 00 00 00... move.q  r2, #ERR_NOTFOUND
00013408  51 00 00 00 00 00 00 00... rts
                         .m1621_amh_again:
00013410  01 0F 00 00 00 00 00 00... move.q  r1, #0
00013418  01 17 00 00 06 00 00 00... move.q  r2, #ERR_AGAIN
00013420  51 00 00 00 00 00 00 00... rts
                         .m1621_amh_version:
00013428  01 0F 00 00 00 00 00 00... move.q  r1, #0
00013430  01 17 00 00 0B 00 00 00... move.q  r2, #ERR_LIB_VERSION
00013438  51 00 00 00 00 00 00 00... rts
                         .m1621_amh_full:
00013440  01 0F 00 00 00 00 00 00... move.q  r1, #0
00013448  01 17 00 00 09 00 00 00... move.q  r2, #ERR_FULL
00013450  51 00 00 00 00 00 00 00... rts
                         m1621_release_module_handle:
00013458  41 06 08 00 C8 01 00 00... beq r1, r0, .m1621_rmh_badhandle
00013460  01 A6 10 00 00 00 00 00... move.q  r20, r2
00013468  50 06 00 00 10 02 00 00... jsr     m1621_decode_module_token
00013470  42 06 08 A0 B0 01 00 00... bne     r1, r20, .m1621_rmh_badhandle
00013478  01 AE 10 00 00 00 00 00... move.q  r21, r2
00013480  01 B6 18 00 00 00 00 00... move.q  r22, r3
00013488  01 5D 00 00 10 00 00 00... move.l  r11, #KD_MODULE_MAX
00013490  44 06 A8 58 90 01 00 00... bge     r21, r11, .m1621_rmh_badhandle
00013498  01 0E A8 00 00 00 00 00... move.q  r1, r21
000134A0  52 06 A0 00 00 00 00 00... push    r20
000134A8  52 06 A8 00 00 00 00 00... push    r21
000134B0  52 06 B0 00 00 00 00 00... push    r22
000134B8  50 06 00 00 40 DD FF FF... jsr     m16_module_row_addr_for_index
000134C0  01 BE 08 00 00 00 00 00... move.q  r23, r1
000134C8  53 B6 00 00 00 00 00 00... pop     r22
000134D0  53 AE 00 00 00 00 00 00... pop     r21
000134D8  53 A6 00 00 00 00 00 00... pop     r20
000134E0  41 06 B8 00 40 01 00 00... beq r23, r0, .m1621_rmh_badhandle
000134E8  10 C5 B8 00 2C 00 00 00... load.l  r24, KD_MODULE_CLASS(r23)
000134F0  42 06 C0 A0 30 01 00 00... bne     r24, r20, .m1621_rmh_badhandle
000134F8  10 C5 B8 00 20 00 00 00... load.l  r24, KD_MODULE_STATE(r23)
00013500  01 5D 00 00 02 00 00 00... move.l  r11, #M16_MODSTATE_ONLINE
00013508  42 06 C0 58 18 01 00 00... bne     r24, r11, .m1621_rmh_badhandle
00013510  10 C5 B8 00 24 00 00 00... load.l  r24, KD_MODULE_GENERATION(r23)
00013518  42 06 C0 B0 08 01 00 00... bne     r24, r22, .m1621_rmh_badhandle
00013520  52 06 A0 00 00 00 00 00... push    r20
00013528  52 06 A8 00 00 00 00 00... push    r21
00013530  52 06 B0 00 00 00 00 00... push    r22
00013538  52 06 B8 00 00 00 00 00... push    r23
00013540  50 06 00 00 70 EB FE FF... jsr     kern_current_public_task_id
00013548  01 C6 08 00 00 00 00 00... move.q  r24, r1
00013550  53 BE 00 00 00 00 00 00... pop     r23
00013558  53 B6 00 00 00 00 00 00... pop     r22
00013560  53 AE 00 00 00 00 00 00... pop     r21
00013568  53 A6 00 00 00 00 00 00... pop     r20
00013570  01 0E C0 00 00 00 00 00... move.q  r1, r24
00013578  01 16 A8 00 00 00 00 00... move.q  r2, r21
00013580  01 1E B0 00 00 00 00 00... move.q  r3, r22
00013588  50 06 00 00 70 F2 FF FF... jsr     m16_open_row_find
00013590  41 06 08 00 90 00 00 00... beq r1, r0, .m1621_rmh_badhandle
00013598  01 CE 08 00 00 00 00 00... move.q  r25, r1
000135A0  10 D5 C8 00 0C 00 00 00... load.l  r26, KD_MODULE_OPEN_ROW_COUNT(r25)
000135A8  41 06 D0 00 78 00 00 00... beq r26, r0, .m1621_rmh_badhandle
000135B0  21 D7 D0 00 01 00 00 00... sub     r26, r26, #1
000135B8  11 D5 C8 00 0C 00 00 00... store.l r26, KD_MODULE_OPEN_ROW_COUNT(r25)
000135C0  10 DD B8 00 38 00 00 00... load.l  r27, KD_MODULE_OPEN_COUNT(r23)
000135C8  41 06 D8 00 58 00 00 00... beq r27, r0, .m1621_rmh_badhandle
000135D0  21 DF D8 00 01 00 00 00... sub     r27, r27, #1
000135D8  11 DD B8 00 38 00 00 00... store.l r27, KD_MODULE_OPEN_COUNT(r23)
000135E0  42 06 D0 00 28 00 00 00... bne r26, r0, .m1621_rmh_ok
000135E8  11 04 C8 00 00 00 00 00... store.l r0, KD_MODULE_OPEN_ROW_TASK(r25)
000135F0  11 05 C8 00 04 00 00 00... store.l r0, KD_MODULE_OPEN_ROW_INDEX(r25)
000135F8  11 05 C8 00 08 00 00 00... store.l r0, KD_MODULE_OPEN_ROW_GEN(r25)
00013600  11 05 C8 00 0C 00 00 00... store.l r0, KD_MODULE_OPEN_ROW_COUNT(r25)
                         .m1621_rmh_ok:
00013608  01 0F 00 00 00 00 00 00... move.q  r1, #0
00013610  01 17 00 00 00 00 00 00... move.q  r2, #ERR_OK
00013618  51 00 00 00 00 00 00 00... rts
                         .m1621_rmh_badhandle:
00013620  01 0F 00 00 00 00 00 00... move.q  r1, #0
00013628  01 17 00 00 02 00 00 00... move.q  r2, #ERR_BADHANDLE
00013630  51 00 00 00 00 00 00 00... rts
                         m1621_make_module_token:
00013638  30 0F 08 00 FF 00 00 00... and     r1, r1, #0xFF
00013640  34 0F 08 00 38 00 00 00... lsl     r1, r1, #56
00013648  30 17 10 00 FF 00 00 00... and     r2, r2, #0xFF
00013650  30 1F 18 00 FF FF FF FF... and     r3, r3, #0xFFFFFFFF
00013658  34 1F 18 00 08 00 00 00... lsl     r3, r3, #8
00013660  31 0E 08 18 00 00 00 00... or      r1, r1, r3
00013668  31 0E 08 10 00 00 00 00... or      r1, r1, r2
00013670  51 00 00 00 00 00 00 00... rts
                         m1621_decode_module_token:
00013678  01 26 08 00 00 00 00 00... move.q  r4, r1
00013680  35 0F 08 00 38 00 00 00... lsr     r1, r1, #56
00013688  30 17 20 00 FF 00 00 00... and     r2, r4, #0xFF
00013690  35 1F 20 00 08 00 00 00... lsr     r3, r4, #8
00013698  30 1F 18 00 FF FF FF FF... and     r3, r3, #0xFFFFFFFF
000136A0  51 00 00 00 00 00 00 00... rts
                         m16_make_library_token:
000136A8  30 0F 08 00 FF 00 00 00... and     r1, r1, #0xFF
000136B0  34 17 10 00 08 00 00 00... lsl     r2, r2, #8
000136B8  31 0E 10 08 00 00 00 00... or      r1, r2, r1
000136C0  51 00 00 00 00 00 00 00... rts
                         m16_decode_library_token:
000136C8  35 17 08 00 08 00 00 00... lsr     r2, r1, #8
000136D0  30 0F 08 00 FF 00 00 00... and     r1, r1, #0xFF
000136D8  51 00 00 00 00 00 00 00... rts
                         kill_task_cleanup:
000136E0  52 06 98 00 00 00 00 00... push    r19
000136E8  50 06 00 00 F0 D5 FF FF... jsr     kern_task_exit_hooks_run
000136F0  34 7F 68 00 05 00 00 00... lsl     r15, r13, #5
000136F8  20 7F 78 00 40 00 00 00... add     r15, r15, #KD_TASK_BASE
00013700  20 7E 78 60 00 00 00 00... add     r15, r15, r12
00013708  01 81 00 00 03 00 00 00... move.b  r16, #TASK_FREE
00013710  11 81 78 00 1C 00 00 00... store.b r16, KD_TASK_STATE(r15)
00013718  11 05 78 00 10 00 00 00... store.l r0, KD_TASK_SIG_ALLOC(r15)
00013720  11 05 78 00 14 00 00 00... store.l r0, KD_TASK_SIG_WAIT(r15)
00013728  11 05 78 00 18 00 00 00... store.l r0, KD_TASK_SIG_RECV(r15)
00013730  01 81 00 00 FF 00 00 00... move.b  r16, #WAITPORT_NONE
00013738  11 81 78 00 1D 00 00 00... store.b r16, KD_TASK_WAITPORT(r15)
00013740  01 A5 00 00 00 D0 08 00... move.l  r20, #KERN_DATA_BASE
00013748  20 A7 A0 00 18 28 00 00... add     r20, r20, #KD_PORT_BASE
00013750  01 AD 00 00 00 00 00 00... move.l  r21, #0
                         .ktc_port_scan:
00013758  01 B5 00 00 20 00 00 00... move.l  r22, #KD_PORT_INLINE_MAX
00013760  44 06 A8 B0 48 00 00 00... bge     r21, r22, .ktc_port_inline_done
00013768  10 B8 A0 00 00 00 00 00... load.b  r23, KD_PORT_VALID(r20)
00013770  41 06 B8 00 20 00 00 00... beq r23, r0, .ktc_port_next
00013778  10 C1 A0 00 01 00 00 00... load.b  r24, KD_PORT_OWNER(r20)
00013780  42 06 68 C0 10 00 00 00... bne     r13, r24, .ktc_port_next
00013788  50 06 00 00 E8 00 00 00... jsr     .ktc_port_clear
                         .ktc_port_next:
00013790  20 A7 A0 00 A8 00 00 00... add     r20, r20, #KD_PORT_STRIDE
00013798  20 AF A8 00 01 00 00 00... add     r21, r21, #1
000137A0  40 06 00 00 B8 FF FF FF... bra     .ktc_port_scan
                         .ktc_port_inline_done:
000137A8  01 B5 00 00 00 D0 08 00... move.l  r22, #KERN_DATA_BASE
000137B0  20 B7 B0 00 C8 C8 00 00... add     r22, r22, #KD_PORT_OFLOW_HDR
000137B8  10 CA B0 00 00 00 00 00... load.w  r25, KD_PORT_OFLOW_FIRST_PPN(r22)
000137C0  41 06 C8 00 10 01 00 00... beq r25, r0, .ktc_done
                         .ktc_port_oflow_page:
000137C8  34 D7 C8 00 0C 00 00 00... lsl     r26, r25, #12
000137D0  01 A6 D0 00 00 00 00 00... move.q  r20, r26
000137D8  20 A7 A0 00 10 00 00 00... add     r20, r20, #KD_PORT_PAGE_HDR_SZ
000137E0  01 AD 00 00 00 00 00 00... move.l  r21, #0
                         .ktc_port_oflow_row:
000137E8  01 B5 00 00 18 00 00 00... move.l  r22, #KD_PORT_ROWS_PER_PG
000137F0  44 06 A8 B0 68 00 00 00... bge     r21, r22, .ktc_port_oflow_next_page
000137F8  10 B8 A0 00 00 00 00 00... load.b  r23, KD_PORT_VALID(r20)
00013800  41 06 B8 00 40 00 00 00... beq r23, r0, .ktc_port_oflow_skip
00013808  10 C1 A0 00 01 00 00 00... load.b  r24, KD_PORT_OWNER(r20)
00013810  42 06 68 C0 30 00 00 00... bne     r13, r24, .ktc_port_oflow_skip
00013818  52 06 C8 00 00 00 00 00... push    r25
00013820  52 06 D0 00 00 00 00 00... push    r26
00013828  50 06 00 00 48 00 00 00... jsr     .ktc_port_clear
00013830  53 D6 00 00 00 00 00 00... pop     r26
00013838  53 CE 00 00 00 00 00 00... pop     r25
                         .ktc_port_oflow_skip:
00013840  20 A7 A0 00 A8 00 00 00... add     r20, r20, #KD_PORT_STRIDE
00013848  20 AF A8 00 01 00 00 00... add     r21, r21, #1
00013850  40 06 00 00 98 FF FF FF... bra     .ktc_port_oflow_row
                         .ktc_port_oflow_next_page:
00013858  10 CA D0 00 00 00 00 00... load.w  r25, KD_PORT_PAGE_NEXT(r26)
00013860  42 06 C8 00 68 FF FF FF... bne r25, r0, .ktc_port_oflow_page
00013868  40 06 00 00 68 00 00 00... bra     .ktc_done
                         .ktc_port_clear:
00013870  11 00 A0 00 00 00 00 00... store.b r0, KD_PORT_VALID(r20)
00013878  11 01 A0 00 02 00 00 00... store.b r0, KD_PORT_COUNT(r20)
00013880  11 01 A0 00 05 00 00 00... store.b r0, KD_PORT_FLAGS(r20)
00013888  11 07 A0 00 08 00 00 00... store.q r0, KD_PORT_NAME(r20)
00013890  20 B7 A0 00 08 00 00 00... add     r22, r20, #KD_PORT_NAME
00013898  20 B7 B0 00 08 00 00 00... add     r22, r22, #8
000138A0  11 06 B0 00 00 00 00 00... store.q r0, (r22)
000138A8  20 B7 B0 00 08 00 00 00... add     r22, r22, #8
000138B0  11 06 B0 00 00 00 00 00... store.q r0, (r22)
000138B8  20 B7 B0 00 08 00 00 00... add     r22, r22, #8
000138C0  11 06 B0 00 00 00 00 00... store.q r0, (r22)
000138C8  51 00 00 00 00 00 00 00... rts
                         .ktc_done:
000138D0  01 A5 00 00 00 D0 08 00... move.l  r20, #KERN_DATA_BASE
000138D8  20 A7 A0 00 38 40 00 00... add     r20, r20, #KD_REGION_TABLE
000138E0  01 AD 00 00 80 00 00 00... move.l  r21, #KD_REGION_TASK_SZ
000138E8  22 AE 68 A8 00 00 00 00... mulu    r21, r13, r21
000138F0  20 A6 A0 A8 00 00 00 00... add     r20, r20, r21
000138F8  01 AD 00 00 00 00 00 00... move.l  r21, #0
                         .ktc_region_scan:
00013900  01 B5 00 00 08 00 00 00... move.l  r22, #KD_REGION_INLINE_MAX
00013908  44 06 A8 B0 58 01 00 00... bge     r21, r22, .ktc_inline_done
00013910  01 B5 00 00 10 00 00 00... move.l  r22, #KD_REGION_STRIDE
00013918  22 B6 A8 B0 00 00 00 00... mulu    r22, r21, r22
00013920  20 BE A0 B0 00 00 00 00... add     r23, r20, r22
00013928  10 B1 B8 00 08 00 00 00... load.b  r22, KD_REG_TYPE(r23)
00013930  41 06 B0 00 20 01 00 00... beq r22, r0, .ktc_region_next
00013938  34 0F 68 00 03 00 00 00... lsl     r1, r13, #3
00013940  20 0F 08 00 20 20 00 00... add     r1, r1, #KD_PTBR_BASE
00013948  20 0E 08 60 00 00 00 00... add     r1, r1, r12
00013950  10 0E 08 00 00 00 00 00... load.q  r1, (r1)
00013958  10 14 B8 00 00 00 00 00... load.l  r2, KD_REG_VA(r23)
00013960  10 1B B8 00 06 00 00 00... load.w  r3, KD_REG_PAGES(r23)
00013968  50 06 00 00 C8 6D FF FF... jsr     unmap_pages
00013970  10 B1 B8 00 08 00 00 00... load.b  r22, KD_REG_TYPE(r23)
00013978  01 C5 00 00 03 00 00 00... move.l  r24, #REGION_IO
00013980  41 06 B0 C0 C8 00 00 00... beq     r22, r24, .ktc_region_clear
00013988  01 C5 00 00 01 00 00 00... move.l  r24, #REGION_PRIVATE
00013990  42 06 B0 C0 28 00 00 00... bne     r22, r24, .ktc_region_shared
00013998  10 0B B8 00 04 00 00 00... load.w  r1, KD_REG_PPN(r23)
000139A0  10 13 B8 00 06 00 00 00... load.w  r2, KD_REG_PAGES(r23)
000139A8  50 06 00 00 98 4D FF FF... jsr     free_pages
000139B0  40 06 00 00 98 00 00 00... bra     .ktc_region_clear
                         .ktc_region_shared:
000139B8  10 09 B8 00 09 00 00 00... load.b  r1, KD_REG_SHMID(r23)
000139C0  52 06 B8 00 00 00 00 00... push    r23
000139C8  50 06 00 00 18 5F FF FF... jsr     kern_shmem_addr_for_id
000139D0  53 BE 00 00 00 00 00 00... pop     r23
000139D8  01 26 08 00 00 00 00 00... move.q  r4, r1
000139E0  41 06 20 00 68 00 00 00... beq r4, r0, .ktc_region_clear
000139E8  10 B1 20 00 01 00 00 00... load.b  r22, KD_SHM_REFCOUNT(r4)
000139F0  21 B7 B0 00 01 00 00 00... sub     r22, r22, #1
000139F8  11 B1 20 00 01 00 00 00... store.b r22, KD_SHM_REFCOUNT(r4)
00013A00  42 06 B0 00 48 00 00 00... bne r22, r0, .ktc_region_clear
00013A08  10 0B 20 00 04 00 00 00... load.w  r1, KD_SHM_PPN(r4)
00013A10  10 13 20 00 06 00 00 00... load.w  r2, KD_SHM_PAGES(r4)
00013A18  52 06 20 00 00 00 00 00... push    r4
00013A20  52 06 B8 00 00 00 00 00... push    r23
00013A28  50 06 00 00 18 4D FF FF... jsr     free_pages
00013A30  53 BE 00 00 00 00 00 00... pop     r23
00013A38  53 26 00 00 00 00 00 00... pop     r4
00013A40  11 00 20 00 00 00 00 00... store.b r0, KD_SHM_VALID(r4)
                         .ktc_region_clear:
00013A48  11 01 B8 00 08 00 00 00... store.b r0, KD_REG_TYPE(r23)
                         .ktc_region_next:
00013A50  20 AF A8 00 01 00 00 00... add     r21, r21, #1
00013A58  40 06 00 00 A8 FE FF FF... bra     .ktc_region_scan
                         .ktc_inline_done:
00013A60  01 A5 00 00 00 D0 08 00... move.l  r20, #KERN_DATA_BASE
00013A68  20 A7 A0 00 C8 C0 00 00... add     r20, r20, #KD_REGION_OVERFLOW_HEAD
00013A70  01 B5 00 00 08 00 00 00... move.l  r22, #KD_REGION_OFLOW_STRIDE
00013A78  22 B6 68 B0 00 00 00 00... mulu    r22, r13, r22
00013A80  20 A6 A0 B0 00 00 00 00... add     r20, r20, r22
00013A88  10 CA A0 00 00 00 00 00... load.w  r25, KD_REGION_OFLOW_FIRST_PPN(r20)
00013A90  41 06 C8 00 68 02 00 00... beq r25, r0, .ktc_mem_done
                         .ktc_oflow_page:
00013A98  34 D7 C8 00 0C 00 00 00... lsl     r26, r25, #12
00013AA0  01 BE D0 00 00 00 00 00... move.q  r23, r26
00013AA8  20 BF B8 00 10 00 00 00... add     r23, r23, #KD_REGION_PAGE_HDR_SZ
00013AB0  01 AD 00 00 00 00 00 00... move.l  r21, #0
                         .ktc_oflow_row:
00013AB8  01 B5 00 00 FF 00 00 00... move.l  r22, #KD_REGION_ROWS_PER_PG
00013AC0  44 06 A8 B0 88 01 00 00... bge     r21, r22, .ktc_oflow_next_page
00013AC8  10 B1 B8 00 08 00 00 00... load.b  r22, KD_REG_TYPE(r23)
00013AD0  41 06 B0 00 60 01 00 00... beq r22, r0, .ktc_oflow_skip
00013AD8  34 0F 68 00 03 00 00 00... lsl     r1, r13, #3
00013AE0  20 0F 08 00 20 20 00 00... add     r1, r1, #KD_PTBR_BASE
00013AE8  20 0E 08 60 00 00 00 00... add     r1, r1, r12
00013AF0  10 0E 08 00 00 00 00 00... load.q  r1, (r1)
00013AF8  10 14 B8 00 00 00 00 00... load.l  r2, KD_REG_VA(r23)
00013B00  10 1B B8 00 06 00 00 00... load.w  r3, KD_REG_PAGES(r23)
00013B08  50 06 00 00 28 6C FF FF... jsr     unmap_pages
00013B10  10 B1 B8 00 08 00 00 00... load.b  r22, KD_REG_TYPE(r23)
00013B18  01 C5 00 00 03 00 00 00... move.l  r24, #REGION_IO
00013B20  41 06 B0 C0 08 01 00 00... beq     r22, r24, .ktc_oflow_clear
00013B28  01 C5 00 00 01 00 00 00... move.l  r24, #REGION_PRIVATE
00013B30  42 06 B0 C0 28 00 00 00... bne     r22, r24, .ktc_oflow_shared
00013B38  10 0B B8 00 04 00 00 00... load.w  r1, KD_REG_PPN(r23)
00013B40  10 13 B8 00 06 00 00 00... load.w  r2, KD_REG_PAGES(r23)
00013B48  50 06 00 00 F8 4B FF FF... jsr     free_pages
00013B50  40 06 00 00 D8 00 00 00... bra     .ktc_oflow_clear
                         .ktc_oflow_shared:
00013B58  10 09 B8 00 09 00 00 00... load.b  r1, KD_REG_SHMID(r23)
00013B60  52 06 B8 00 00 00 00 00... push    r23
00013B68  52 06 C8 00 00 00 00 00... push    r25
00013B70  52 06 D0 00 00 00 00 00... push    r26
00013B78  50 06 00 00 68 5D FF FF... jsr     kern_shmem_addr_for_id
00013B80  53 D6 00 00 00 00 00 00... pop     r26
00013B88  53 CE 00 00 00 00 00 00... pop     r25
00013B90  53 BE 00 00 00 00 00 00... pop     r23
00013B98  01 26 08 00 00 00 00 00... move.q  r4, r1
00013BA0  41 06 20 00 88 00 00 00... beq r4, r0, .ktc_oflow_clear
00013BA8  10 B1 20 00 01 00 00 00... load.b  r22, KD_SHM_REFCOUNT(r4)
00013BB0  21 B7 B0 00 01 00 00 00... sub     r22, r22, #1
00013BB8  11 B1 20 00 01 00 00 00... store.b r22, KD_SHM_REFCOUNT(r4)
00013BC0  42 06 B0 00 68 00 00 00... bne r22, r0, .ktc_oflow_clear
00013BC8  10 0B 20 00 04 00 00 00... load.w  r1, KD_SHM_PPN(r4)
00013BD0  10 13 20 00 06 00 00 00... load.w  r2, KD_SHM_PAGES(r4)
00013BD8  52 06 20 00 00 00 00 00... push    r4
00013BE0  52 06 B8 00 00 00 00 00... push    r23
00013BE8  52 06 C8 00 00 00 00 00... push    r25
00013BF0  52 06 D0 00 00 00 00 00... push    r26
00013BF8  50 06 00 00 48 4B FF FF... jsr     free_pages
00013C00  53 D6 00 00 00 00 00 00... pop     r26
00013C08  53 CE 00 00 00 00 00 00... pop     r25
00013C10  53 BE 00 00 00 00 00 00... pop     r23
00013C18  53 26 00 00 00 00 00 00... pop     r4
00013C20  11 00 20 00 00 00 00 00... store.b r0, KD_SHM_VALID(r4)
                         .ktc_oflow_clear:
00013C28  11 01 B8 00 08 00 00 00... store.b r0, KD_REG_TYPE(r23)
                         .ktc_oflow_skip:
00013C30  20 BF B8 00 10 00 00 00... add     r23, r23, #KD_REGION_STRIDE
00013C38  20 AF A8 00 01 00 00 00... add     r21, r21, #1
00013C40  40 06 00 00 78 FE FF FF... bra     .ktc_oflow_row
                         .ktc_oflow_next_page:
00013C48  10 CA D0 00 00 00 00 00... load.w  r25, KD_REGION_PAGE_NEXT(r26)
00013C50  42 06 C8 00 48 FE FF FF... bne r25, r0, .ktc_oflow_page
00013C58  01 A5 00 00 00 D0 08 00... move.l  r20, #KERN_DATA_BASE
00013C60  20 A7 A0 00 C8 C0 00 00... add     r20, r20, #KD_REGION_OVERFLOW_HEAD
00013C68  01 B5 00 00 08 00 00 00... move.l  r22, #KD_REGION_OFLOW_STRIDE
00013C70  22 B6 68 B0 00 00 00 00... mulu    r22, r13, r22
00013C78  20 A6 A0 B0 00 00 00 00... add     r20, r20, r22
00013C80  10 CA A0 00 00 00 00 00... load.w  r25, KD_REGION_OFLOW_FIRST_PPN(r20)
                         .ktc_oflow_free_chain:
00013C88  41 06 C8 00 40 00 00 00... beq r25, r0, .ktc_oflow_reset_head
00013C90  34 D7 C8 00 0C 00 00 00... lsl     r26, r25, #12
00013C98  10 C2 D0 00 00 00 00 00... load.w  r24, KD_REGION_PAGE_NEXT(r26)
00013CA0  01 0E C8 00 00 00 00 00... move.q  r1, r25
00013CA8  01 15 00 00 01 00 00 00... move.l  r2, #1
00013CB0  50 06 00 00 90 4A FF FF... jsr     free_pages
00013CB8  01 CE C0 00 00 00 00 00... move.q  r25, r24
00013CC0  40 06 00 00 C8 FF FF FF... bra     .ktc_oflow_free_chain
                         .ktc_oflow_reset_head:
00013CC8  01 A5 00 00 00 D0 08 00... move.l  r20, #KERN_DATA_BASE
00013CD0  20 A7 A0 00 C8 C0 00 00... add     r20, r20, #KD_REGION_OVERFLOW_HEAD
00013CD8  01 B5 00 00 08 00 00 00... move.l  r22, #KD_REGION_OFLOW_STRIDE
00013CE0  22 B6 68 B0 00 00 00 00... mulu    r22, r13, r22
00013CE8  20 A6 A0 B0 00 00 00 00... add     r20, r20, r22
00013CF0  11 06 A0 00 00 00 00 00... store.q r0, (r20)
                         .ktc_mem_done:
00013CF8  01 0E 68 00 00 00 00 00... move.q  r1, r13
00013D00  50 06 00 00 80 E3 FE FF... jsr     kern_task_pubid_addr
00013D08  10 7C 08 00 00 00 00 00... load.l  r15, (r1)
00013D10  01 65 00 00 00 D0 08 00... move.l  r12, #KERN_DATA_BASE
00013D18  10 75 60 00 BC C0 00 00... load.l  r14, KD_DOSLIB_PUBID(r12)
00013D20  42 06 70 78 58 00 00 00... bne     r14, r15, .ktc_skip_dos_bootstrap_check
00013D28  01 0E 78 00 00 00 00 00... move.q  r1, r15
00013D30  52 06 78 00 00 00 00 00... push    r15
00013D38  52 06 68 00 00 00 00 00... push    r13
00013D40  50 06 00 00 58 20 FF FF... jsr     kern_dos_bootstrap_completed
00013D48  53 6E 00 00 00 00 00 00... pop     r13
00013D50  53 7E 00 00 00 00 00 00... pop     r15
00013D58  42 06 08 00 20 00 00 00... bne r1, r0, .ktc_skip_dos_bootstrap_check
00013D60  04 47 00 00 04 4A 01 00... lea r8, boot_fail_msg(r0)
00013D68  50 06 00 00 20 DD FE FF... jsr     kern_puts
00013D70  E1 00 00 00 00 00 00 00... halt
                         .ktc_skip_dos_bootstrap_check:
00013D78  01 0E 78 00 00 00 00 00... move.q  r1, r15
00013D80  52 06 78 00 00 00 00 00... push    r15
00013D88  52 06 68 00 00 00 00 00... push    r13
00013D90  50 06 00 00 98 EC FF FF... jsr     m16_module_opener_exit_cleanup
00013D98  53 6E 00 00 00 00 00 00... pop     r13
00013DA0  53 7E 00 00 00 00 00 00... pop     r15
00013DA8  01 0E 78 00 00 00 00 00... move.q  r1, r15
00013DB0  52 06 78 00 00 00 00 00... push    r15
00013DB8  52 06 68 00 00 00 00 00... push    r13
00013DC0  50 06 00 00 D0 ED FF FF... jsr     m16_module_owner_exit_cleanup
00013DC8  53 6E 00 00 00 00 00 00... pop     r13
00013DD0  53 7E 00 00 00 00 00 00... pop     r15
00013DD8  01 0E 78 00 00 00 00 00... move.q  r1, r15
00013DE0  52 06 78 00 00 00 00 00... push    r15
00013DE8  52 06 68 00 00 00 00 00... push    r13
00013DF0  50 06 00 00 D8 54 FF FF... jsr     kern_grant_release_for_grantor
00013DF8  53 6E 00 00 00 00 00 00... pop     r13
00013E00  53 7E 00 00 00 00 00 00... pop     r15
00013E08  01 0E 78 00 00 00 00 00... move.q  r1, r15
00013E10  52 06 78 00 00 00 00 00... push    r15
00013E18  52 06 68 00 00 00 00 00... push    r13
00013E20  50 06 00 00 60 50 FF FF... jsr     kern_grant_release_for_task
00013E28  53 6E 00 00 00 00 00 00... pop     r13
00013E30  53 7E 00 00 00 00 00 00... pop     r15
00013E38  01 65 00 00 00 D0 08 00... move.l  r12, #KERN_DATA_BASE
00013E40  10 75 60 00 B8 C0 00 00... load.l  r14, KD_HWRES_TASK(r12)
00013E48  42 06 70 78 18 00 00 00... bne     r14, r15, .ktc_hwres_clear_pubid
00013E50  01 75 00 00 FF FF FF FF... move.l  r14, #HWRES_TASK_FREE
00013E58  11 75 60 00 B8 C0 00 00... store.l r14, KD_HWRES_TASK(r12)
                         .ktc_hwres_clear_pubid:
00013E60  10 75 60 00 BC C0 00 00... load.l  r14, KD_DOSLIB_PUBID(r12)
00013E68  42 06 70 78 18 00 00 00... bne     r14, r15, .ktc_doslib_clear_pubid
00013E70  01 75 00 00 FF FF FF FF... move.l  r14, #TASK_PUBID_FREE
00013E78  11 75 60 00 BC C0 00 00... store.l r14, KD_DOSLIB_PUBID(r12)
                         .ktc_doslib_clear_pubid:
00013E80  01 0E 68 00 00 00 00 00... move.q  r1, r13
00013E88  50 06 00 00 F8 E1 FE FF... jsr     kern_task_pubid_addr
00013E90  01 75 00 00 FF FF FF FF... move.l  r14, #TASK_PUBID_FREE
00013E98  11 74 08 00 00 00 00 00... store.l r14, (r1)
                         .ktc_hwres_done:
00013EA0  01 0E 68 00 00 00 00 00... move.q  r1, r13
00013EA8  50 06 00 00 A8 E1 FE FF... jsr     kern_task_layout_addr
00013EB0  01 A6 08 00 00 00 00 00... move.q  r20, r1
00013EB8  10 0E A0 00 00 00 00 00... load.q  r1, KD_TASK_CODE_BASE(r20)
00013EC0  10 15 A0 00 18 00 00 00... load.l  r2, KD_TASK_CODE_PAGES(r20)
00013EC8  50 06 00 00 D8 E7 FE FF... jsr     free_task_image_pages
00013ED0  10 1D A0 00 24 00 00 00... load.l  r3, KD_TASK_LAYOUT_FLAGS(r20)
00013ED8  10 0F A0 00 08 00 00 00... load.q  r1, KD_TASK_STACK_BASE(r20)
00013EE0  10 15 A0 00 1C 00 00 00... load.l  r2, KD_TASK_STACK_PAGES(r20)
00013EE8  01 25 00 00 01 00 00 00... move.l  r4, #TASK_LAYOUT_FLAG_STACK_GUARD
00013EF0  30 26 18 20 00 00 00 00... and     r4, r3, r4
00013EF8  41 06 20 00 18 00 00 00... beq r4, r0, .ktc_free_stack
00013F00  21 0F 08 00 00 10 00 00... sub     r1, r1, #MMU_PAGE_SIZE
00013F08  20 17 10 00 01 00 00 00... add     r2, r2, #STACK_GUARD_PAGES
                         .ktc_free_stack:
00013F10  50 06 00 00 90 E7 FE FF... jsr     free_task_image_pages
00013F18  10 0F A0 00 10 00 00 00... load.q  r1, KD_TASK_DATA_BASE(r20)
00013F20  10 15 A0 00 20 00 00 00... load.l  r2, KD_TASK_DATA_PAGES(r20)
00013F28  50 06 00 00 78 E7 FE FF... jsr     free_task_image_pages
00013F30  10 0F A0 00 28 00 00 00... load.q  r1, KD_TASK_LAYOUT_STARTUP(r20)
00013F38  01 15 00 00 01 00 00 00... move.l  r2, #1
00013F40  50 06 00 00 60 E7 FE FF... jsr     free_task_image_pages
00013F48  10 0F A0 00 30 00 00 00... load.q  r1, KD_TASK_LAYOUT_PT_BASE(r20)
00013F50  50 06 00 00 08 EA FE FF... jsr     free_task_pt_block
00013F58  11 06 A0 00 00 00 00 00... store.q r0, KD_TASK_CODE_BASE(r20)
00013F60  11 07 A0 00 08 00 00 00... store.q r0, KD_TASK_STACK_BASE(r20)
00013F68  11 07 A0 00 10 00 00 00... store.q r0, KD_TASK_DATA_BASE(r20)
00013F70  11 05 A0 00 18 00 00 00... store.l r0, KD_TASK_CODE_PAGES(r20)
00013F78  11 05 A0 00 1C 00 00 00... store.l r0, KD_TASK_STACK_PAGES(r20)
00013F80  11 05 A0 00 20 00 00 00... store.l r0, KD_TASK_DATA_PAGES(r20)
00013F88  11 05 A0 00 24 00 00 00... store.l r0, KD_TASK_LAYOUT_FLAGS(r20)
00013F90  11 07 A0 00 28 00 00 00... store.q r0, KD_TASK_LAYOUT_STARTUP(r20)
00013F98  11 07 A0 00 30 00 00 00... store.q r0, KD_TASK_LAYOUT_PT_BASE(r20)
00013FA0  34 AF 68 00 03 00 00 00... lsl     r21, r13, #3
00013FA8  20 AF A8 00 20 20 00 00... add     r21, r21, #KD_PTBR_BASE
00013FB0  20 AE A8 60 00 00 00 00... add     r21, r21, r12
00013FB8  11 06 A8 00 00 00 00 00... store.q r0, (r21)
00013FC0  01 0E 68 00 00 00 00 00... move.q  r1, r13
00013FC8  50 06 00 00 50 D1 FF FF... jsr     quota_zero_row
00013FD0  53 9E 00 00 00 00 00 00... pop     r19
00013FD8  51 00 00 00 00 00 00 00... rts
                         restore_task:
00013FE0  34 7F 68 00 05 00 00 00... lsl     r15, r13, #5
00013FE8  20 7F 78 00 40 00 00 00... add     r15, r15, #KD_TASK_BASE
00013FF0  20 7E 78 60 00 00 00 00... add     r15, r15, r12
00013FF8  10 76 78 00 00 00 00 00... load.q  r14, KD_TASK_PC(r15)
00014000  E6 18 70 00 00 00 00 00... mtcr    cr3, r14
00014008  10 77 78 00 08 00 00 00... load.q  r14, KD_TASK_USP(r15)
00014010  E6 60 70 00 00 00 00 00... mtcr    cr12, r14
00014018  34 8F 68 00 03 00 00 00... lsl     r17, r13, #3
00014020  20 8F 88 00 20 20 00 00... add     r17, r17, #KD_PTBR_BASE
00014028  20 8E 88 60 00 00 00 00... add     r17, r17, r12
00014030  10 76 88 00 00 00 00 00... load.q  r14, (r17)
00014038  E6 00 70 00 00 00 00 00... mtcr    cr0, r14
00014040  E9 00 00 00 00 00 00 00... tlbflush
00014048  10 95 78 00 14 00 00 00... load.l  r18, KD_TASK_SIG_WAIT(r15)
00014050  41 06 90 00 90 00 00 00... beq r18, r0, .restore_normal
00014058  10 B9 78 00 1D 00 00 00... load.b  r23, KD_TASK_WAITPORT(r15)
00014060  01 C5 00 00 FF 00 00 00... move.l  r24, #WAITPORT_NONE
00014068  42 06 B8 C0 D0 01 00 00... bne     r23, r24, .restore_waitport_load_full
00014070  10 A5 78 00 18 00 00 00... load.l  r20, KD_TASK_SIG_RECV(r15)
00014078  30 AE A0 90 00 00 00 00... and     r21, r20, r18
00014080  33 B6 A8 00 00 00 00 00... not     r22, r21
00014088  30 A6 A0 B0 00 00 00 00... and     r20, r20, r22
00014090  11 A5 78 00 18 00 00 00... store.l r20, KD_TASK_SIG_RECV(r15)
00014098  11 05 78 00 14 00 00 00... store.l r0, KD_TASK_SIG_WAIT(r15)
000140A0  01 B1 00 00 01 00 00 00... move.b  r22, #TASK_RUNNING
000140A8  11 B1 78 00 1C 00 00 00... store.b r22, KD_TASK_STATE(r15)
000140B0  01 0E 68 00 00 00 00 00... move.q  r1, r13
000140B8  01 15 00 00 02 00 00 00... move.l  r2, #QUOTA_KIND_WAITERS
000140C0  01 1D 00 00 01 00 00 00... move.l  r3, #1
000140C8  50 06 00 00 B0 CF FF FF... jsr     quota_return
000140D0  01 0E A8 00 00 00 00 00... move.q  r1, r21
000140D8  01 17 00 00 00 00 00 00... move.q  r2, #ERR_OK
                         .restore_normal:
000140E0  10 71 78 00 1E 00 00 00... load.b  r14, KD_TASK_GPR_SAVED(r15)
000140E8  41 06 70 00 48 01 00 00... beq r14, r0, .restore_no_gprs
000140F0  11 01 78 00 1E 00 00 00... store.b r0, KD_TASK_GPR_SAVED(r15)
000140F8  E7 70 60 00 00 00 00 00... mfcr    r14, cr12
00014100  F3 00 00 00 00 00 00 00... suaen
00014108  10 0E 70 00 00 00 00 00... load.q  r1,   0(r14)
00014110  10 17 70 00 08 00 00 00... load.q  r2,   8(r14)
00014118  10 1F 70 00 10 00 00 00... load.q  r3,  16(r14)
00014120  10 27 70 00 18 00 00 00... load.q  r4,  24(r14)
00014128  10 2F 70 00 20 00 00 00... load.q  r5,  32(r14)
00014130  10 37 70 00 28 00 00 00... load.q  r6,  40(r14)
00014138  10 3F 70 00 30 00 00 00... load.q  r7,  48(r14)
00014140  10 47 70 00 38 00 00 00... load.q  r8,  56(r14)
00014148  10 4F 70 00 40 00 00 00... load.q  r9,  64(r14)
00014150  10 57 70 00 48 00 00 00... load.q  r10, 72(r14)
00014158  10 5F 70 00 50 00 00 00... load.q  r11, 80(r14)
00014160  10 67 70 00 58 00 00 00... load.q  r12, 88(r14)
00014168  10 6F 70 00 60 00 00 00... load.q  r13, 96(r14)
00014170  10 7F 70 00 70 00 00 00... load.q  r15, 112(r14)
00014178  10 87 70 00 78 00 00 00... load.q  r16, 120(r14)
00014180  10 8F 70 00 80 00 00 00... load.q  r17, 128(r14)
00014188  10 97 70 00 88 00 00 00... load.q  r18, 136(r14)
00014190  10 9F 70 00 90 00 00 00... load.q  r19, 144(r14)
00014198  10 A7 70 00 98 00 00 00... load.q  r20, 152(r14)
000141A0  10 AF 70 00 A0 00 00 00... load.q  r21, 160(r14)
000141A8  10 B7 70 00 A8 00 00 00... load.q  r22, 168(r14)
000141B0  10 BF 70 00 B0 00 00 00... load.q  r23, 176(r14)
000141B8  10 C7 70 00 B8 00 00 00... load.q  r24, 184(r14)
000141C0  10 CF 70 00 C0 00 00 00... load.q  r25, 192(r14)
000141C8  10 D7 70 00 C8 00 00 00... load.q  r26, 200(r14)
000141D0  10 DF 70 00 D0 00 00 00... load.q  r27, 208(r14)
000141D8  10 E7 70 00 D8 00 00 00... load.q  r28, 216(r14)
000141E0  10 EF 70 00 E0 00 00 00... load.q  r29, 224(r14)
000141E8  10 F7 70 00 E8 00 00 00... load.q  r30, 232(r14)
000141F0  10 FF 70 00 F0 00 00 00... load.q  r31, 240(r14)
000141F8  52 06 70 00 00 00 00 00... push    r14
00014200  20 77 70 00 F8 00 00 00... add     r14, r14, #248
00014208  E6 60 70 00 00 00 00 00... mtcr    cr12, r14
00014210  53 76 00 00 00 00 00 00... pop     r14
00014218  10 77 70 00 68 00 00 00... load.q  r14, 104(r14)
00014220  F4 00 00 00 00 00 00 00... suadis
00014228  E8 00 00 00 00 00 00 00... eret
                         .restore_no_gprs:
00014230  E8 00 00 00 00 00 00 00... eret
                         .restore_waitport_load_full:
00014238  01 0E 68 00 00 00 00 00... move.q  r1, r13
00014240  50 06 00 00 10 DE FE FF... jsr     kern_task_layout_addr
00014248  10 BD 08 00 24 00 00 00... load.l  r23, KD_TASK_LAYOUT_FLAGS(r1)
00014250  35 BF B8 00 10 00 00 00... lsr     r23, r23, #16
                         .restore_waitport:
00014258  01 0E B8 00 00 00 00 00... move.q  r1, r23
00014260  50 06 00 00 10 61 FF FF... jsr     kern_port_addr_for_id
00014268  01 AE 08 00 00 00 00 00... move.q  r21, r1
00014270  41 06 A8 00 18 01 00 00... beq r21, r0, .restore_waitport_spurious
00014278  10 C9 A8 00 02 00 00 00... load.b  r25, KD_PORT_COUNT(r21)
00014280  41 06 C8 00 08 01 00 00... beq r25, r0, .restore_waitport_spurious
00014288  01 0E 68 00 00 00 00 00... move.q  r1, r13
00014290  01 15 00 00 02 00 00 00... move.l  r2, #QUOTA_KIND_WAITERS
00014298  01 1D 00 00 01 00 00 00... move.l  r3, #1
000142A0  50 06 00 00 D8 CD FF FF... jsr     quota_return
000142A8  10 D1 A8 00 03 00 00 00... load.b  r26, KD_PORT_HEAD(r21)
000142B0  01 DD 00 00 20 00 00 00... move.l  r27, #KD_MSG_SIZE
000142B8  22 DE D0 D8 00 00 00 00... mulu    r27, r26, r27
000142C0  20 DE D8 A8 00 00 00 00... add     r27, r27, r21
000142C8  20 DF D8 00 28 00 00 00... add     r27, r27, #KD_PORT_MSGS
000142D0  10 0C D8 00 00 00 00 00... load.l  r1, KD_MSG_TYPE(r27)
000142D8  10 17 D8 00 08 00 00 00... load.q  r2, KD_MSG_DATA0(r27)
000142E0  10 27 D8 00 10 00 00 00... load.q  r4, KD_MSG_DATA1(r27)
000142E8  10 2B D8 00 18 00 00 00... load.w  r5, KD_MSG_REPLY_PORT(r27)
000142F0  10 35 D8 00 1A 00 00 00... load.l  r6, KD_MSG_SHARE_HDL(r27)
000142F8  10 3D D8 00 04 00 00 00... load.l  r7, KD_MSG_SRC(r27)
00014300  20 D7 D0 00 01 00 00 00... add     r26, r26, #1
00014308  30 D7 D0 00 03 00 00 00... and     r26, r26, #3
00014310  11 D1 A8 00 03 00 00 00... store.b r26, KD_PORT_HEAD(r21)
00014318  21 CF C8 00 01 00 00 00... sub     r25, r25, #1
00014320  11 C9 A8 00 02 00 00 00... store.b r25, KD_PORT_COUNT(r21)
00014328  11 05 78 00 14 00 00 00... store.l r0, KD_TASK_SIG_WAIT(r15)
00014330  01 C1 00 00 FF 00 00 00... move.b  r24, #WAITPORT_NONE
00014338  11 C1 78 00 1D 00 00 00... store.b r24, KD_TASK_WAITPORT(r15)
00014340  01 B1 00 00 01 00 00 00... move.b  r22, #TASK_RUNNING
00014348  11 B1 78 00 1C 00 00 00... store.b r22, KD_TASK_STATE(r15)
00014350  10 A5 78 00 18 00 00 00... load.l  r20, KD_TASK_SIG_RECV(r15)
00014358  01 C5 00 00 01 00 00 00... move.l  r24, #SIGF_PORT
00014360  33 B6 C0 00 00 00 00 00... not     r22, r24
00014368  30 A6 A0 B0 00 00 00 00... and     r20, r20, r22
00014370  11 A5 78 00 18 00 00 00... store.l r20, KD_TASK_SIG_RECV(r15)
00014378  01 1F 00 00 00 00 00 00... move.q  r3, #ERR_OK
00014380  E8 00 00 00 00 00 00 00... eret
                         .restore_waitport_spurious:
00014388  10 A5 78 00 18 00 00 00... load.l  r20, KD_TASK_SIG_RECV(r15)
00014390  01 C5 00 00 01 00 00 00... move.l  r24, #SIGF_PORT
00014398  33 B6 C0 00 00 00 00 00... not     r22, r24
000143A0  30 A6 A0 B0 00 00 00 00... and     r20, r20, r22
000143A8  11 A5 78 00 18 00 00 00... store.l r20, KD_TASK_SIG_RECV(r15)
000143B0  01 B1 00 00 02 00 00 00... move.b  r22, #TASK_WAITING
000143B8  11 B1 78 00 1C 00 00 00... store.b r22, KD_TASK_STATE(r15)
000143C0  50 06 00 00 B8 D7 FE FF... jsr     find_next_runnable
000143C8  11 6E 60 00 00 00 00 00... store.q r13, (r12)
000143D0  40 06 00 00 10 FC FF FF... bra     restore_task
                         intr_handler:
000143D8  52 06 70 00 00 00 00 00... push    r14
000143E0  E7 70 60 00 00 00 00 00... mfcr    r14, cr12
000143E8  21 77 70 00 F8 00 00 00... sub     r14, r14, #248
000143F0  F3 00 00 00 00 00 00 00... suaen
000143F8  11 0E 70 00 00 00 00 00... store.q r1,   0(r14)
00014400  11 17 70 00 08 00 00 00... store.q r2,   8(r14)
00014408  11 1F 70 00 10 00 00 00... store.q r3,  16(r14)
00014410  11 27 70 00 18 00 00 00... store.q r4,  24(r14)
00014418  11 2F 70 00 20 00 00 00... store.q r5,  32(r14)
00014420  11 37 70 00 28 00 00 00... store.q r6,  40(r14)
00014428  11 3F 70 00 30 00 00 00... store.q r7,  48(r14)
00014430  11 47 70 00 38 00 00 00... store.q r8,  56(r14)
00014438  11 4F 70 00 40 00 00 00... store.q r9,  64(r14)
00014440  11 57 70 00 48 00 00 00... store.q r10, 72(r14)
00014448  11 5F 70 00 50 00 00 00... store.q r11, 80(r14)
00014450  11 67 70 00 58 00 00 00... store.q r12, 88(r14)
00014458  11 6F 70 00 60 00 00 00... store.q r13, 96(r14)
00014460  53 0E 00 00 00 00 00 00... pop     r1
00014468  11 0F 70 00 68 00 00 00... store.q r1, 104(r14)
00014470  11 7F 70 00 70 00 00 00... store.q r15, 112(r14)
00014478  11 87 70 00 78 00 00 00... store.q r16, 120(r14)
00014480  11 8F 70 00 80 00 00 00... store.q r17, 128(r14)
00014488  11 97 70 00 88 00 00 00... store.q r18, 136(r14)
00014490  11 9F 70 00 90 00 00 00... store.q r19, 144(r14)
00014498  11 A7 70 00 98 00 00 00... store.q r20, 152(r14)
000144A0  11 AF 70 00 A0 00 00 00... store.q r21, 160(r14)
000144A8  11 B7 70 00 A8 00 00 00... store.q r22, 168(r14)
000144B0  11 BF 70 00 B0 00 00 00... store.q r23, 176(r14)
000144B8  11 C7 70 00 B8 00 00 00... store.q r24, 184(r14)
000144C0  11 CF 70 00 C0 00 00 00... store.q r25, 192(r14)
000144C8  11 D7 70 00 C8 00 00 00... store.q r26, 200(r14)
000144D0  11 DF 70 00 D0 00 00 00... store.q r27, 208(r14)
000144D8  11 E7 70 00 D8 00 00 00... store.q r28, 216(r14)
000144E0  11 EF 70 00 E0 00 00 00... store.q r29, 224(r14)
000144E8  11 F7 70 00 E8 00 00 00... store.q r30, 232(r14)
000144F0  11 FF 70 00 F0 00 00 00... store.q r31, 240(r14)
000144F8  F4 00 00 00 00 00 00 00... suadis
00014500  01 E6 70 00 00 00 00 00... move.q  r28, r14
00014508  01 65 00 00 00 D0 08 00... move.l  r12, #KERN_DATA_BASE
00014510  10 57 60 00 08 00 00 00... load.q  r10, KD_TICK_COUNT(r12)
00014518  20 57 50 00 01 00 00 00... add     r10, r10, #1
00014520  11 57 60 00 08 00 00 00... store.q r10, KD_TICK_COUNT(r12)
00014528  50 06 00 00 90 E9 FF FF... jsr     m16_module_timeout_scan
00014530  10 6E 60 00 00 00 00 00... load.q  r13, (r12)
00014538  34 7F 68 00 05 00 00 00... lsl     r15, r13, #5
00014540  20 7F 78 00 40 00 00 00... add     r15, r15, #KD_TASK_BASE
00014548  20 7E 78 60 00 00 00 00... add     r15, r15, r12
00014550  E7 70 18 00 00 00 00 00... mfcr    r14, cr3
00014558  11 76 78 00 00 00 00 00... store.q r14, KD_TASK_PC(r15)
00014560  11 E7 78 00 08 00 00 00... store.q r28, KD_TASK_USP(r15)
00014568  01 71 00 00 01 00 00 00... move.b  r14, #1
00014570  11 71 78 00 1E 00 00 00... store.b r14, KD_TASK_GPR_SAVED(r15)
00014578  50 06 00 00 00 D6 FE FF... jsr     find_next_runnable
00014580  10 86 60 00 00 00 00 00... load.q  r16, (r12)
00014588  41 06 68 80 18 00 00 00... beq     r13, r16, .intr_stay
00014590  11 6E 60 00 00 00 00 00... store.q r13, (r12)
00014598  40 06 00 00 48 FA FF FF... bra     restore_task
                         .intr_stay:
000145A0  20 87 E0 00 F8 00 00 00... add     r16, r28, #248
000145A8  11 87 78 00 08 00 00 00... store.q r16, KD_TASK_USP(r15)
000145B0  11 01 78 00 1E 00 00 00... store.b r0, KD_TASK_GPR_SAVED(r15)
000145B8  01 76 E0 00 00 00 00 00... move.q  r14, r28
000145C0  F3 00 00 00 00 00 00 00... suaen
000145C8  10 0E 70 00 00 00 00 00... load.q  r1,   0(r14)
000145D0  10 17 70 00 08 00 00 00... load.q  r2,   8(r14)
000145D8  10 1F 70 00 10 00 00 00... load.q  r3,  16(r14)
000145E0  10 27 70 00 18 00 00 00... load.q  r4,  24(r14)
000145E8  10 2F 70 00 20 00 00 00... load.q  r5,  32(r14)
000145F0  10 37 70 00 28 00 00 00... load.q  r6,  40(r14)
000145F8  10 3F 70 00 30 00 00 00... load.q  r7,  48(r14)
00014600  10 47 70 00 38 00 00 00... load.q  r8,  56(r14)
00014608  10 4F 70 00 40 00 00 00... load.q  r9,  64(r14)
00014610  10 57 70 00 48 00 00 00... load.q  r10, 72(r14)
00014618  10 5F 70 00 50 00 00 00... load.q  r11, 80(r14)
00014620  10 67 70 00 58 00 00 00... load.q  r12, 88(r14)
00014628  10 6F 70 00 60 00 00 00... load.q  r13, 96(r14)
00014630  10 7F 70 00 70 00 00 00... load.q  r15, 112(r14)
00014638  10 87 70 00 78 00 00 00... load.q  r16, 120(r14)
00014640  10 8F 70 00 80 00 00 00... load.q  r17, 128(r14)
00014648  10 97 70 00 88 00 00 00... load.q  r18, 136(r14)
00014650  10 9F 70 00 90 00 00 00... load.q  r19, 144(r14)
00014658  10 A7 70 00 98 00 00 00... load.q  r20, 152(r14)
00014660  10 AF 70 00 A0 00 00 00... load.q  r21, 160(r14)
00014668  10 B7 70 00 A8 00 00 00... load.q  r22, 168(r14)
00014670  10 BF 70 00 B0 00 00 00... load.q  r23, 176(r14)
00014678  10 C7 70 00 B8 00 00 00... load.q  r24, 184(r14)
00014680  10 CF 70 00 C0 00 00 00... load.q  r25, 192(r14)
00014688  10 D7 70 00 C8 00 00 00... load.q  r26, 200(r14)
00014690  10 DF 70 00 D0 00 00 00... load.q  r27, 208(r14)
00014698  10 E7 70 00 D8 00 00 00... load.q  r28, 216(r14)
000146A0  10 EF 70 00 E0 00 00 00... load.q  r29, 224(r14)
000146A8  10 F7 70 00 E8 00 00 00... load.q  r30, 232(r14)
000146B0  10 FF 70 00 F0 00 00 00... load.q  r31, 240(r14)
000146B8  10 77 70 00 68 00 00 00... load.q  r14, 104(r14)
000146C0  F4 00 00 00 00 00 00 00... suadis
000146C8  E8 00 00 00 00 00 00 00... eret
                         bootstrap_grant_table:
000146D0  0A 00 00 00              dc.b    BOOT_MANIFEST_ID_CONSOLE, 0, 0, 0
000146D4  43 48 49 50              dc.l    HWRES_TAG_CHIP
000146D8  F0 00                    dc.w    0xF0
000146DA  F0 00                    dc.w    0xF0
000146DC  00 00 00 00              dc.l    0
000146E0  FF                       dc.b    0xFF
                         ds.b    15  ; 15 bytes reserved
                         boot_manifest_name_console:
000146F0  4C 2F 63 6F 6E 73 6F 6C... dc.b    "L/console.handler", 0
                         align   8  ; 6 bytes padding
                         boot_manifest_name_doslib:
00014708  64 6F 73 2E 6C 69 62 72... dc.b    "dos.library", 0
                         align   8  ; 4 bytes padding
                         boot_manifest_name_shell:
00014718  53 68 65 6C 6C 00        dc.b    "Shell", 0
                         align   8  ; 2 bytes padding
                         boot_manifest_name_hwres:
00014720  52 45 53 4F 55 52 43 45... dc.b    "RESOURCES/hardware.resource", 0
                         align   8  ; 4 bytes padding
                         boot_manifest_name_input:
00014740  44 45 56 53 2F 69 6E 70... dc.b    "DEVS/input.device", 0
                         align   8  ; 6 bytes padding
                         boot_manifest_name_graphics:
00014758  4C 49 42 53 2F 67 72 61... dc.b    "LIBS/graphics.library", 0
                         align   8  ; 2 bytes padding
                         boot_manifest_name_intuition:
00014770  4C 49 42 53 2F 69 6E 74... dc.b    "LIBS/intuition.library", 0
                         align   8  ; 1 bytes padding
                         boot_manifest_table:
00014788  0A 00 00 00              dc.l    BOOT_MANIFEST_ID_CONSOLE
0001478C  01 00 00 00              dc.l    1
00014790  00 00 00 00 00 00 00 00... dc.q    0
00014798  00 00 00 00 00 00 00 00... dc.q    0
000147A0  F0 46 01 00 00 00 00 00... dc.q    boot_manifest_name_console
000147A8  43 48 49 50              dc.l    HWRES_TAG_CHIP
000147AC  F0 00                    dc.w    0xF0
000147AE  F0 00                    dc.w    0xF0
000147B0  0B 00 00 00              dc.l    BOOT_MANIFEST_ID_DOSLIB
000147B4  01 00 00 00              dc.l    1
000147B8  00 00 00 00 00 00 00 00... dc.q    0
000147C0  00 00 00 00 00 00 00 00... dc.q    0
000147C8  08 47 01 00 00 00 00 00... dc.q    boot_manifest_name_doslib
000147D0  00 00 00 00              dc.l    0
000147D4  00 00                    dc.w    0
000147D6  00 00                    dc.w    0
000147D8  0C 00 00 00              dc.l    BOOT_MANIFEST_ID_SHELL
000147DC  01 00 00 00              dc.l    1
000147E0  00 00 00 00 00 00 00 00... dc.q    0
000147E8  00 00 00 00 00 00 00 00... dc.q    0
000147F0  18 47 01 00 00 00 00 00... dc.q    boot_manifest_name_shell
000147F8  00 00 00 00              dc.l    0
000147FC  00 00                    dc.w    0
000147FE  00 00                    dc.w    0
00014800  0D 00 00 00              dc.l    BOOT_MANIFEST_ID_HWRES
00014804  01 00 00 00              dc.l    1
00014808  00 00 00 00 00 00 00 00... dc.q    0
00014810  00 00 00 00 00 00 00 00... dc.q    0
00014818  20 47 01 00 00 00 00 00... dc.q    boot_manifest_name_hwres
00014820  00 00 00 00              dc.l    0
00014824  00 00                    dc.w    0
00014826  00 00                    dc.w    0
00014828  0E 00 00 00              dc.l    BOOT_MANIFEST_ID_INPUT
0001482C  01 00 00 00              dc.l    1
00014830  00 00 00 00 00 00 00 00... dc.q    0
00014838  00 00 00 00 00 00 00 00... dc.q    0
00014840  40 47 01 00 00 00 00 00... dc.q    boot_manifest_name_input
00014848  00 00 00 00              dc.l    0
0001484C  00 00                    dc.w    0
0001484E  00 00                    dc.w    0
00014850  0F 00 00 00              dc.l    BOOT_MANIFEST_ID_GRAPHICS
00014854  01 00 00 00              dc.l    1
00014858  00 00 00 00 00 00 00 00... dc.q    0
00014860  00 00 00 00 00 00 00 00... dc.q    0
00014868  58 47 01 00 00 00 00 00... dc.q    boot_manifest_name_graphics
00014870  00 00 00 00              dc.l    0
00014874  00 00                    dc.w    0
00014876  00 00                    dc.w    0
00014878  10 00 00 00              dc.l    BOOT_MANIFEST_ID_INTUITION
0001487C  01 00 00 00              dc.l    1
00014880  00 00 00 00 00 00 00 00... dc.q    0
00014888  00 00 00 00 00 00 00 00... dc.q    0
00014890  70 47 01 00 00 00 00 00... dc.q    boot_manifest_name_intuition
00014898  00 00 00 00              dc.l    0
0001489C  00 00                    dc.w    0
0001489E  00 00                    dc.w    0
                         boot_banner:
000148A0  00                       dc.b    0
                         align   4  ; 3 bytes padding
                         fault_msg_prefix:
000148A4  47 55 52 55 20 4D 45 44... dc.b    "GURU MEDITATION cause=", 0
                         align   4  ; 1 bytes padding
                         fault_msg_pc:
000148BC  20 50 43 3D 00           dc.b    " PC=", 0
                         align   4  ; 3 bytes padding
                         fault_msg_addr:
000148C4  20 41 44 44 52 3D 00     dc.b    " ADDR=", 0
                         align   4  ; 1 bytes padding
                         deadlock_msg:
000148CC  44 45 41 44 4C 4F 43 4B... dc.b    "DEADLOCK: no runnable tasks", 0x0D, 0x0A, 0
                         align   4  ; 2 bytes padding
                         fault_msg_task:
000148EC  20 74 61 73 6B 3D 00     dc.b    " task=", 0
                         align   4  ; 1 bytes padding
                         fault_msg_access:
000148F4  20 41 43 43 45 53 53 3D... dc.b    " ACCESS=", 0
                         align   4  ; 3 bytes padding
                         fault_msg_mode:
00014900  20 4D 4F 44 45 3D 00     dc.b    " MODE=", 0
                         align   4  ; 1 bytes padding
                         fault_msg_class:
00014908  20 43 4C 41 53 53 3D 00... dc.b    " CLASS=", 0
                         fault_msg_pte:
00014910  20 50 54 45 3D 00        dc.b    " PTE=", 0
                         align   4  ; 2 bytes padding
                         fault_mode_user:
00014918  75 73 65 72 00           dc.b    "user", 0
                         align   4  ; 3 bytes padding
                         fault_mode_supervisor:
00014920  73 75 70 65 72 76 69 73... dc.b    "supervisor", 0
                         align   4  ; 1 bytes padding
                         fault_access_unknown:
0001492C  75 6E 6B 6E 6F 77 6E 00... dc.b    "unknown", 0
                         fault_access_read:
00014934  72 65 61 64 00           dc.b    "read", 0
                         align   4  ; 3 bytes padding
                         fault_access_write:
0001493C  77 72 69 74 65 00        dc.b    "write", 0
                         align   4  ; 2 bytes padding
                         fault_access_exec:
00014944  65 78 65 63 75 74 65 00... dc.b    "execute", 0
                         fault_class_unknown:
0001494C  75 6E 6B 6E 6F 77 6E 00... dc.b    "unknown", 0
                         fault_class_not_present:
00014954  6E 6F 74 2D 70 72 65 73... dc.b    "not-present", 0
                         fault_class_read:
00014960  72 65 61 64 2D 64 65 6E... dc.b    "read-denied", 0
                         fault_class_write:
0001496C  77 72 69 74 65 2D 64 65... dc.b    "write-denied", 0
                         align   4  ; 3 bytes padding
                         fault_class_exec:
0001497C  65 78 65 63 2D 64 65 6E... dc.b    "exec-denied", 0
                         fault_class_user_super:
00014988  75 73 65 72 2D 73 75 70... dc.b    "user-supervisor", 0
                         fault_class_priv:
00014998  70 72 69 76 69 6C 65 67... dc.b    "privileged", 0
                         align   4  ; 1 bytes padding
                         fault_class_misaligned:
000149A4  6D 69 73 61 6C 69 67 6E... dc.b    "misaligned", 0
                         align   4  ; 1 bytes padding
                         fault_class_timer:
000149B0  74 69 6D 65 72 00        dc.b    "timer", 0
                         align   4  ; 2 bytes padding
                         fault_class_syscall:
000149B8  73 79 73 63 61 6C 6C 00... dc.b    "syscall", 0
                         panic_msg:
000149C0  4B 45 52 4E 45 4C 20 50... dc.b    "KERNEL PANIC: ", 0
                         align   4  ; 1 bytes padding
                         panic_stack_canary_msg:
000149D0  6B 65 72 6E 65 6C 20 73... dc.b    "kernel stack canary", 0x0D, 0x0A, 0
                         align   4  ; 2 bytes padding
                         no_tasks_msg:
000149E8  50 41 4E 49 43 3A 20 6E... dc.b    "PANIC: no programs loaded", 0x0D, 0x0A, 0
                         boot_fail_msg:
00014A04  42 4F 4F 54 20 46 41 49... dc.b    "BOOT FAIL", 0x0D, 0x0A, 0
                         boot_host_relpath_doslib:
00014A10  49 4F 53 53 59 53 2F 4C... dc.b    "IOSSYS/LIBS/dos.library", 0
                         boot_host_relpath_console:
00014A28  49 4F 53 53 59 53 2F 4C... dc.b    "IOSSYS/L/console.handler", 0
                         align   4  ; 3 bytes padding
                         boot_host_relpath_shell:
00014A44  49 4F 53 53 59 53 2F 54... dc.b    "IOSSYS/Tools/Shell", 0
                         align   4  ; 1 bytes padding
                         boot_host_relpath_hwres:
00014A58  49 4F 53 53 59 53 2F 52... dc.b    "IOSSYS/RESOURCES/hardware.resource", 0
                         align   4  ; 1 bytes padding
                         boot_host_relpath_input:
00014A7C  49 4F 53 53 59 53 2F 44... dc.b    "IOSSYS/DEVS/input.device", 0
                         align   4  ; 3 bytes padding
                         boot_shell_path_full:
00014A98  49 4F 53 53 59 53 3A 54... dc.b    "IOSSYS:Tools/Shell", 0
                         align   4  ; 1 bytes padding
                         boot_shell_path_resolved:
00014AAC  53 59 53 2F 49 4F 53 53... dc.b    "SYS/IOSSYS/Tools/Shell", 0
                         align   4  ; 1 bytes padding
                         kern_exec_port_name:
00014AC4  65 78 65 63 2E 6C 69 62... dc.b    "exec.library", 0
                         ds.b    PORT_NAME_LEN - 13  ; 19 bytes reserved
                         kern_iosm_descriptor:
00014AE4  49 4F 53 4D              dc.l    IOSM_MAGIC
00014AE8  01 00 00 00              dc.l    IOSM_SCHEMA_VERSION
00014AEC  01                       dc.b    IOSM_KIND_LIBRARY
00014AED  00                       dc.b    0
00014AEE  01 00                    dc.w    IOS_VERSION_MAJOR
00014AF0  10 00                    dc.w    IOS_VERSION_MINOR
00014AF2  06 00                    dc.w    IOS_VERSION_PATCH
00014AF4  65 78 65 63 2E 6C 69 62... dc.b    "exec.library", 0
                         ds.b    IOSM_NAME_SIZE - 13  ; 19 bytes reserved
00014B14  07 00 00 00              dc.l    MODF_RESIDENT | MODF_COMPAT_PORT | MODF_ASLR_CAPABLE
00014B18  00 00 00 00              dc.l    0
00014B1C  32 30 32 36 2D 30 34 2D... dc.b    "2026-04-25", 0
                         ds.b    IOSM_BUILD_DATE_SIZE - 11  ; 5 bytes reserved
00014B2C  43 6F 70 79 72 69 67 68... dc.b    0x43, 0x6F, 0x70, 0x79, 0x72, 0x69, 0x67, 0x68
00014B34  74 20 A9 20 32 30 32     dc.b    0x74, 0x20, 0xA9, 0x20, 0x32, 0x30, 0x32
00014B3B  36 20 5A 61 79 6E 20 4F... dc.b    0x36, 0x20, 0x5A, 0x61, 0x79, 0x6E, 0x20, 0x4F
00014B43  74 6C 65 79 00           dc.b    0x74, 0x6C, 0x65, 0x79, 0
                         ds.b    IOSM_COPYRIGHT_SIZE - 28  ; 20 bytes reserved
                         ds.b    8  ; 8 bytes reserved
00014B64  50 41 4E 49 43 3A 20 62... dc.b    "PANIC: boot program failed", 0x0D, 0x0A, 0
                         align   4  ; 3 bytes padding
